ARM GAS  C:\Users\MIHAILO\AppData\Local\Temp\ccy63pSr.s 			page 1


   1              		.syntax unified
   2              		.cpu cortex-m0
   3              		.fpu softvfp
   4              		.eabi_attribute 20, 1
   5              		.eabi_attribute 21, 1
   6              		.eabi_attribute 23, 3
   7              		.eabi_attribute 24, 1
   8              		.eabi_attribute 25, 1
   9              		.eabi_attribute 26, 1
  10              		.eabi_attribute 30, 1
  11              		.eabi_attribute 34, 0
  12              		.eabi_attribute 18, 4
  13              		.thumb
  14              		.syntax unified
  15              		.file	"CapSense_Structure.c"
  16              		.text
  17              	.Ltext0:
  18              		.cfi_sections	.debug_frame
  19              		.section	.text.DsParseParamId,"ax",%progbits
  20              		.align	2
  21              		.code	16
  22              		.thumb_func
  23              		.type	DsParseParamId, %function
  24              	DsParseParamId:
  25              	.LFB1:
  26              		.file 1 "Generated_Source\\PSoC4\\CapSense_Structure.c"
   1:Generated_Source\PSoC4/CapSense_Structure.c **** /***************************************************************************//**
   2:Generated_Source\PSoC4/CapSense_Structure.c **** * \file CapSense_Structure.c
   3:Generated_Source\PSoC4/CapSense_Structure.c **** * \version 7.0
   4:Generated_Source\PSoC4/CapSense_Structure.c **** *
   5:Generated_Source\PSoC4/CapSense_Structure.c **** * \brief
   6:Generated_Source\PSoC4/CapSense_Structure.c **** *   This file defines the data structure global variables and provides implementation
   7:Generated_Source\PSoC4/CapSense_Structure.c **** *   for the high-level and low-level APIs of the Data Structure module.
   8:Generated_Source\PSoC4/CapSense_Structure.c **** *
   9:Generated_Source\PSoC4/CapSense_Structure.c **** * \see CapSense v7.0 Datasheet
  10:Generated_Source\PSoC4/CapSense_Structure.c **** *
  11:Generated_Source\PSoC4/CapSense_Structure.c **** *//*****************************************************************************
  12:Generated_Source\PSoC4/CapSense_Structure.c **** * Copyright (2016-2019), Cypress Semiconductor Corporation.
  13:Generated_Source\PSoC4/CapSense_Structure.c **** ********************************************************************************
  14:Generated_Source\PSoC4/CapSense_Structure.c **** * This software is owned by Cypress Semiconductor Corporation (Cypress) and is
  15:Generated_Source\PSoC4/CapSense_Structure.c **** * protected by and subject to worldwide patent protection (United States and
  16:Generated_Source\PSoC4/CapSense_Structure.c **** * foreign), United States copyright laws and international treaty provisions.
  17:Generated_Source\PSoC4/CapSense_Structure.c **** * Cypress hereby grants to licensee a personal, non-exclusive, non-transferable
  18:Generated_Source\PSoC4/CapSense_Structure.c **** * license to copy, use, modify, create derivative works of, and compile the
  19:Generated_Source\PSoC4/CapSense_Structure.c **** * Cypress Source Code and derivative works for the sole purpose of creating
  20:Generated_Source\PSoC4/CapSense_Structure.c **** * custom software in support of licensee product to be used only in conjunction
  21:Generated_Source\PSoC4/CapSense_Structure.c **** * with a Cypress integrated circuit as specified in the applicable agreement.
  22:Generated_Source\PSoC4/CapSense_Structure.c **** * Any reproduction, modification, translation, compilation, or representation of
  23:Generated_Source\PSoC4/CapSense_Structure.c **** * this software except as specified above is prohibited without the express
  24:Generated_Source\PSoC4/CapSense_Structure.c **** * written permission of Cypress.
  25:Generated_Source\PSoC4/CapSense_Structure.c **** *
  26:Generated_Source\PSoC4/CapSense_Structure.c **** * Disclaimer: CYPRESS MAKES NO WARRANTY OF ANY KIND, EXPRESS OR IMPLIED, WITH
  27:Generated_Source\PSoC4/CapSense_Structure.c **** * REGARD TO THIS MATERIAL, INCLUDING, BUT NOT LIMITED TO, THE IMPLIED
  28:Generated_Source\PSoC4/CapSense_Structure.c **** * WARRANTIES OF MERCHANTABILITY AND FITNESS FOR A PARTICULAR PURPOSE.
  29:Generated_Source\PSoC4/CapSense_Structure.c **** * Cypress reserves the right to make changes without further notice to the
  30:Generated_Source\PSoC4/CapSense_Structure.c **** * materials described herein. Cypress does not assume any liability arising out
  31:Generated_Source\PSoC4/CapSense_Structure.c **** * of the application or use of any product or circuit described herein. Cypress
ARM GAS  C:\Users\MIHAILO\AppData\Local\Temp\ccy63pSr.s 			page 2


  32:Generated_Source\PSoC4/CapSense_Structure.c **** * does not authorize its products for use as critical components in life-support
  33:Generated_Source\PSoC4/CapSense_Structure.c **** * systems where a malfunction or failure may reasonably be expected to result in
  34:Generated_Source\PSoC4/CapSense_Structure.c **** * significant injury to the user. The inclusion of Cypress' product in a life-
  35:Generated_Source\PSoC4/CapSense_Structure.c **** * support systems application implies that the manufacturer assumes all risk of
  36:Generated_Source\PSoC4/CapSense_Structure.c **** * such use and in doing so indemnifies Cypress against all charges. Use may be
  37:Generated_Source\PSoC4/CapSense_Structure.c **** * limited by and subject to the applicable Cypress software license agreement.
  38:Generated_Source\PSoC4/CapSense_Structure.c **** *******************************************************************************/
  39:Generated_Source\PSoC4/CapSense_Structure.c **** 
  40:Generated_Source\PSoC4/CapSense_Structure.c **** #include <cytypes.h>
  41:Generated_Source\PSoC4/CapSense_Structure.c **** #include "CyLib.h"
  42:Generated_Source\PSoC4/CapSense_Structure.c **** #include "CapSense_Structure.h"
  43:Generated_Source\PSoC4/CapSense_Structure.c **** #include "CapSense_Configuration.h"
  44:Generated_Source\PSoC4/CapSense_Structure.c **** 
  45:Generated_Source\PSoC4/CapSense_Structure.c **** #if (0u != CapSense_ADC_EN)
  46:Generated_Source\PSoC4/CapSense_Structure.c ****     #include "CapSense_Adc.h"
  47:Generated_Source\PSoC4/CapSense_Structure.c **** #endif /* (0u != CapSense_ADC_EN) */
  48:Generated_Source\PSoC4/CapSense_Structure.c **** 
  49:Generated_Source\PSoC4/CapSense_Structure.c **** #if (CapSense_ENABLE == CapSense_SELF_TEST_EN)
  50:Generated_Source\PSoC4/CapSense_Structure.c ****     #include "CapSense_SelfTest.h"
  51:Generated_Source\PSoC4/CapSense_Structure.c **** #endif
  52:Generated_Source\PSoC4/CapSense_Structure.c **** 
  53:Generated_Source\PSoC4/CapSense_Structure.c **** #if (CapSense_ENABLE == CapSense_CENTROID_5X5_CSD_EN)
  54:Generated_Source\PSoC4/CapSense_Structure.c ****     #include "CapSense_AdvancedCentroid_LL.h"
  55:Generated_Source\PSoC4/CapSense_Structure.c **** #endif
  56:Generated_Source\PSoC4/CapSense_Structure.c **** 
  57:Generated_Source\PSoC4/CapSense_Structure.c **** #if (CapSense_ENABLE == CapSense_GES_GLOBAL_EN)
  58:Generated_Source\PSoC4/CapSense_Structure.c ****     #include "CapSense_Gesture.h"
  59:Generated_Source\PSoC4/CapSense_Structure.c **** #endif /* (CapSense_ENABLE == CapSense_GES_GLOBAL_EN) */
  60:Generated_Source\PSoC4/CapSense_Structure.c **** 
  61:Generated_Source\PSoC4/CapSense_Structure.c **** /*******************************************************************************
  62:Generated_Source\PSoC4/CapSense_Structure.c **** * Defines the RAM Data Structure variables and their init data in flash
  63:Generated_Source\PSoC4/CapSense_Structure.c **** *******************************************************************************/
  64:Generated_Source\PSoC4/CapSense_Structure.c **** /**
  65:Generated_Source\PSoC4/CapSense_Structure.c **** * \cond SECTION_GLOBAL_VARIABLES
  66:Generated_Source\PSoC4/CapSense_Structure.c **** * \addtogroup group_global_variables
  67:Generated_Source\PSoC4/CapSense_Structure.c **** * \{
  68:Generated_Source\PSoC4/CapSense_Structure.c **** */
  69:Generated_Source\PSoC4/CapSense_Structure.c **** 
  70:Generated_Source\PSoC4/CapSense_Structure.c **** /**
  71:Generated_Source\PSoC4/CapSense_Structure.c **** * The variable that contains the CapSense configuration, settings and
  72:Generated_Source\PSoC4/CapSense_Structure.c **** * scanning results. CapSense_dsRam represents RAM Data Structure.
  73:Generated_Source\PSoC4/CapSense_Structure.c **** */
  74:Generated_Source\PSoC4/CapSense_Structure.c **** CapSense_RAM_STRUCT CapSense_dsRam;
  75:Generated_Source\PSoC4/CapSense_Structure.c **** /** \}
  76:Generated_Source\PSoC4/CapSense_Structure.c **** * \endcond */
  77:Generated_Source\PSoC4/CapSense_Structure.c **** 
  78:Generated_Source\PSoC4/CapSense_Structure.c **** /*******************************************************************************
  79:Generated_Source\PSoC4/CapSense_Structure.c **** * Declares Widget's De-bounce Counters
  80:Generated_Source\PSoC4/CapSense_Structure.c **** *******************************************************************************/
  81:Generated_Source\PSoC4/CapSense_Structure.c **** static uint8 CapSense_debounceButton0[CapSense_BUTTON0_NUM_SENSORS];
  82:Generated_Source\PSoC4/CapSense_Structure.c **** 
  83:Generated_Source\PSoC4/CapSense_Structure.c **** 
  84:Generated_Source\PSoC4/CapSense_Structure.c **** /***************************************************************************//**
  85:Generated_Source\PSoC4/CapSense_Structure.c **** * Declares Noise Envelope data structures
  86:Generated_Source\PSoC4/CapSense_Structure.c **** *******************************************************************************/
  87:Generated_Source\PSoC4/CapSense_Structure.c **** static SMARTSENSE_CSD_NOISE_ENVELOPE_STRUCT CapSense_noiseEnvlpButton0[CapSense_BUTTON0_NUM_SENSORS
  88:Generated_Source\PSoC4/CapSense_Structure.c **** 
ARM GAS  C:\Users\MIHAILO\AppData\Local\Temp\ccy63pSr.s 			page 3


  89:Generated_Source\PSoC4/CapSense_Structure.c **** /*******************************************************************************
  90:Generated_Source\PSoC4/CapSense_Structure.c **** * Defines and initializes the Flash Data Structure
  91:Generated_Source\PSoC4/CapSense_Structure.c **** *******************************************************************************/
  92:Generated_Source\PSoC4/CapSense_Structure.c **** 
  93:Generated_Source\PSoC4/CapSense_Structure.c **** 
  94:Generated_Source\PSoC4/CapSense_Structure.c **** 
  95:Generated_Source\PSoC4/CapSense_Structure.c **** /**
  96:Generated_Source\PSoC4/CapSense_Structure.c **** * \cond SECTION_API_CONSTANTS
  97:Generated_Source\PSoC4/CapSense_Structure.c **** * \addtogroup group_api_constants
  98:Generated_Source\PSoC4/CapSense_Structure.c **** * \{
  99:Generated_Source\PSoC4/CapSense_Structure.c **** */
 100:Generated_Source\PSoC4/CapSense_Structure.c **** /**
 101:Generated_Source\PSoC4/CapSense_Structure.c **** * Constant for the FLASH Data Structure
 102:Generated_Source\PSoC4/CapSense_Structure.c **** */
 103:Generated_Source\PSoC4/CapSense_Structure.c **** const CapSense_FLASH_STRUCT CapSense_dsFlash =
 104:Generated_Source\PSoC4/CapSense_Structure.c **** {
 105:Generated_Source\PSoC4/CapSense_Structure.c ****     /* Flash Widget Initialization Data */
 106:Generated_Source\PSoC4/CapSense_Structure.c ****     {
 107:Generated_Source\PSoC4/CapSense_Structure.c ****         { /* Button0 */
 108:Generated_Source\PSoC4/CapSense_Structure.c ****             &CapSense_ioList[0u],
 109:Generated_Source\PSoC4/CapSense_Structure.c ****             (void *)&CapSense_dsRam.wdgtList.button0,
 110:Generated_Source\PSoC4/CapSense_Structure.c ****             CapSense_dsRam.snsList.button0,
 111:Generated_Source\PSoC4/CapSense_Structure.c ****             (void *)0u,
 112:Generated_Source\PSoC4/CapSense_Structure.c ****             CapSense_debounceButton0,
 113:Generated_Source\PSoC4/CapSense_Structure.c ****             CapSense_BUTTON0_STATIC_CONFIG,
 114:Generated_Source\PSoC4/CapSense_Structure.c ****             CapSense_BUTTON0_NUM_SENSORS,
 115:Generated_Source\PSoC4/CapSense_Structure.c ****             (uint8)CapSense_WD_BUTTON_E,
 116:Generated_Source\PSoC4/CapSense_Structure.c ****             CapSense_BUTTON0_NUM_SENSORS,
 117:Generated_Source\PSoC4/CapSense_Structure.c ****             CapSense_noiseEnvlpButton0,
 118:Generated_Source\PSoC4/CapSense_Structure.c ****         },
 119:Generated_Source\PSoC4/CapSense_Structure.c ****     },
 120:Generated_Source\PSoC4/CapSense_Structure.c **** };
 121:Generated_Source\PSoC4/CapSense_Structure.c **** 
 122:Generated_Source\PSoC4/CapSense_Structure.c **** /**
 123:Generated_Source\PSoC4/CapSense_Structure.c **** * The array of the pointers to the electrode specific register.
 124:Generated_Source\PSoC4/CapSense_Structure.c **** */
 125:Generated_Source\PSoC4/CapSense_Structure.c **** const CapSense_FLASH_IO_STRUCT CapSense_ioList[CapSense_TOTAL_ELECTRODES] =
 126:Generated_Source\PSoC4/CapSense_Structure.c **** {
 127:Generated_Source\PSoC4/CapSense_Structure.c ****     { /* 0: Button0_Sns0 */
 128:Generated_Source\PSoC4/CapSense_Structure.c ****         (reg32 *)CapSense_Sns__0__HSIOM,
 129:Generated_Source\PSoC4/CapSense_Structure.c ****         (reg32 *)CapSense_Sns__0__PC,
 130:Generated_Source\PSoC4/CapSense_Structure.c ****         (reg32 *)CapSense_Sns__0__DR,
 131:Generated_Source\PSoC4/CapSense_Structure.c ****         (reg32 *)CapSense_Sns__0__PS,
 132:Generated_Source\PSoC4/CapSense_Structure.c ****         CapSense_Sns__0__HSIOM_MASK,
 133:Generated_Source\PSoC4/CapSense_Structure.c ****         CapSense_Sns__0__MASK,
 134:Generated_Source\PSoC4/CapSense_Structure.c ****         CapSense_Sns__0__HSIOM_SHIFT,
 135:Generated_Source\PSoC4/CapSense_Structure.c ****         (uint8)CapSense_Sns__0__SHIFT,
 136:Generated_Source\PSoC4/CapSense_Structure.c ****         (uint8)CapSense_Sns__0__SHIFT * 3u,
 137:Generated_Source\PSoC4/CapSense_Structure.c ****     },
 138:Generated_Source\PSoC4/CapSense_Structure.c **** };
 139:Generated_Source\PSoC4/CapSense_Structure.c **** 
 140:Generated_Source\PSoC4/CapSense_Structure.c **** 
 141:Generated_Source\PSoC4/CapSense_Structure.c **** 
 142:Generated_Source\PSoC4/CapSense_Structure.c **** /** \}
 143:Generated_Source\PSoC4/CapSense_Structure.c **** * \endcond */
 144:Generated_Source\PSoC4/CapSense_Structure.c **** 
 145:Generated_Source\PSoC4/CapSense_Structure.c **** /* Initialization data for RAM widget list */
ARM GAS  C:\Users\MIHAILO\AppData\Local\Temp\ccy63pSr.s 			page 4


 146:Generated_Source\PSoC4/CapSense_Structure.c **** const CapSense_RAM_WD_LIST_STRUCT CapSense_ramWidgetInit =
 147:Generated_Source\PSoC4/CapSense_Structure.c **** {
 148:Generated_Source\PSoC4/CapSense_Structure.c ****     { /* Button0 */
 149:Generated_Source\PSoC4/CapSense_Structure.c ****         CapSense_BUTTON0_RESOLUTION,
 150:Generated_Source\PSoC4/CapSense_Structure.c ****         CapSense_BUTTON0_FINGER_TH,
 151:Generated_Source\PSoC4/CapSense_Structure.c ****         CapSense_BUTTON0_NOISE_TH,
 152:Generated_Source\PSoC4/CapSense_Structure.c ****         CapSense_BUTTON0_NNOISE_TH,
 153:Generated_Source\PSoC4/CapSense_Structure.c ****         CapSense_BUTTON0_HYSTERESIS,
 154:Generated_Source\PSoC4/CapSense_Structure.c ****         CapSense_BUTTON0_ON_DEBOUNCE,
 155:Generated_Source\PSoC4/CapSense_Structure.c ****         CapSense_BUTTON0_LOW_BSLN_RST,
 156:Generated_Source\PSoC4/CapSense_Structure.c ****         {
 157:Generated_Source\PSoC4/CapSense_Structure.c ****             CapSense_BUTTON0_IDAC_MOD0,
 158:Generated_Source\PSoC4/CapSense_Structure.c ****         },
 159:Generated_Source\PSoC4/CapSense_Structure.c ****         CapSense_BUTTON0_IDAC_GAIN_INDEX,
 160:Generated_Source\PSoC4/CapSense_Structure.c ****         CapSense_BUTTON0_SNS_CLK,
 161:Generated_Source\PSoC4/CapSense_Structure.c ****         CapSense_BUTTON0_SNS_CLK_SOURCE,
 162:Generated_Source\PSoC4/CapSense_Structure.c ****         CapSense_BUTTON0_FINGER_CAP,
 163:Generated_Source\PSoC4/CapSense_Structure.c ****         CapSense_BUTTON0_SIGPFC,
 164:Generated_Source\PSoC4/CapSense_Structure.c ****     },
 165:Generated_Source\PSoC4/CapSense_Structure.c **** };
 166:Generated_Source\PSoC4/CapSense_Structure.c **** 
 167:Generated_Source\PSoC4/CapSense_Structure.c **** 
 168:Generated_Source\PSoC4/CapSense_Structure.c **** /* IDAC Initialization Data */
 169:Generated_Source\PSoC4/CapSense_Structure.c **** const uint8 CapSense_ramIdacInit[CapSense_TOTAL_SENSORS] =
 170:Generated_Source\PSoC4/CapSense_Structure.c **** {
 171:Generated_Source\PSoC4/CapSense_Structure.c ****     /* Button0 */
 172:Generated_Source\PSoC4/CapSense_Structure.c ****     CapSense_BUTTON0_SNS0_IDAC_COMP0,
 173:Generated_Source\PSoC4/CapSense_Structure.c **** };
 174:Generated_Source\PSoC4/CapSense_Structure.c **** 
 175:Generated_Source\PSoC4/CapSense_Structure.c **** 
 176:Generated_Source\PSoC4/CapSense_Structure.c **** 
 177:Generated_Source\PSoC4/CapSense_Structure.c **** 
 178:Generated_Source\PSoC4/CapSense_Structure.c **** 
 179:Generated_Source\PSoC4/CapSense_Structure.c **** /*******************************************************************************
 180:Generated_Source\PSoC4/CapSense_Structure.c **** * Defines internal data types and statements
 181:Generated_Source\PSoC4/CapSense_Structure.c **** *******************************************************************************/
 182:Generated_Source\PSoC4/CapSense_Structure.c **** #define PARAM_TYPE_OFFSET       (30u)
 183:Generated_Source\PSoC4/CapSense_Structure.c **** #define PARAM_TYPE_MASK         (3Lu << PARAM_TYPE_OFFSET)
 184:Generated_Source\PSoC4/CapSense_Structure.c **** #define PARAM_RWBIT_OFFSET      (29u)
 185:Generated_Source\PSoC4/CapSense_Structure.c **** #define PARAM_RWBIT_MASK        (1Lu << PARAM_RWBIT_OFFSET)
 186:Generated_Source\PSoC4/CapSense_Structure.c **** #define PARAM_FBIT_OFFSET       (28u)
 187:Generated_Source\PSoC4/CapSense_Structure.c **** #define PARAM_FBIT_MASK         (1Lu << PARAM_FBIT_OFFSET)
 188:Generated_Source\PSoC4/CapSense_Structure.c **** #define PARAM_UBIT_OFFSET       (23u)
 189:Generated_Source\PSoC4/CapSense_Structure.c **** #define PARAM_UBIT_MASK         (1Lu << PARAM_UBIT_OFFSET)
 190:Generated_Source\PSoC4/CapSense_Structure.c **** #define PARAM_WDID_OFFSET       (16u)
 191:Generated_Source\PSoC4/CapSense_Structure.c **** #define PARAM_WDID_MASK         (0x7FLu << PARAM_WDID_OFFSET)
 192:Generated_Source\PSoC4/CapSense_Structure.c **** #define PARAM_CRC_OFFSET        (24u)
 193:Generated_Source\PSoC4/CapSense_Structure.c **** #define PARAM_CRC_MASK          (0x0FLu << PARAM_CRC_OFFSET)
 194:Generated_Source\PSoC4/CapSense_Structure.c **** 
 195:Generated_Source\PSoC4/CapSense_Structure.c **** /* Defines align masks for uint16 and uint32 */
 196:Generated_Source\PSoC4/CapSense_Structure.c **** #define UINT16_ALIGN_MASK       (1Lu)
 197:Generated_Source\PSoC4/CapSense_Structure.c **** #define UINT32_ALIGN_MASK       (3Lu)
 198:Generated_Source\PSoC4/CapSense_Structure.c **** 
 199:Generated_Source\PSoC4/CapSense_Structure.c **** /* Defines supported parameter types */
 200:Generated_Source\PSoC4/CapSense_Structure.c **** #define DS_PARAM_TYPE_UINT8     (0x01u)
 201:Generated_Source\PSoC4/CapSense_Structure.c **** #define DS_PARAM_TYPE_UINT16    (0x02u)
 202:Generated_Source\PSoC4/CapSense_Structure.c **** #define DS_PARAM_TYPE_UINT32    (0x03u)
ARM GAS  C:\Users\MIHAILO\AppData\Local\Temp\ccy63pSr.s 			page 5


 203:Generated_Source\PSoC4/CapSense_Structure.c **** 
 204:Generated_Source\PSoC4/CapSense_Structure.c **** 
 205:Generated_Source\PSoC4/CapSense_Structure.c **** /* Defines PARAM_ID structure */
 206:Generated_Source\PSoC4/CapSense_Structure.c **** typedef struct
 207:Generated_Source\PSoC4/CapSense_Structure.c **** {
 208:Generated_Source\PSoC4/CapSense_Structure.c ****     uint16 offset;      /* parameter offset */
 209:Generated_Source\PSoC4/CapSense_Structure.c ****     uint8  widgetId;    /* widget Id parameter belongs to */
 210:Generated_Source\PSoC4/CapSense_Structure.c ****     uint8  affectsCrc;  /* parameter affects widget CRC */
 211:Generated_Source\PSoC4/CapSense_Structure.c ****     uint8  crc;         /* parameter CRC */
 212:Generated_Source\PSoC4/CapSense_Structure.c ****     uint8  flash;       /* parameter located in FLASH flag */
 213:Generated_Source\PSoC4/CapSense_Structure.c ****     uint8  rw;          /* parameter is read/write flag */
 214:Generated_Source\PSoC4/CapSense_Structure.c ****     uint8  type;        /* parameter type: uint8/uint16/uint32 */
 215:Generated_Source\PSoC4/CapSense_Structure.c **** } PARAM_ID_STRUCT;
 216:Generated_Source\PSoC4/CapSense_Structure.c **** 
 217:Generated_Source\PSoC4/CapSense_Structure.c **** 
 218:Generated_Source\PSoC4/CapSense_Structure.c **** /*******************************************************************************
 219:Generated_Source\PSoC4/CapSense_Structure.c **** * Static Function Prototypes
 220:Generated_Source\PSoC4/CapSense_Structure.c **** *******************************************************************************/
 221:Generated_Source\PSoC4/CapSense_Structure.c **** /**
 222:Generated_Source\PSoC4/CapSense_Structure.c **** * \cond SECTION_C_INTERNAL
 223:Generated_Source\PSoC4/CapSense_Structure.c **** * \addtogroup group_c_internal
 224:Generated_Source\PSoC4/CapSense_Structure.c **** * \{
 225:Generated_Source\PSoC4/CapSense_Structure.c **** */
 226:Generated_Source\PSoC4/CapSense_Structure.c **** 
 227:Generated_Source\PSoC4/CapSense_Structure.c **** 
 228:Generated_Source\PSoC4/CapSense_Structure.c **** 
 229:Generated_Source\PSoC4/CapSense_Structure.c **** static cystatus DsParseParamId(uint32 paramId, PARAM_ID_STRUCT *pData);
 230:Generated_Source\PSoC4/CapSense_Structure.c **** 
 231:Generated_Source\PSoC4/CapSense_Structure.c **** /** \}
 232:Generated_Source\PSoC4/CapSense_Structure.c **** * \endcond */
 233:Generated_Source\PSoC4/CapSense_Structure.c **** 
 234:Generated_Source\PSoC4/CapSense_Structure.c **** 
 235:Generated_Source\PSoC4/CapSense_Structure.c **** /*******************************************************************************
 236:Generated_Source\PSoC4/CapSense_Structure.c **** * Function Name: CapSense_DsInitialize
 237:Generated_Source\PSoC4/CapSense_Structure.c **** ****************************************************************************//**
 238:Generated_Source\PSoC4/CapSense_Structure.c **** *
 239:Generated_Source\PSoC4/CapSense_Structure.c **** * \brief
 240:Generated_Source\PSoC4/CapSense_Structure.c **** *   This function initializes the Data Structure storage.
 241:Generated_Source\PSoC4/CapSense_Structure.c **** *
 242:Generated_Source\PSoC4/CapSense_Structure.c **** * \details
 243:Generated_Source\PSoC4/CapSense_Structure.c **** *   This function copies the default widget configuration parameters
 244:Generated_Source\PSoC4/CapSense_Structure.c **** *   from the Flash storage into the RAM Data Structure.
 245:Generated_Source\PSoC4/CapSense_Structure.c **** *
 246:Generated_Source\PSoC4/CapSense_Structure.c **** *******************************************************************************/
 247:Generated_Source\PSoC4/CapSense_Structure.c **** void CapSense_DsInitialize(void)
 248:Generated_Source\PSoC4/CapSense_Structure.c **** {
 249:Generated_Source\PSoC4/CapSense_Structure.c ****     #if ((CapSense_ENABLE == CapSense_CSX_EN) || \
 250:Generated_Source\PSoC4/CapSense_Structure.c ****          (CapSense_ENABLE == CapSense_CSD_IDAC_COMP_EN) || \
 251:Generated_Source\PSoC4/CapSense_Structure.c ****         ((CapSense_ENABLE == CapSense_CSX_EN) && \
 252:Generated_Source\PSoC4/CapSense_Structure.c ****          (CapSense_ENABLE == CapSense_CSX_SKIP_OVSMPL_SPECIFIC_NODES)))
 253:Generated_Source\PSoC4/CapSense_Structure.c ****         uint32 snsId;
 254:Generated_Source\PSoC4/CapSense_Structure.c ****         uint32 wdgtId;
 255:Generated_Source\PSoC4/CapSense_Structure.c ****         CapSense_RAM_SNS_STRUCT * ptrSnsTmp;
 256:Generated_Source\PSoC4/CapSense_Structure.c ****         CapSense_FLASH_WD_STRUCT const * ptrFlashWdgt;
 257:Generated_Source\PSoC4/CapSense_Structure.c ****     #endif
 258:Generated_Source\PSoC4/CapSense_Structure.c **** 
 259:Generated_Source\PSoC4/CapSense_Structure.c ****     #if ((CapSense_ENABLE == CapSense_CSX_EN) && \
ARM GAS  C:\Users\MIHAILO\AppData\Local\Temp\ccy63pSr.s 			page 6


 260:Generated_Source\PSoC4/CapSense_Structure.c ****          (CapSense_ENABLE == CapSense_CSX_SKIP_OVSMPL_SPECIFIC_NODES))
 261:Generated_Source\PSoC4/CapSense_Structure.c ****         uint16 subConvNumber;
 262:Generated_Source\PSoC4/CapSense_Structure.c ****     #endif
 263:Generated_Source\PSoC4/CapSense_Structure.c **** 
 264:Generated_Source\PSoC4/CapSense_Structure.c ****     #if ((0u != CapSense_CSX_EN) || (0 != CapSense_CSD_IDAC_COMP_EN))
 265:Generated_Source\PSoC4/CapSense_Structure.c ****         uint8 const * ptrIdacInit = CapSense_ramIdacInit;
 266:Generated_Source\PSoC4/CapSense_Structure.c ****     #endif
 267:Generated_Source\PSoC4/CapSense_Structure.c **** 
 268:Generated_Source\PSoC4/CapSense_Structure.c ****     /* Reset RAM data structure content */
 269:Generated_Source\PSoC4/CapSense_Structure.c ****     (void)memset(&CapSense_dsRam, 0, sizeof(CapSense_dsRam));
 270:Generated_Source\PSoC4/CapSense_Structure.c **** 
 271:Generated_Source\PSoC4/CapSense_Structure.c ****     /* Initialize configId, deviceId and hwClock registers */
 272:Generated_Source\PSoC4/CapSense_Structure.c ****     CapSense_dsRam.configId = CapSense_CONFIG_ID;
 273:Generated_Source\PSoC4/CapSense_Structure.c ****     CapSense_dsRam.deviceId = CapSense_DEVICE_ID;
 274:Generated_Source\PSoC4/CapSense_Structure.c ****     CapSense_dsRam.hwClock = CapSense_HW_CLOCK;
 275:Generated_Source\PSoC4/CapSense_Structure.c **** 
 276:Generated_Source\PSoC4/CapSense_Structure.c ****     /* Initialize global RAM data */
 277:Generated_Source\PSoC4/CapSense_Structure.c ****     CapSense_dsRam.csd0Config = CapSense_CSD0_CONFIG;
 278:Generated_Source\PSoC4/CapSense_Structure.c **** 
 279:Generated_Source\PSoC4/CapSense_Structure.c ****     CapSense_dsRam.scanCurrentISC = CapSense_SNS_CONNECTION_UNDEFINED;
 280:Generated_Source\PSoC4/CapSense_Structure.c ****     #if (0u != CapSense_TOTAL_CSD_WIDGETS)
 281:Generated_Source\PSoC4/CapSense_Structure.c ****         CapSense_dsRam.modCsdClk = CapSense_CSD_SCANSPEED_DIVIDER;
 282:Generated_Source\PSoC4/CapSense_Structure.c ****         CapSense_dsRam.scanCsdISC = CapSense_CSD_INACTIVE_SNS_CONNECTION;
 283:Generated_Source\PSoC4/CapSense_Structure.c **** 
 284:Generated_Source\PSoC4/CapSense_Structure.c ****         #if (0u != CapSense_CSD_COMMON_SNS_CLK_EN)
 285:Generated_Source\PSoC4/CapSense_Structure.c ****             CapSense_dsRam.snsCsdClk = CapSense_CSD_SNS_CLK_DIVIDER;
 286:Generated_Source\PSoC4/CapSense_Structure.c ****         #endif /* #if (0u != CapSense_CSD_COMMON_SNS_CLK_EN) */
 287:Generated_Source\PSoC4/CapSense_Structure.c ****     #endif /* #if (0u != CapSense_TOTAL_CSD_WIDGETS) */
 288:Generated_Source\PSoC4/CapSense_Structure.c **** 
 289:Generated_Source\PSoC4/CapSense_Structure.c ****     #if (CapSense_ENABLE == CapSense_CSX_EN)
 290:Generated_Source\PSoC4/CapSense_Structure.c ****         CapSense_dsRam.modCsxClk = CapSense_CSX_SCANSPEED_DIVIDER;
 291:Generated_Source\PSoC4/CapSense_Structure.c ****         CapSense_dsRam.scanCsxISC = CapSense_CSX_INACTIVE_SNS_CONNECTION;
 292:Generated_Source\PSoC4/CapSense_Structure.c **** 
 293:Generated_Source\PSoC4/CapSense_Structure.c ****         #if (0u != CapSense_CSX_COMMON_TX_CLK_EN)
 294:Generated_Source\PSoC4/CapSense_Structure.c ****             CapSense_dsRam.snsCsxClk = CapSense_CSX_TX_CLK_DIVIDER;
 295:Generated_Source\PSoC4/CapSense_Structure.c ****         #endif /* #if (0u != CapSense_CSX_COMMON_TX_CLK_EN) */
 296:Generated_Source\PSoC4/CapSense_Structure.c ****     #endif /* #if (CapSense_ENABLE == CapSense_CSX_EN) */
 297:Generated_Source\PSoC4/CapSense_Structure.c **** 
 298:Generated_Source\PSoC4/CapSense_Structure.c ****     #if (CapSense_ENABLE == CapSense_ISX_EN)
 299:Generated_Source\PSoC4/CapSense_Structure.c ****         CapSense_dsRam.modIsxClk = CapSense_ISX_SCANSPEED_DIVIDER;
 300:Generated_Source\PSoC4/CapSense_Structure.c ****     #endif /* #if (0u != CapSense_ISX_EN) */
 301:Generated_Source\PSoC4/CapSense_Structure.c **** 
 302:Generated_Source\PSoC4/CapSense_Structure.c ****     #if (0u != CapSense_SELF_TEST_EN)
 303:Generated_Source\PSoC4/CapSense_Structure.c **** 
 304:Generated_Source\PSoC4/CapSense_Structure.c ****         CapSense_dsRam.glbCrc = CapSense_GLB_CRC;
 305:Generated_Source\PSoC4/CapSense_Structure.c ****         CapSense_dsRam.selfTestConfig.fineInitTime = (uint8)CapSense_TST_FINE_INIT_TIME;
 306:Generated_Source\PSoC4/CapSense_Structure.c ****         CapSense_dsRam.selfTestConfig.startupDelay = CapSense_TST_ANALOG_STARTUP_DELAY_US;
 307:Generated_Source\PSoC4/CapSense_Structure.c **** 
 308:Generated_Source\PSoC4/CapSense_Structure.c ****         #if (0u != CapSense_TST_SNS_SHORT_EN)
 309:Generated_Source\PSoC4/CapSense_Structure.c ****             CapSense_dsRam.selfTestConfig.snsShortTimeUs = CapSense_TST_SNS_SHORT_TIME;
 310:Generated_Source\PSoC4/CapSense_Structure.c ****         #endif
 311:Generated_Source\PSoC4/CapSense_Structure.c **** 
 312:Generated_Source\PSoC4/CapSense_Structure.c ****         #if ((0u != CapSense_TST_SNS_CAP_EN) ||\
 313:Generated_Source\PSoC4/CapSense_Structure.c ****              (0u != CapSense_TST_SH_CAP_EN))
 314:Generated_Source\PSoC4/CapSense_Structure.c ****             CapSense_dsRam.selfTestConfig.snsCapSnsClkDivider = CapSense_TST_SNS_CAP_SNS_CLK_DIVIDE
 315:Generated_Source\PSoC4/CapSense_Structure.c ****             CapSense_dsRam.selfTestConfig.snsCapSnsClkHz = CapSense_TST_SNS_CAP_SNS_CLK_HZ;
 316:Generated_Source\PSoC4/CapSense_Structure.c ****             CapSense_dsRam.selfTestConfig.snsCapResolution = CapSense_TST_SNS_CAP_RESOLUTION;
ARM GAS  C:\Users\MIHAILO\AppData\Local\Temp\ccy63pSr.s 			page 7


 317:Generated_Source\PSoC4/CapSense_Structure.c ****             CapSense_dsRam.selfTestConfig.snsCapVrefGain = CapSense_TST_SNS_CAP_VREF_GAIN ;
 318:Generated_Source\PSoC4/CapSense_Structure.c ****             CapSense_dsRam.selfTestConfig.snsCapVrefVoltage = CapSense_TST_SNS_CAP_VREF_MV;
 319:Generated_Source\PSoC4/CapSense_Structure.c ****             CapSense_dsRam.selfTestConfig.snsCapModClkDivider = CapSense_TST_MOD_CLK_DIVIDER ;
 320:Generated_Source\PSoC4/CapSense_Structure.c ****             CapSense_dsRam.selfTestConfig.snsCapModClkKHz = CapSense_TST_MOD_CLK_KHZ ;
 321:Generated_Source\PSoC4/CapSense_Structure.c ****         #endif /* ((0u != CapSense_TST_SNS_CAP_EN) ||
 322:Generated_Source\PSoC4/CapSense_Structure.c ****                    (0u != CapSense_TST_SH_CAP_EN)) */
 323:Generated_Source\PSoC4/CapSense_Structure.c **** 
 324:Generated_Source\PSoC4/CapSense_Structure.c ****         #if (0u != CapSense_TST_SNS_CAP_EN)
 325:Generated_Source\PSoC4/CapSense_Structure.c ****             #if (0u != CapSense_CSD_EN)
 326:Generated_Source\PSoC4/CapSense_Structure.c ****                 CapSense_dsRam.selfTestConfig.bistCsdSnsCapISC = CapSense_SNS_CAP_CSD_INACTIVE_CONN
 327:Generated_Source\PSoC4/CapSense_Structure.c ****             #endif /* (0u != CapSense_CSD_EN) */
 328:Generated_Source\PSoC4/CapSense_Structure.c ****             #if (0u != CapSense_CSX_EN)
 329:Generated_Source\PSoC4/CapSense_Structure.c ****                 CapSense_dsRam.selfTestConfig.bistCsxSnsCapISC = CapSense_SNS_CAP_CSX_INACTIVE_CONN
 330:Generated_Source\PSoC4/CapSense_Structure.c ****             #endif /* (0u != CapSense_CSX_EN) */
 331:Generated_Source\PSoC4/CapSense_Structure.c ****         #endif /* (0u != CapSense_TST_SNS_CAP_EN) */
 332:Generated_Source\PSoC4/CapSense_Structure.c **** 
 333:Generated_Source\PSoC4/CapSense_Structure.c ****         #if (0u != CapSense_TST_SH_CAP_EN)
 334:Generated_Source\PSoC4/CapSense_Structure.c ****             #if ((0u != CapSense_CSD_EN) && (0u != CapSense_CSD_SHIELD_EN))
 335:Generated_Source\PSoC4/CapSense_Structure.c ****                 CapSense_dsRam.selfTestConfig.bistCsdShCapISC = CapSense_SHIELD_CAP_INACTIVE_CONNEC
 336:Generated_Source\PSoC4/CapSense_Structure.c ****             #endif /* ((0u != CapSense_CSD_EN) && (0u != CapSense_CSD_SHIELD_EN)) */
 337:Generated_Source\PSoC4/CapSense_Structure.c ****         #endif /* (0u != CapSense_TST_SH_CAP_EN) */
 338:Generated_Source\PSoC4/CapSense_Structure.c **** 
 339:Generated_Source\PSoC4/CapSense_Structure.c ****         #if (0u != CapSense_TST_EXTERNAL_CAP_EN)
 340:Generated_Source\PSoC4/CapSense_Structure.c ****             CapSense_dsRam.selfTestConfig.extCapVrefGain = CapSense_TST_EXT_CAP_VREF_GAIN;
 341:Generated_Source\PSoC4/CapSense_Structure.c ****             CapSense_dsRam.selfTestConfig.extCapVrefVoltage = CapSense_TST_EXT_CAP_VREF_MV;
 342:Generated_Source\PSoC4/CapSense_Structure.c ****         #endif /* #if (0u != CapSense_TST_EXTERNAL_CAP_EN) */
 343:Generated_Source\PSoC4/CapSense_Structure.c **** 
 344:Generated_Source\PSoC4/CapSense_Structure.c ****         #if (0u != CapSense_TST_VDDA_EN)
 345:Generated_Source\PSoC4/CapSense_Structure.c ****             CapSense_dsRam.selfTestConfig.vddaResolution = CapSense_TST_VDDA_RESOLUTION;
 346:Generated_Source\PSoC4/CapSense_Structure.c ****             CapSense_dsRam.selfTestConfig.vddaModClkDivider = CapSense_TST_VDDA_MOD_CLK_DIVIDER;
 347:Generated_Source\PSoC4/CapSense_Structure.c **** 
 348:Generated_Source\PSoC4/CapSense_Structure.c ****             CapSense_dsRam.selfTestConfig.vddaVrefGain = CapSense_TST_VDDA_VREF_GAIN;
 349:Generated_Source\PSoC4/CapSense_Structure.c ****             CapSense_dsRam.selfTestConfig.vddaVrefVoltage = CapSense_TST_VDDA_VREF_MV;
 350:Generated_Source\PSoC4/CapSense_Structure.c ****         #endif /* #if (0u != CapSense_TST_VDDA_EN) */
 351:Generated_Source\PSoC4/CapSense_Structure.c **** 
 352:Generated_Source\PSoC4/CapSense_Structure.c ****     #endif /* #if (0u != CapSense_SELF_TEST_EN) */
 353:Generated_Source\PSoC4/CapSense_Structure.c **** 
 354:Generated_Source\PSoC4/CapSense_Structure.c ****     /* Initialize RAM widget data */
 355:Generated_Source\PSoC4/CapSense_Structure.c ****     CapSense_dsRam.wdgtList = CapSense_ramWidgetInit;
 356:Generated_Source\PSoC4/CapSense_Structure.c **** 
 357:Generated_Source\PSoC4/CapSense_Structure.c ****     /* Initialize Gesture configuration structure */
 358:Generated_Source\PSoC4/CapSense_Structure.c ****     #if ((0u != CapSense_GES_GLOBAL_EN) || (0u != CapSense_BALLISTIC_MULTIPLIER_EN))
 359:Generated_Source\PSoC4/CapSense_Structure.c ****         CapSense_dsRam.timestampInterval = CapSense_TIMESTAMP_INTERVAL;
 360:Generated_Source\PSoC4/CapSense_Structure.c ****     #endif /* ((0u != CapSense_GES_GLOBAL_EN) || (0u != CapSense_BALLISTIC_MULTIPLIER_EN)) */
 361:Generated_Source\PSoC4/CapSense_Structure.c **** 
 362:Generated_Source\PSoC4/CapSense_Structure.c ****     #if (0u != CapSense_GES_GLOBAL_EN)
 363:Generated_Source\PSoC4/CapSense_Structure.c ****         CapSense_dsRam.gestures = CapSense_ramGesturesInit;
 364:Generated_Source\PSoC4/CapSense_Structure.c ****     #endif /* (0u != CapSense_GES_GLOBAL_EN) */
 365:Generated_Source\PSoC4/CapSense_Structure.c **** 
 366:Generated_Source\PSoC4/CapSense_Structure.c ****     #if (0u != CapSense_BALLISTIC_MULTIPLIER_EN)
 367:Generated_Source\PSoC4/CapSense_Structure.c ****         CapSense_dsRam.ballisticConfig = CapSense_ramBallisticInit;
 368:Generated_Source\PSoC4/CapSense_Structure.c ****     #endif /* (0u != CapSense_BALLISTIC_MULTIPLIER_EN) */
 369:Generated_Source\PSoC4/CapSense_Structure.c **** 
 370:Generated_Source\PSoC4/CapSense_Structure.c ****     #if (0u != CapSense_CSX_EN) || (0 != CapSense_CSD_IDAC_COMP_EN)
 371:Generated_Source\PSoC4/CapSense_Structure.c ****         /* Initialize IDAC data */
 372:Generated_Source\PSoC4/CapSense_Structure.c ****         ptrFlashWdgt = CapSense_dsFlash.wdgtArray;
 373:Generated_Source\PSoC4/CapSense_Structure.c **** 
ARM GAS  C:\Users\MIHAILO\AppData\Local\Temp\ccy63pSr.s 			page 8


 374:Generated_Source\PSoC4/CapSense_Structure.c ****         for (wdgtId = CapSense_TOTAL_WIDGETS; wdgtId-- > 0u; )
 375:Generated_Source\PSoC4/CapSense_Structure.c ****         {
 376:Generated_Source\PSoC4/CapSense_Structure.c ****             ptrSnsTmp = ptrFlashWdgt->ptr2SnsRam;
 377:Generated_Source\PSoC4/CapSense_Structure.c **** 
 378:Generated_Source\PSoC4/CapSense_Structure.c ****             for (snsId = CapSense_GET_SNS_CNT_BY_PTR(ptrFlashWdgt); snsId-- > 0u;)
 379:Generated_Source\PSoC4/CapSense_Structure.c ****             {
 380:Generated_Source\PSoC4/CapSense_Structure.c ****                 ptrSnsTmp->idacComp[0u] = *ptrIdacInit;
 381:Generated_Source\PSoC4/CapSense_Structure.c ****                 ptrIdacInit++;
 382:Generated_Source\PSoC4/CapSense_Structure.c **** 
 383:Generated_Source\PSoC4/CapSense_Structure.c ****                 #if (0u != CapSense_MULTI_FREQ_SCAN_EN)
 384:Generated_Source\PSoC4/CapSense_Structure.c ****                     ptrSnsTmp->idacComp[1u] = *ptrIdacInit;
 385:Generated_Source\PSoC4/CapSense_Structure.c ****                     ptrIdacInit++;
 386:Generated_Source\PSoC4/CapSense_Structure.c **** 
 387:Generated_Source\PSoC4/CapSense_Structure.c ****                     ptrSnsTmp->idacComp[2u] = *ptrIdacInit;
 388:Generated_Source\PSoC4/CapSense_Structure.c ****                     ptrIdacInit++;
 389:Generated_Source\PSoC4/CapSense_Structure.c ****                 #endif /* #if (0u != CapSense_MULTI_FREQ_SCAN_EN) */
 390:Generated_Source\PSoC4/CapSense_Structure.c **** 
 391:Generated_Source\PSoC4/CapSense_Structure.c ****                 ptrSnsTmp++;
 392:Generated_Source\PSoC4/CapSense_Structure.c ****             }
 393:Generated_Source\PSoC4/CapSense_Structure.c **** 
 394:Generated_Source\PSoC4/CapSense_Structure.c ****             ptrFlashWdgt++; /* Move to next widget */
 395:Generated_Source\PSoC4/CapSense_Structure.c ****         }
 396:Generated_Source\PSoC4/CapSense_Structure.c ****     #endif /*(0u != CapSense_CSX_EN) || (0 != CapSense_CSD_IDAC_COMP_EN)*/
 397:Generated_Source\PSoC4/CapSense_Structure.c **** 
 398:Generated_Source\PSoC4/CapSense_Structure.c ****     #if ((CapSense_ENABLE == CapSense_CSX_EN) && \
 399:Generated_Source\PSoC4/CapSense_Structure.c ****          (CapSense_ENABLE == CapSense_CSX_SKIP_OVSMPL_SPECIFIC_NODES))
 400:Generated_Source\PSoC4/CapSense_Structure.c ****         /* Initialize Sub-Conversion Number for each node of each CSX widget */
 401:Generated_Source\PSoC4/CapSense_Structure.c ****         ptrFlashWdgt = CapSense_dsFlash.wdgtArray;
 402:Generated_Source\PSoC4/CapSense_Structure.c ****         for (wdgtId = CapSense_TOTAL_WIDGETS; wdgtId-- > 0u;)
 403:Generated_Source\PSoC4/CapSense_Structure.c ****         {
 404:Generated_Source\PSoC4/CapSense_Structure.c ****             /* Check for widget sense method */
 405:Generated_Source\PSoC4/CapSense_Structure.c ****             if (CapSense_SENSE_METHOD_CSX_E == CapSense_GET_SENSE_METHOD(ptrFlashWdgt))
 406:Generated_Source\PSoC4/CapSense_Structure.c ****             {
 407:Generated_Source\PSoC4/CapSense_Structure.c ****                 /* Take the sub-convesion number of a CSX widget and initialize each node of this w
 408:Generated_Source\PSoC4/CapSense_Structure.c ****                 subConvNumber = ((CapSense_RAM_WD_BASE_STRUCT *)(ptrFlashWdgt->ptr2WdgtRam))->resol
 409:Generated_Source\PSoC4/CapSense_Structure.c ****                 ptrSnsTmp = ptrFlashWdgt->ptr2SnsRam;
 410:Generated_Source\PSoC4/CapSense_Structure.c ****                 for (snsId = CapSense_GET_SNS_CNT_BY_PTR(ptrFlashWdgt); snsId-- > 0u;)
 411:Generated_Source\PSoC4/CapSense_Structure.c ****                 {
 412:Generated_Source\PSoC4/CapSense_Structure.c ****                     ptrSnsTmp->subConvNum = subConvNumber;
 413:Generated_Source\PSoC4/CapSense_Structure.c ****                     ptrSnsTmp++;
 414:Generated_Source\PSoC4/CapSense_Structure.c ****                 }
 415:Generated_Source\PSoC4/CapSense_Structure.c ****             }
 416:Generated_Source\PSoC4/CapSense_Structure.c ****             /* Move to the next widget */
 417:Generated_Source\PSoC4/CapSense_Structure.c ****             ptrFlashWdgt++;
 418:Generated_Source\PSoC4/CapSense_Structure.c ****         }
 419:Generated_Source\PSoC4/CapSense_Structure.c ****     #endif /* ((CapSense_ENABLE == CapSense_CSX_EN) && \
 420:Generated_Source\PSoC4/CapSense_Structure.c ****                (CapSense_ENABLE == CapSense_CSX_SKIP_OVSMPL_SPECIFIC_NODES)) */
 421:Generated_Source\PSoC4/CapSense_Structure.c **** 
 422:Generated_Source\PSoC4/CapSense_Structure.c ****     #if (0u != CapSense_ADC_EN)
 423:Generated_Source\PSoC4/CapSense_Structure.c ****         CapSense_AdcDsInitialize();
 424:Generated_Source\PSoC4/CapSense_Structure.c ****     #endif /* (0u != CapSense_ADC_EN) */
 425:Generated_Source\PSoC4/CapSense_Structure.c **** }
 426:Generated_Source\PSoC4/CapSense_Structure.c **** 
 427:Generated_Source\PSoC4/CapSense_Structure.c **** 
 428:Generated_Source\PSoC4/CapSense_Structure.c **** #if (0u != CapSense_ADC_EN)
 429:Generated_Source\PSoC4/CapSense_Structure.c ****     /*******************************************************************************
 430:Generated_Source\PSoC4/CapSense_Structure.c ****     * Function Name: CapSense_AdcDsInitialize
ARM GAS  C:\Users\MIHAILO\AppData\Local\Temp\ccy63pSr.s 			page 9


 431:Generated_Source\PSoC4/CapSense_Structure.c ****     ****************************************************************************//**
 432:Generated_Source\PSoC4/CapSense_Structure.c ****     *
 433:Generated_Source\PSoC4/CapSense_Structure.c ****     * \brief
 434:Generated_Source\PSoC4/CapSense_Structure.c ****     *   Configures the initial Adc datastructure members.
 435:Generated_Source\PSoC4/CapSense_Structure.c ****     *
 436:Generated_Source\PSoC4/CapSense_Structure.c ****     *******************************************************************************/
 437:Generated_Source\PSoC4/CapSense_Structure.c ****     void CapSense_AdcDsInitialize(void)
 438:Generated_Source\PSoC4/CapSense_Structure.c ****     {
 439:Generated_Source\PSoC4/CapSense_Structure.c ****         CapSense_dsRam.adcResolution = CapSense_ADC_RESOLUTION;
 440:Generated_Source\PSoC4/CapSense_Structure.c ****         CapSense_dsRam.adcIdac = (uint8)(CapSense_ADC_IDAC_DEFAULT);
 441:Generated_Source\PSoC4/CapSense_Structure.c ****         CapSense_dsRam.adcActiveCh = CapSense_AdcNO_CHANNEL;
 442:Generated_Source\PSoC4/CapSense_Structure.c ****     }
 443:Generated_Source\PSoC4/CapSense_Structure.c **** #endif /* (0u != CapSense_ADC_EN) */
 444:Generated_Source\PSoC4/CapSense_Structure.c **** 
 445:Generated_Source\PSoC4/CapSense_Structure.c **** 
 446:Generated_Source\PSoC4/CapSense_Structure.c **** /*******************************************************************************
 447:Generated_Source\PSoC4/CapSense_Structure.c **** * Function Name: DsParseParamId
 448:Generated_Source\PSoC4/CapSense_Structure.c **** ****************************************************************************//**
 449:Generated_Source\PSoC4/CapSense_Structure.c **** *
 450:Generated_Source\PSoC4/CapSense_Structure.c **** * \brief
 451:Generated_Source\PSoC4/CapSense_Structure.c **** *   This function parses the parameter ID and checks its correctness.
 452:Generated_Source\PSoC4/CapSense_Structure.c **** *
 453:Generated_Source\PSoC4/CapSense_Structure.c **** * \details
 454:Generated_Source\PSoC4/CapSense_Structure.c **** *   This function checks the parameter CRC if the self-test is enabled,
 455:Generated_Source\PSoC4/CapSense_Structure.c **** *   validates the offset value and parameter type.
 456:Generated_Source\PSoC4/CapSense_Structure.c **** *
 457:Generated_Source\PSoC4/CapSense_Structure.c **** * \param paramId The parameter to parse.
 458:Generated_Source\PSoC4/CapSense_Structure.c **** * \param pData   The pointer to the structure that will hold parsed data.
 459:Generated_Source\PSoC4/CapSense_Structure.c **** *
 460:Generated_Source\PSoC4/CapSense_Structure.c **** * \return CYRET_SUCCESS     If the parameter is valid
 461:Generated_Source\PSoC4/CapSense_Structure.c **** *         CYRET_BAD_PARAM   If the parameter is invalid
 462:Generated_Source\PSoC4/CapSense_Structure.c **** *
 463:Generated_Source\PSoC4/CapSense_Structure.c **** *******************************************************************************/
 464:Generated_Source\PSoC4/CapSense_Structure.c **** static cystatus DsParseParamId(uint32 paramId, PARAM_ID_STRUCT *pData)
 465:Generated_Source\PSoC4/CapSense_Structure.c **** {
  27              		.loc 1 465 0
  28              		.cfi_startproc
  29              		@ args = 0, pretend = 0, frame = 0
  30              		@ frame_needed = 0, uses_anonymous_args = 0
  31              	.LVL0:
  32 0000 70B5     		push	{r4, r5, r6, lr}
  33              		.cfi_def_cfa_offset 16
  34              		.cfi_offset 4, -16
  35              		.cfi_offset 5, -12
  36              		.cfi_offset 6, -8
  37              		.cfi_offset 14, -4
  38              	.LVL1:
 466:Generated_Source\PSoC4/CapSense_Structure.c ****     cystatus result = CYRET_SUCCESS;
 467:Generated_Source\PSoC4/CapSense_Structure.c **** 
 468:Generated_Source\PSoC4/CapSense_Structure.c ****     #if (0u != CapSense_SELF_TEST_EN)
 469:Generated_Source\PSoC4/CapSense_Structure.c ****         const uint8 crcTable[] =
 470:Generated_Source\PSoC4/CapSense_Structure.c ****         {
 471:Generated_Source\PSoC4/CapSense_Structure.c ****             0x00u, 0x09u, 0x0Bu, 0x02u, 0x0Fu, 0x06u, 0x04u, 0x0Du,
 472:Generated_Source\PSoC4/CapSense_Structure.c ****             0x07u, 0x0Eu, 0x0Cu, 0x05u, 0x08u, 0x01u, 0x03u, 0x0Au
 473:Generated_Source\PSoC4/CapSense_Structure.c ****         };
 474:Generated_Source\PSoC4/CapSense_Structure.c **** 
 475:Generated_Source\PSoC4/CapSense_Structure.c ****         uint32 i;
ARM GAS  C:\Users\MIHAILO\AppData\Local\Temp\ccy63pSr.s 			page 10


 476:Generated_Source\PSoC4/CapSense_Structure.c ****         uint32 actualCrc = 0u;
 477:Generated_Source\PSoC4/CapSense_Structure.c ****         uint32 crcIndex;
 478:Generated_Source\PSoC4/CapSense_Structure.c ****     #endif /* #if (0u != CapSense_SELF_TEST_EN) */
 479:Generated_Source\PSoC4/CapSense_Structure.c **** 
 480:Generated_Source\PSoC4/CapSense_Structure.c ****     /* Extract parameter data */
 481:Generated_Source\PSoC4/CapSense_Structure.c ****     pData->offset     = LO16(paramId);
  39              		.loc 1 481 0
  40 0002 85B2     		uxth	r5, r0
  41 0004 0D80     		strh	r5, [r1]
 482:Generated_Source\PSoC4/CapSense_Structure.c ****     pData->affectsCrc = LO8((paramId & PARAM_UBIT_MASK)  >> PARAM_UBIT_OFFSET);
  42              		.loc 1 482 0
  43 0006 C30D     		lsrs	r3, r0, #23
  44 0008 0124     		movs	r4, #1
  45 000a 2340     		ands	r3, r4
  46 000c CB70     		strb	r3, [r1, #3]
 483:Generated_Source\PSoC4/CapSense_Structure.c ****     pData->widgetId   = LO8((paramId & PARAM_WDID_MASK)  >> PARAM_WDID_OFFSET);
  47              		.loc 1 483 0
  48 000e 030C     		lsrs	r3, r0, #16
  49 0010 7F22     		movs	r2, #127
  50 0012 1340     		ands	r3, r2
  51 0014 8B70     		strb	r3, [r1, #2]
 484:Generated_Source\PSoC4/CapSense_Structure.c ****     pData->type       = LO8((paramId & PARAM_TYPE_MASK)  >> PARAM_TYPE_OFFSET);
  52              		.loc 1 484 0
  53 0016 860F     		lsrs	r6, r0, #30
  54 0018 CE71     		strb	r6, [r1, #7]
 485:Generated_Source\PSoC4/CapSense_Structure.c ****     pData->flash      = LO8((paramId & PARAM_FBIT_MASK)  >> PARAM_FBIT_OFFSET);
  55              		.loc 1 485 0
  56 001a 030F     		lsrs	r3, r0, #28
  57 001c 2340     		ands	r3, r4
  58 001e 4B71     		strb	r3, [r1, #5]
 486:Generated_Source\PSoC4/CapSense_Structure.c ****     pData->rw         = LO8((paramId & PARAM_RWBIT_MASK) >> PARAM_RWBIT_OFFSET);
  59              		.loc 1 486 0
  60 0020 420F     		lsrs	r2, r0, #29
  61 0022 2240     		ands	r2, r4
  62 0024 8A71     		strb	r2, [r1, #6]
 487:Generated_Source\PSoC4/CapSense_Structure.c ****     pData->crc        = LO8((paramId & PARAM_CRC_MASK)   >> PARAM_CRC_OFFSET);
  63              		.loc 1 487 0
  64 0026 000E     		lsrs	r0, r0, #24
  65              	.LVL2:
  66 0028 0E34     		adds	r4, r4, #14
  67 002a 2040     		ands	r0, r4
  68 002c 0871     		strb	r0, [r1, #4]
 488:Generated_Source\PSoC4/CapSense_Structure.c **** 
 489:Generated_Source\PSoC4/CapSense_Structure.c ****     /* Check parameter CRC if self-test is enabled */
 490:Generated_Source\PSoC4/CapSense_Structure.c ****     #if (0u != CapSense_SELF_TEST_EN)
 491:Generated_Source\PSoC4/CapSense_Structure.c **** 
 492:Generated_Source\PSoC4/CapSense_Structure.c ****         /* Calculate CRC for bits 0..24.
 493:Generated_Source\PSoC4/CapSense_Structure.c ****          * The CRC is calculated using nibbles (4-bits).
 494:Generated_Source\PSoC4/CapSense_Structure.c ****          * So for 0..24 bits there are in total 6 nibbles. */
 495:Generated_Source\PSoC4/CapSense_Structure.c ****         for (i = 6u; i > 0u; i--)
 496:Generated_Source\PSoC4/CapSense_Structure.c ****         {
 497:Generated_Source\PSoC4/CapSense_Structure.c ****             crcIndex = actualCrc ^ (paramId & 0x0Fu);
 498:Generated_Source\PSoC4/CapSense_Structure.c ****             actualCrc = crcTable[crcIndex];
 499:Generated_Source\PSoC4/CapSense_Structure.c ****             paramId >>= 4u;
 500:Generated_Source\PSoC4/CapSense_Structure.c ****         }
 501:Generated_Source\PSoC4/CapSense_Structure.c **** 
 502:Generated_Source\PSoC4/CapSense_Structure.c ****         /* Add bits 28..32 */
ARM GAS  C:\Users\MIHAILO\AppData\Local\Temp\ccy63pSr.s 			page 11


 503:Generated_Source\PSoC4/CapSense_Structure.c ****         crcIndex = actualCrc ^ ((paramId >> 4u) & 0x0Fu);
 504:Generated_Source\PSoC4/CapSense_Structure.c ****         actualCrc = crcTable[crcIndex];
 505:Generated_Source\PSoC4/CapSense_Structure.c **** 
 506:Generated_Source\PSoC4/CapSense_Structure.c ****         /* Add bits 24..28 (CRC) */
 507:Generated_Source\PSoC4/CapSense_Structure.c ****         crcIndex = actualCrc ^ (paramId & 0x0Fu);
 508:Generated_Source\PSoC4/CapSense_Structure.c ****         actualCrc = crcTable[crcIndex];
 509:Generated_Source\PSoC4/CapSense_Structure.c **** 
 510:Generated_Source\PSoC4/CapSense_Structure.c ****         if (0u != actualCrc)
 511:Generated_Source\PSoC4/CapSense_Structure.c ****         {
 512:Generated_Source\PSoC4/CapSense_Structure.c ****             /* CRC mismatch */
 513:Generated_Source\PSoC4/CapSense_Structure.c ****             result = CYRET_BAD_PARAM;
 514:Generated_Source\PSoC4/CapSense_Structure.c ****         }
 515:Generated_Source\PSoC4/CapSense_Structure.c **** 
 516:Generated_Source\PSoC4/CapSense_Structure.c ****         if ((CYRET_SUCCESS == result) &&
 517:Generated_Source\PSoC4/CapSense_Structure.c ****             (0u != pData->affectsCrc) && (pData->widgetId >= CapSense_TOTAL_WIDGETS ))
 518:Generated_Source\PSoC4/CapSense_Structure.c ****         {
 519:Generated_Source\PSoC4/CapSense_Structure.c ****             /* Wrong widgetId for protected parameter */
 520:Generated_Source\PSoC4/CapSense_Structure.c ****             result = CYRET_BAD_PARAM;
 521:Generated_Source\PSoC4/CapSense_Structure.c ****         }
 522:Generated_Source\PSoC4/CapSense_Structure.c **** 
 523:Generated_Source\PSoC4/CapSense_Structure.c ****         /* Check offset value range */
 524:Generated_Source\PSoC4/CapSense_Structure.c ****         if (CYRET_SUCCESS == result)
 525:Generated_Source\PSoC4/CapSense_Structure.c ****         {
 526:Generated_Source\PSoC4/CapSense_Structure.c ****             if (0u == pData->flash)
 527:Generated_Source\PSoC4/CapSense_Structure.c ****             {
 528:Generated_Source\PSoC4/CapSense_Structure.c ****                 /* Check offset for RAM Data Structure range */
 529:Generated_Source\PSoC4/CapSense_Structure.c ****                 if (pData->offset >= sizeof(CapSense_dsRam))
 530:Generated_Source\PSoC4/CapSense_Structure.c ****                 {
 531:Generated_Source\PSoC4/CapSense_Structure.c ****                     result = CYRET_BAD_PARAM;
 532:Generated_Source\PSoC4/CapSense_Structure.c ****                 }
 533:Generated_Source\PSoC4/CapSense_Structure.c ****             }
 534:Generated_Source\PSoC4/CapSense_Structure.c ****             else
 535:Generated_Source\PSoC4/CapSense_Structure.c ****             {
 536:Generated_Source\PSoC4/CapSense_Structure.c ****                 /* Check offset for Flash Data Structure range */
 537:Generated_Source\PSoC4/CapSense_Structure.c ****                 if (pData->offset >= sizeof(CapSense_dsFlash))
 538:Generated_Source\PSoC4/CapSense_Structure.c ****                 {
 539:Generated_Source\PSoC4/CapSense_Structure.c ****                     result = CYRET_BAD_PARAM;
 540:Generated_Source\PSoC4/CapSense_Structure.c ****                 }
 541:Generated_Source\PSoC4/CapSense_Structure.c **** 
 542:Generated_Source\PSoC4/CapSense_Structure.c ****                 /* Check if it is marked as Read Only */
 543:Generated_Source\PSoC4/CapSense_Structure.c ****                 if (0u != pData->rw)
 544:Generated_Source\PSoC4/CapSense_Structure.c ****                 {
 545:Generated_Source\PSoC4/CapSense_Structure.c ****                     result = CYRET_BAD_PARAM;
 546:Generated_Source\PSoC4/CapSense_Structure.c ****                 }
 547:Generated_Source\PSoC4/CapSense_Structure.c ****             }
 548:Generated_Source\PSoC4/CapSense_Structure.c ****         }
 549:Generated_Source\PSoC4/CapSense_Structure.c ****     #else /* #if (0u != CapSense_SELF_TEST_EN) */
 550:Generated_Source\PSoC4/CapSense_Structure.c ****         /* Check offset value range */
 551:Generated_Source\PSoC4/CapSense_Structure.c ****         if (0u == pData->flash)
  69              		.loc 1 551 0
  70 002e 002B     		cmp	r3, #0
  71 0030 03D1     		bne	.L2
 552:Generated_Source\PSoC4/CapSense_Structure.c ****         {
 553:Generated_Source\PSoC4/CapSense_Structure.c ****             /* Check offset for RAM Data Structure range */
 554:Generated_Source\PSoC4/CapSense_Structure.c ****             if (pData->offset >= sizeof(CapSense_dsRam))
  72              		.loc 1 554 0
  73 0032 432D     		cmp	r5, #67
ARM GAS  C:\Users\MIHAILO\AppData\Local\Temp\ccy63pSr.s 			page 12


  74 0034 09D8     		bhi	.L9
 466:Generated_Source\PSoC4/CapSense_Structure.c **** 
  75              		.loc 1 466 0
  76 0036 0020     		movs	r0, #0
  77 0038 0AE0     		b	.L3
  78              	.L2:
 555:Generated_Source\PSoC4/CapSense_Structure.c ****             {
 556:Generated_Source\PSoC4/CapSense_Structure.c ****                 result = CYRET_BAD_PARAM;
 557:Generated_Source\PSoC4/CapSense_Structure.c ****             }
 558:Generated_Source\PSoC4/CapSense_Structure.c ****         }
 559:Generated_Source\PSoC4/CapSense_Structure.c ****         else
 560:Generated_Source\PSoC4/CapSense_Structure.c ****         {
 561:Generated_Source\PSoC4/CapSense_Structure.c ****             /* Check offset for Flash Data Structure range */
 562:Generated_Source\PSoC4/CapSense_Structure.c ****             if (pData->offset >= sizeof(CapSense_dsFlash))
  79              		.loc 1 562 0
  80 003a 1F2D     		cmp	r5, #31
  81 003c 01D8     		bhi	.L10
 466:Generated_Source\PSoC4/CapSense_Structure.c **** 
  82              		.loc 1 466 0
  83 003e 0020     		movs	r0, #0
  84 0040 00E0     		b	.L4
  85              	.L10:
 563:Generated_Source\PSoC4/CapSense_Structure.c ****             {
 564:Generated_Source\PSoC4/CapSense_Structure.c ****                 result = CYRET_BAD_PARAM;
  86              		.loc 1 564 0
  87 0042 0120     		movs	r0, #1
  88              	.L4:
  89              	.LVL3:
 565:Generated_Source\PSoC4/CapSense_Structure.c ****             }
 566:Generated_Source\PSoC4/CapSense_Structure.c **** 
 567:Generated_Source\PSoC4/CapSense_Structure.c ****             /* Check if it is marked as Read Only */
 568:Generated_Source\PSoC4/CapSense_Structure.c ****             if (0u != pData->rw)
  90              		.loc 1 568 0
  91 0044 002A     		cmp	r2, #0
  92 0046 02D1     		bne	.L11
  93 0048 02E0     		b	.L3
  94              	.LVL4:
  95              	.L9:
 556:Generated_Source\PSoC4/CapSense_Structure.c ****             }
  96              		.loc 1 556 0
  97 004a 0120     		movs	r0, #1
  98 004c 00E0     		b	.L3
  99              	.LVL5:
 100              	.L11:
 569:Generated_Source\PSoC4/CapSense_Structure.c ****             {
 570:Generated_Source\PSoC4/CapSense_Structure.c ****                 result = CYRET_BAD_PARAM;
 101              		.loc 1 570 0
 102 004e 0120     		movs	r0, #1
 103              	.LVL6:
 104              	.L3:
 571:Generated_Source\PSoC4/CapSense_Structure.c ****             }
 572:Generated_Source\PSoC4/CapSense_Structure.c ****         }
 573:Generated_Source\PSoC4/CapSense_Structure.c ****     #endif /* #if (0u != CapSense_SELF_TEST_EN) */
 574:Generated_Source\PSoC4/CapSense_Structure.c **** 
 575:Generated_Source\PSoC4/CapSense_Structure.c ****     if (CYRET_SUCCESS == result)
 105              		.loc 1 575 0
 106 0050 0028     		cmp	r0, #0
ARM GAS  C:\Users\MIHAILO\AppData\Local\Temp\ccy63pSr.s 			page 13


 107 0052 11D1     		bne	.L5
 576:Generated_Source\PSoC4/CapSense_Structure.c ****     {
 577:Generated_Source\PSoC4/CapSense_Structure.c ****         /* Check parameter type, offset alignment */
 578:Generated_Source\PSoC4/CapSense_Structure.c ****         switch (pData->type)
 108              		.loc 1 578 0
 109 0054 022E     		cmp	r6, #2
 110 0056 04D0     		beq	.L6
 111 0058 032E     		cmp	r6, #3
 112 005a 05D0     		beq	.L7
 113 005c 012E     		cmp	r6, #1
 114 005e 06D1     		bne	.L15
 115 0060 0AE0     		b	.L5
 116              	.L6:
 579:Generated_Source\PSoC4/CapSense_Structure.c ****         {
 580:Generated_Source\PSoC4/CapSense_Structure.c ****         case DS_PARAM_TYPE_UINT16:
 581:Generated_Source\PSoC4/CapSense_Structure.c ****             if (0u != (pData->offset & UINT16_ALIGN_MASK))
 117              		.loc 1 581 0
 118 0062 EB07     		lsls	r3, r5, #31
 119 0064 05D4     		bmi	.L13
 120 0066 07E0     		b	.L5
 121              	.L7:
 582:Generated_Source\PSoC4/CapSense_Structure.c ****             {
 583:Generated_Source\PSoC4/CapSense_Structure.c ****                 result = CYRET_BAD_PARAM;
 584:Generated_Source\PSoC4/CapSense_Structure.c ****             }
 585:Generated_Source\PSoC4/CapSense_Structure.c ****             break;
 586:Generated_Source\PSoC4/CapSense_Structure.c **** 
 587:Generated_Source\PSoC4/CapSense_Structure.c ****         case DS_PARAM_TYPE_UINT32:
 588:Generated_Source\PSoC4/CapSense_Structure.c ****             if (0u != (pData->offset & UINT32_ALIGN_MASK))
 122              		.loc 1 588 0
 123 0068 AB07     		lsls	r3, r5, #30
 124 006a 04D1     		bne	.L14
 125 006c 04E0     		b	.L5
 126              	.L15:
 589:Generated_Source\PSoC4/CapSense_Structure.c ****             {
 590:Generated_Source\PSoC4/CapSense_Structure.c ****                 result = CYRET_BAD_PARAM;
 591:Generated_Source\PSoC4/CapSense_Structure.c ****             }
 592:Generated_Source\PSoC4/CapSense_Structure.c ****             break;
 593:Generated_Source\PSoC4/CapSense_Structure.c **** 
 594:Generated_Source\PSoC4/CapSense_Structure.c ****         case DS_PARAM_TYPE_UINT8:
 595:Generated_Source\PSoC4/CapSense_Structure.c ****             break;
 596:Generated_Source\PSoC4/CapSense_Structure.c **** 
 597:Generated_Source\PSoC4/CapSense_Structure.c ****         default:
 598:Generated_Source\PSoC4/CapSense_Structure.c ****             result = CYRET_BAD_PARAM;
 127              		.loc 1 598 0
 128 006e 0120     		movs	r0, #1
 129              	.LVL7:
 130 0070 02E0     		b	.L5
 131              	.LVL8:
 132              	.L13:
 583:Generated_Source\PSoC4/CapSense_Structure.c ****             }
 133              		.loc 1 583 0
 134 0072 0120     		movs	r0, #1
 135              	.LVL9:
 136 0074 00E0     		b	.L5
 137              	.LVL10:
 138              	.L14:
 590:Generated_Source\PSoC4/CapSense_Structure.c ****             }
ARM GAS  C:\Users\MIHAILO\AppData\Local\Temp\ccy63pSr.s 			page 14


 139              		.loc 1 590 0
 140 0076 0120     		movs	r0, #1
 141              	.LVL11:
 142              	.L5:
 599:Generated_Source\PSoC4/CapSense_Structure.c ****             break;
 600:Generated_Source\PSoC4/CapSense_Structure.c ****         }
 601:Generated_Source\PSoC4/CapSense_Structure.c ****     }
 602:Generated_Source\PSoC4/CapSense_Structure.c **** 
 603:Generated_Source\PSoC4/CapSense_Structure.c ****     return result;
 604:Generated_Source\PSoC4/CapSense_Structure.c **** }
 143              		.loc 1 604 0
 144              		@ sp needed
 145 0078 70BD     		pop	{r4, r5, r6, pc}
 146              		.cfi_endproc
 147              	.LFE1:
 148              		.size	DsParseParamId, .-DsParseParamId
 149 007a C046     		.section	.text.CapSense_DsInitialize,"ax",%progbits
 150              		.align	2
 151              		.global	CapSense_DsInitialize
 152              		.code	16
 153              		.thumb_func
 154              		.type	CapSense_DsInitialize, %function
 155              	CapSense_DsInitialize:
 156              	.LFB0:
 248:Generated_Source\PSoC4/CapSense_Structure.c ****     #if ((CapSense_ENABLE == CapSense_CSX_EN) || \
 157              		.loc 1 248 0
 158              		.cfi_startproc
 159              		@ args = 0, pretend = 0, frame = 0
 160              		@ frame_needed = 0, uses_anonymous_args = 0
 161 0000 70B5     		push	{r4, r5, r6, lr}
 162              		.cfi_def_cfa_offset 16
 163              		.cfi_offset 4, -16
 164              		.cfi_offset 5, -12
 165              		.cfi_offset 6, -8
 166              		.cfi_offset 14, -4
 167              	.LVL12:
 269:Generated_Source\PSoC4/CapSense_Structure.c **** 
 168              		.loc 1 269 0
 169 0002 174C     		ldr	r4, .L21
 170 0004 4422     		movs	r2, #68
 171 0006 0021     		movs	r1, #0
 172 0008 2000     		movs	r0, r4
 173 000a FFF7FEFF 		bl	memset
 174              	.LVL13:
 272:Generated_Source\PSoC4/CapSense_Structure.c ****     CapSense_dsRam.deviceId = CapSense_DEVICE_ID;
 175              		.loc 1 272 0
 176 000e 154B     		ldr	r3, .L21+4
 177 0010 2380     		strh	r3, [r4]
 273:Generated_Source\PSoC4/CapSense_Structure.c ****     CapSense_dsRam.hwClock = CapSense_HW_CLOCK;
 178              		.loc 1 273 0
 179 0012 8023     		movs	r3, #128
 180 0014 DB00     		lsls	r3, r3, #3
 181 0016 6380     		strh	r3, [r4, #2]
 274:Generated_Source\PSoC4/CapSense_Structure.c **** 
 182              		.loc 1 274 0
 183 0018 134B     		ldr	r3, .L21+8
 184 001a A380     		strh	r3, [r4, #4]
ARM GAS  C:\Users\MIHAILO\AppData\Local\Temp\ccy63pSr.s 			page 15


 279:Generated_Source\PSoC4/CapSense_Structure.c ****     #if (0u != CapSense_TOTAL_CSD_WIDGETS)
 185              		.loc 1 279 0
 186 001c 0322     		movs	r2, #3
 187 001e 4323     		movs	r3, #67
 188 0020 E254     		strb	r2, [r4, r3]
 281:Generated_Source\PSoC4/CapSense_Structure.c ****         CapSense_dsRam.scanCsdISC = CapSense_CSD_INACTIVE_SNS_CONNECTION;
 189              		.loc 1 281 0
 190 0022 413B     		subs	r3, r3, #65
 191 0024 2377     		strb	r3, [r4, #28]
 355:Generated_Source\PSoC4/CapSense_Structure.c **** 
 192              		.loc 1 355 0
 193 0026 114D     		ldr	r5, .L21+12
 194 0028 2000     		movs	r0, r4
 195 002a 1E30     		adds	r0, r0, #30
 196 002c 2900     		movs	r1, r5
 197 002e 2431     		adds	r1, r1, #36
 198 0030 1132     		adds	r2, r2, #17
 199 0032 FFF7FEFF 		bl	memcpy
 200              	.LVL14:
 265:Generated_Source\PSoC4/CapSense_Structure.c ****     #endif
 201              		.loc 1 265 0
 202 0036 2A00     		movs	r2, r5
 372:Generated_Source\PSoC4/CapSense_Structure.c **** 
 203              		.loc 1 372 0
 204 0038 2C1D     		adds	r4, r5, #4
 374:Generated_Source\PSoC4/CapSense_Structure.c ****         {
 205              		.loc 1 374 0
 206 003a 0123     		movs	r3, #1
 207 003c 0CE0     		b	.L17
 208              	.LVL15:
 209              	.L20:
 376:Generated_Source\PSoC4/CapSense_Structure.c **** 
 210              		.loc 1 376 0
 211 003e A168     		ldr	r1, [r4, #8]
 212              	.LVL16:
 378:Generated_Source\PSoC4/CapSense_Structure.c ****             {
 213              		.loc 1 378 0
 214 0040 238B     		ldrh	r3, [r4, #24]
 215              	.LVL17:
 216 0042 04E0     		b	.L18
 217              	.LVL18:
 218              	.L19:
 380:Generated_Source\PSoC4/CapSense_Structure.c ****                 ptrIdacInit++;
 219              		.loc 1 380 0
 220 0044 1378     		ldrb	r3, [r2]
 221 0046 4B72     		strb	r3, [r1, #9]
 381:Generated_Source\PSoC4/CapSense_Structure.c **** 
 222              		.loc 1 381 0
 223 0048 0132     		adds	r2, r2, #1
 224              	.LVL19:
 391:Generated_Source\PSoC4/CapSense_Structure.c ****             }
 225              		.loc 1 391 0
 226 004a 0A31     		adds	r1, r1, #10
 227              	.LVL20:
 378:Generated_Source\PSoC4/CapSense_Structure.c ****             {
 228              		.loc 1 378 0
 229 004c 0300     		movs	r3, r0
ARM GAS  C:\Users\MIHAILO\AppData\Local\Temp\ccy63pSr.s 			page 16


 230              	.LVL21:
 231              	.L18:
 378:Generated_Source\PSoC4/CapSense_Structure.c ****             {
 232              		.loc 1 378 0 is_stmt 0 discriminator 1
 233 004e 581E     		subs	r0, r3, #1
 234              	.LVL22:
 235 0050 002B     		cmp	r3, #0
 236 0052 F7D1     		bne	.L19
 394:Generated_Source\PSoC4/CapSense_Structure.c ****         }
 237              		.loc 1 394 0 is_stmt 1
 238 0054 2034     		adds	r4, r4, #32
 239              	.LVL23:
 374:Generated_Source\PSoC4/CapSense_Structure.c ****         {
 240              		.loc 1 374 0
 241 0056 2B00     		movs	r3, r5
 242              	.LVL24:
 243              	.L17:
 374:Generated_Source\PSoC4/CapSense_Structure.c ****         {
 244              		.loc 1 374 0 is_stmt 0 discriminator 1
 245 0058 5D1E     		subs	r5, r3, #1
 246              	.LVL25:
 247 005a 002B     		cmp	r3, #0
 248 005c EFD1     		bne	.L20
 425:Generated_Source\PSoC4/CapSense_Structure.c **** 
 249              		.loc 1 425 0 is_stmt 1
 250              		@ sp needed
 251              	.LVL26:
 252              	.LVL27:
 253 005e 70BD     		pop	{r4, r5, r6, pc}
 254              	.L22:
 255              		.align	2
 256              	.L21:
 257 0060 00000000 		.word	CapSense_dsRam
 258 0064 4C8DFFFF 		.word	-29364
 259 0068 B80B0000 		.word	3000
 260 006c 00000000 		.word	.LANCHOR0
 261              		.cfi_endproc
 262              	.LFE0:
 263              		.size	CapSense_DsInitialize, .-CapSense_DsInitialize
 264              		.section	.text.CapSense_GetParam,"ax",%progbits
 265              		.align	2
 266              		.global	CapSense_GetParam
 267              		.code	16
 268              		.thumb_func
 269              		.type	CapSense_GetParam, %function
 270              	CapSense_GetParam:
 271              	.LFB2:
 605:Generated_Source\PSoC4/CapSense_Structure.c **** 
 606:Generated_Source\PSoC4/CapSense_Structure.c **** /*******************************************************************************
 607:Generated_Source\PSoC4/CapSense_Structure.c **** * Function Name: CapSense_GetParam
 608:Generated_Source\PSoC4/CapSense_Structure.c **** ****************************************************************************//**
 609:Generated_Source\PSoC4/CapSense_Structure.c **** *
 610:Generated_Source\PSoC4/CapSense_Structure.c **** * \brief
 611:Generated_Source\PSoC4/CapSense_Structure.c **** *  Gets the specified parameter value from the \ref group_structures.
 612:Generated_Source\PSoC4/CapSense_Structure.c **** *
 613:Generated_Source\PSoC4/CapSense_Structure.c **** * \details
 614:Generated_Source\PSoC4/CapSense_Structure.c **** *  This function gets the value of the specified parameter by the paramId
ARM GAS  C:\Users\MIHAILO\AppData\Local\Temp\ccy63pSr.s 			page 17


 615:Generated_Source\PSoC4/CapSense_Structure.c **** *  argument. The paramId for each register is available in the
 616:Generated_Source\PSoC4/CapSense_Structure.c **** *  CapSense RegisterMap header file as
 617:Generated_Source\PSoC4/CapSense_Structure.c **** *  CapSense_<ParameterName>_PARAM_ID. The paramId is a special
 618:Generated_Source\PSoC4/CapSense_Structure.c **** *  enumerated value generated by the customizer. The format of paramId is as
 619:Generated_Source\PSoC4/CapSense_Structure.c **** *  follows:
 620:Generated_Source\PSoC4/CapSense_Structure.c **** *    1. [ byte 3 byte 2 byte 1 byte 0 ]
 621:Generated_Source\PSoC4/CapSense_Structure.c **** *    2. [ TTWFCCCC UIIIIIII MMMMMMMM LLLLLLLL ]
 622:Generated_Source\PSoC4/CapSense_Structure.c **** *    3. T - encodes the parameter type:
 623:Generated_Source\PSoC4/CapSense_Structure.c **** *      - 01b: uint8
 624:Generated_Source\PSoC4/CapSense_Structure.c **** *      - 10b: uint16
 625:Generated_Source\PSoC4/CapSense_Structure.c **** *      - 11b: uint32
 626:Generated_Source\PSoC4/CapSense_Structure.c **** *    4. W - indicates whether the parameter is writable:
 627:Generated_Source\PSoC4/CapSense_Structure.c **** *      - 0: ReadOnly
 628:Generated_Source\PSoC4/CapSense_Structure.c **** *      - 1: Read/Write
 629:Generated_Source\PSoC4/CapSense_Structure.c **** *    5. C - 4 bit CRC (X^3 + 1) of the whole paramId word, the C bits are
 630:Generated_Source\PSoC4/CapSense_Structure.c **** *       filled with 0s when the CRC is calculated.
 631:Generated_Source\PSoC4/CapSense_Structure.c **** *    6. U - indicates if the parameter affects the RAM Widget Object CRC.
 632:Generated_Source\PSoC4/CapSense_Structure.c **** *    7. I - specifies that the widgetId parameter belongs to
 633:Generated_Source\PSoC4/CapSense_Structure.c **** *    8. M,L - the parameter offset MSB and LSB accordingly in:
 634:Generated_Source\PSoC4/CapSense_Structure.c **** *      - Flash Data Structure if W bit is 0.
 635:Generated_Source\PSoC4/CapSense_Structure.c **** *      - RAM Data Structure if W bit is 1.
 636:Generated_Source\PSoC4/CapSense_Structure.c **** *
 637:Generated_Source\PSoC4/CapSense_Structure.c **** *  Refer to the \ref group_structures section for details of the data structure
 638:Generated_Source\PSoC4/CapSense_Structure.c **** *  organization and examples of its register access.
 639:Generated_Source\PSoC4/CapSense_Structure.c **** *
 640:Generated_Source\PSoC4/CapSense_Structure.c **** * \param paramId
 641:Generated_Source\PSoC4/CapSense_Structure.c **** *  Specifies the ID of parameter to get its value.
 642:Generated_Source\PSoC4/CapSense_Structure.c **** *  A macro for the parameter ID can be found in the CapSense RegisterMap header
 643:Generated_Source\PSoC4/CapSense_Structure.c **** *  file defined as CapSense_<ParameterName>_PARAM_ID.
 644:Generated_Source\PSoC4/CapSense_Structure.c **** *
 645:Generated_Source\PSoC4/CapSense_Structure.c **** * \param value
 646:Generated_Source\PSoC4/CapSense_Structure.c **** *  The pointer to a variable to be updated with the obtained value.
 647:Generated_Source\PSoC4/CapSense_Structure.c **** *
 648:Generated_Source\PSoC4/CapSense_Structure.c **** * \return
 649:Generated_Source\PSoC4/CapSense_Structure.c **** *  Returns the status of the operation:
 650:Generated_Source\PSoC4/CapSense_Structure.c **** *    - CYRET_SUCCESS - The operation is successfully completed.
 651:Generated_Source\PSoC4/CapSense_Structure.c **** *    - CYRET_BAD_PARAM - The input parameter is invalid.
 652:Generated_Source\PSoC4/CapSense_Structure.c **** *
 653:Generated_Source\PSoC4/CapSense_Structure.c **** *******************************************************************************/
 654:Generated_Source\PSoC4/CapSense_Structure.c **** cystatus CapSense_GetParam(uint32 paramId, uint32 *value)
 655:Generated_Source\PSoC4/CapSense_Structure.c **** {
 272              		.loc 1 655 0
 273              		.cfi_startproc
 274              		@ args = 0, pretend = 0, frame = 8
 275              		@ frame_needed = 0, uses_anonymous_args = 0
 276              	.LVL28:
 277 0000 30B5     		push	{r4, r5, lr}
 278              		.cfi_def_cfa_offset 12
 279              		.cfi_offset 4, -12
 280              		.cfi_offset 5, -8
 281              		.cfi_offset 14, -4
 282 0002 83B0     		sub	sp, sp, #12
 283              		.cfi_def_cfa_offset 24
 284 0004 0D00     		movs	r5, r1
 656:Generated_Source\PSoC4/CapSense_Structure.c ****     PARAM_ID_STRUCT pData;
 657:Generated_Source\PSoC4/CapSense_Structure.c ****     cystatus result;
 658:Generated_Source\PSoC4/CapSense_Structure.c **** 
ARM GAS  C:\Users\MIHAILO\AppData\Local\Temp\ccy63pSr.s 			page 18


 659:Generated_Source\PSoC4/CapSense_Structure.c ****     union
 660:Generated_Source\PSoC4/CapSense_Structure.c ****     {
 661:Generated_Source\PSoC4/CapSense_Structure.c ****         volatile void   const * ptr;
 662:Generated_Source\PSoC4/CapSense_Structure.c ****         volatile uint8  const * ptrUint8;
 663:Generated_Source\PSoC4/CapSense_Structure.c ****         volatile uint16 const * ptrUint16;
 664:Generated_Source\PSoC4/CapSense_Structure.c ****         volatile uint32 const * ptrUint32;
 665:Generated_Source\PSoC4/CapSense_Structure.c ****     } ptrData;
 666:Generated_Source\PSoC4/CapSense_Structure.c **** 
 667:Generated_Source\PSoC4/CapSense_Structure.c ****     result = DsParseParamId(paramId, &pData);
 285              		.loc 1 667 0
 286 0006 6946     		mov	r1, sp
 287              	.LVL29:
 288 0008 FFF7FEFF 		bl	DsParseParamId
 289              	.LVL30:
 290 000c 041E     		subs	r4, r0, #0
 291              	.LVL31:
 668:Generated_Source\PSoC4/CapSense_Structure.c **** 
 669:Generated_Source\PSoC4/CapSense_Structure.c ****     /* Parse and validate paramId */
 670:Generated_Source\PSoC4/CapSense_Structure.c ****     if (CYRET_SUCCESS == result)
 292              		.loc 1 670 0
 293 000e 1ED1     		bne	.L24
 671:Generated_Source\PSoC4/CapSense_Structure.c ****     {
 672:Generated_Source\PSoC4/CapSense_Structure.c ****         /* Get base address of parameter */
 673:Generated_Source\PSoC4/CapSense_Structure.c ****         if (0u == pData.flash)
 294              		.loc 1 673 0
 295 0010 6B46     		mov	r3, sp
 296 0012 5B79     		ldrb	r3, [r3, #5]
 297 0014 002B     		cmp	r3, #0
 298 0016 01D1     		bne	.L25
 674:Generated_Source\PSoC4/CapSense_Structure.c ****         {
 675:Generated_Source\PSoC4/CapSense_Structure.c ****             ptrData.ptr = &CapSense_dsRam;
 299              		.loc 1 675 0
 300 0018 0E4A     		ldr	r2, .L30
 301              	.LVL32:
 302 001a 01E0     		b	.L26
 303              	.L25:
 676:Generated_Source\PSoC4/CapSense_Structure.c ****         }
 677:Generated_Source\PSoC4/CapSense_Structure.c ****         else
 678:Generated_Source\PSoC4/CapSense_Structure.c ****         {
 679:Generated_Source\PSoC4/CapSense_Structure.c ****             ptrData.ptr = &CapSense_dsFlash;
 304              		.loc 1 679 0
 305 001c 0E4B     		ldr	r3, .L30+4
 306 001e 1A1D     		adds	r2, r3, #4
 307              	.L26:
 680:Generated_Source\PSoC4/CapSense_Structure.c ****         }
 681:Generated_Source\PSoC4/CapSense_Structure.c **** 
 682:Generated_Source\PSoC4/CapSense_Structure.c ****         /* Add offset to base address */
 683:Generated_Source\PSoC4/CapSense_Structure.c ****         ptrData.ptrUint8 += pData.offset;
 308              		.loc 1 683 0
 309 0020 6B46     		mov	r3, sp
 310 0022 1B88     		ldrh	r3, [r3]
 311              	.LVL33:
 312 0024 D318     		adds	r3, r2, r3
 684:Generated_Source\PSoC4/CapSense_Structure.c **** 
 685:Generated_Source\PSoC4/CapSense_Structure.c ****         /* Read data */
 686:Generated_Source\PSoC4/CapSense_Structure.c ****         if (DS_PARAM_TYPE_UINT8 == pData.type)
 313              		.loc 1 686 0
ARM GAS  C:\Users\MIHAILO\AppData\Local\Temp\ccy63pSr.s 			page 19


 314 0026 6A46     		mov	r2, sp
 315              	.LVL34:
 316 0028 D279     		ldrb	r2, [r2, #7]
 317 002a 012A     		cmp	r2, #1
 318 002c 02D1     		bne	.L27
 687:Generated_Source\PSoC4/CapSense_Structure.c ****         {
 688:Generated_Source\PSoC4/CapSense_Structure.c ****             *value = (uint32) (*ptrData.ptrUint8);
 319              		.loc 1 688 0
 320 002e 1B78     		ldrb	r3, [r3]
 321 0030 2B60     		str	r3, [r5]
 322 0032 0CE0     		b	.L24
 323              	.L27:
 689:Generated_Source\PSoC4/CapSense_Structure.c ****         }
 690:Generated_Source\PSoC4/CapSense_Structure.c ****         else if (DS_PARAM_TYPE_UINT16 == pData.type)
 324              		.loc 1 690 0
 325 0034 022A     		cmp	r2, #2
 326 0036 02D1     		bne	.L28
 691:Generated_Source\PSoC4/CapSense_Structure.c ****         {
 692:Generated_Source\PSoC4/CapSense_Structure.c ****             *value = (uint32) (*ptrData.ptrUint16);
 327              		.loc 1 692 0
 328 0038 1B88     		ldrh	r3, [r3]
 329 003a 2B60     		str	r3, [r5]
 330 003c 07E0     		b	.L24
 331              	.L28:
 693:Generated_Source\PSoC4/CapSense_Structure.c ****         }
 694:Generated_Source\PSoC4/CapSense_Structure.c ****         else if (DS_PARAM_TYPE_UINT32 == pData.type)
 332              		.loc 1 694 0
 333 003e 032A     		cmp	r2, #3
 334 0040 02D1     		bne	.L29
 695:Generated_Source\PSoC4/CapSense_Structure.c ****         {
 696:Generated_Source\PSoC4/CapSense_Structure.c ****             *value = *ptrData.ptrUint32;
 335              		.loc 1 696 0
 336 0042 1B68     		ldr	r3, [r3]
 337 0044 2B60     		str	r3, [r5]
 338 0046 02E0     		b	.L24
 339              	.L29:
 697:Generated_Source\PSoC4/CapSense_Structure.c ****         }
 698:Generated_Source\PSoC4/CapSense_Structure.c ****         else
 699:Generated_Source\PSoC4/CapSense_Structure.c ****         {
 700:Generated_Source\PSoC4/CapSense_Structure.c ****             /* Parameter comes here already validated. */
 701:Generated_Source\PSoC4/CapSense_Structure.c ****             CYASSERT(0u);
 340              		.loc 1 701 0 discriminator 1
 341 0048 0020     		movs	r0, #0
 342              	.LVL35:
 343 004a FFF7FEFF 		bl	CyHalt
 344              	.LVL36:
 345              	.L24:
 702:Generated_Source\PSoC4/CapSense_Structure.c ****         }
 703:Generated_Source\PSoC4/CapSense_Structure.c ****     }
 704:Generated_Source\PSoC4/CapSense_Structure.c **** 
 705:Generated_Source\PSoC4/CapSense_Structure.c ****     return result;
 706:Generated_Source\PSoC4/CapSense_Structure.c **** }
 346              		.loc 1 706 0
 347 004e 2000     		movs	r0, r4
 348 0050 03B0     		add	sp, sp, #12
 349              		@ sp needed
 350              	.LVL37:
ARM GAS  C:\Users\MIHAILO\AppData\Local\Temp\ccy63pSr.s 			page 20


 351              	.LVL38:
 352 0052 30BD     		pop	{r4, r5, pc}
 353              	.L31:
 354              		.align	2
 355              	.L30:
 356 0054 00000000 		.word	CapSense_dsRam
 357 0058 00000000 		.word	.LANCHOR0
 358              		.cfi_endproc
 359              	.LFE2:
 360              		.size	CapSense_GetParam, .-CapSense_GetParam
 361              		.section	.text.CapSense_SetParam,"ax",%progbits
 362              		.align	2
 363              		.global	CapSense_SetParam
 364              		.code	16
 365              		.thumb_func
 366              		.type	CapSense_SetParam, %function
 367              	CapSense_SetParam:
 368              	.LFB3:
 707:Generated_Source\PSoC4/CapSense_Structure.c **** 
 708:Generated_Source\PSoC4/CapSense_Structure.c **** 
 709:Generated_Source\PSoC4/CapSense_Structure.c **** /*******************************************************************************
 710:Generated_Source\PSoC4/CapSense_Structure.c **** * Function Name: CapSense_SetParam
 711:Generated_Source\PSoC4/CapSense_Structure.c **** ****************************************************************************//**
 712:Generated_Source\PSoC4/CapSense_Structure.c **** *
 713:Generated_Source\PSoC4/CapSense_Structure.c **** * \brief
 714:Generated_Source\PSoC4/CapSense_Structure.c **** *  Sets a new value for the specified parameter in the \ref group_structures.
 715:Generated_Source\PSoC4/CapSense_Structure.c **** *
 716:Generated_Source\PSoC4/CapSense_Structure.c **** * \details
 717:Generated_Source\PSoC4/CapSense_Structure.c **** *  This function sets the value of the specified parameter by the paramId
 718:Generated_Source\PSoC4/CapSense_Structure.c **** *  argument. The paramId for each register is available in the
 719:Generated_Source\PSoC4/CapSense_Structure.c **** *  CapSense RegisterMap header file as
 720:Generated_Source\PSoC4/CapSense_Structure.c **** *  CapSense_<ParameterName>_PARAM_ID. The paramId is a special
 721:Generated_Source\PSoC4/CapSense_Structure.c **** *  enumerated value generated by the customizer. The format of paramId is as
 722:Generated_Source\PSoC4/CapSense_Structure.c **** *  follows:
 723:Generated_Source\PSoC4/CapSense_Structure.c **** *    1. [ byte 3 byte 2 byte 1 byte 0 ]
 724:Generated_Source\PSoC4/CapSense_Structure.c **** *    2. [ TTWFCCCC UIIIIIII MMMMMMMM LLLLLLLL ]
 725:Generated_Source\PSoC4/CapSense_Structure.c **** *    3. T - encodes the parameter type:
 726:Generated_Source\PSoC4/CapSense_Structure.c **** *      - 01b: uint8
 727:Generated_Source\PSoC4/CapSense_Structure.c **** *      - 10b: uint16
 728:Generated_Source\PSoC4/CapSense_Structure.c **** *      - 11b: uint32
 729:Generated_Source\PSoC4/CapSense_Structure.c **** *    4. W - indicates whether the parameter is writable:
 730:Generated_Source\PSoC4/CapSense_Structure.c **** *      - 0: ReadOnly
 731:Generated_Source\PSoC4/CapSense_Structure.c **** *      - 1: Read/Write
 732:Generated_Source\PSoC4/CapSense_Structure.c **** *    5. C - 4 bit CRC (X^3 + 1) of the whole paramId word, the C bits are
 733:Generated_Source\PSoC4/CapSense_Structure.c **** *       filled with 0s when the CRC is calculated.
 734:Generated_Source\PSoC4/CapSense_Structure.c **** *    6. U - indicates if the parameter affects the RAM Widget Object CRC.
 735:Generated_Source\PSoC4/CapSense_Structure.c **** *    7. I - specifies that the widgetId parameter belongs to
 736:Generated_Source\PSoC4/CapSense_Structure.c **** *    8. M,L - the parameter offset MSB and LSB accordingly in:
 737:Generated_Source\PSoC4/CapSense_Structure.c **** *      - Flash Data Structure if W bit is 0.
 738:Generated_Source\PSoC4/CapSense_Structure.c **** *      - RAM Data Structure if W bit is 1.
 739:Generated_Source\PSoC4/CapSense_Structure.c **** *
 740:Generated_Source\PSoC4/CapSense_Structure.c **** *  Refer to the \ref group_structures section for details of the data structure
 741:Generated_Source\PSoC4/CapSense_Structure.c **** *  organization and examples of its register access.
 742:Generated_Source\PSoC4/CapSense_Structure.c **** *
 743:Generated_Source\PSoC4/CapSense_Structure.c **** *  This function writes specified value into the desired register without
 744:Generated_Source\PSoC4/CapSense_Structure.c **** *  other registers update. It is application layer responsibility to keep all
 745:Generated_Source\PSoC4/CapSense_Structure.c **** *  the data structure registers aligned. Repeated call of
ARM GAS  C:\Users\MIHAILO\AppData\Local\Temp\ccy63pSr.s 			page 21


 746:Generated_Source\PSoC4/CapSense_Structure.c **** *  CapSense_Start() function helps aligning dependent register values.
 747:Generated_Source\PSoC4/CapSense_Structure.c **** *
 748:Generated_Source\PSoC4/CapSense_Structure.c **** * \param paramId
 749:Generated_Source\PSoC4/CapSense_Structure.c **** *  Specifies the ID of parameter to set its value.
 750:Generated_Source\PSoC4/CapSense_Structure.c **** *  A macro for the parameter ID can be found in the CapSense RegisterMap header
 751:Generated_Source\PSoC4/CapSense_Structure.c **** *  file defined as CapSense_<ParameterName>_PARAM_ID.
 752:Generated_Source\PSoC4/CapSense_Structure.c **** 
 753:Generated_Source\PSoC4/CapSense_Structure.c **** * \param value
 754:Generated_Source\PSoC4/CapSense_Structure.c **** *  Specifies the new parameter's value.
 755:Generated_Source\PSoC4/CapSense_Structure.c **** *
 756:Generated_Source\PSoC4/CapSense_Structure.c **** * \return
 757:Generated_Source\PSoC4/CapSense_Structure.c **** *  Returns the status of the operation:
 758:Generated_Source\PSoC4/CapSense_Structure.c **** *    - CYRET_SUCCESS - The operation is successfully completed.
 759:Generated_Source\PSoC4/CapSense_Structure.c **** *    - CYRET_BAD_PARAM - The input parameter is invalid.
 760:Generated_Source\PSoC4/CapSense_Structure.c **** *
 761:Generated_Source\PSoC4/CapSense_Structure.c **** *******************************************************************************/
 762:Generated_Source\PSoC4/CapSense_Structure.c **** cystatus CapSense_SetParam(uint32 paramId, uint32 value)
 763:Generated_Source\PSoC4/CapSense_Structure.c **** {
 369              		.loc 1 763 0
 370              		.cfi_startproc
 371              		@ args = 0, pretend = 0, frame = 8
 372              		@ frame_needed = 0, uses_anonymous_args = 0
 373              	.LVL39:
 374 0000 30B5     		push	{r4, r5, lr}
 375              		.cfi_def_cfa_offset 12
 376              		.cfi_offset 4, -12
 377              		.cfi_offset 5, -8
 378              		.cfi_offset 14, -4
 379 0002 83B0     		sub	sp, sp, #12
 380              		.cfi_def_cfa_offset 24
 381 0004 0D00     		movs	r5, r1
 764:Generated_Source\PSoC4/CapSense_Structure.c ****     cystatus result;
 765:Generated_Source\PSoC4/CapSense_Structure.c ****     PARAM_ID_STRUCT pData;
 766:Generated_Source\PSoC4/CapSense_Structure.c **** 
 767:Generated_Source\PSoC4/CapSense_Structure.c ****     union
 768:Generated_Source\PSoC4/CapSense_Structure.c ****     {
 769:Generated_Source\PSoC4/CapSense_Structure.c ****         volatile void   * ptr;
 770:Generated_Source\PSoC4/CapSense_Structure.c ****         volatile uint8  * ptrUint8;
 771:Generated_Source\PSoC4/CapSense_Structure.c ****         volatile uint16 * ptrUint16;
 772:Generated_Source\PSoC4/CapSense_Structure.c ****         volatile uint32 * ptrUint32;
 773:Generated_Source\PSoC4/CapSense_Structure.c ****     } ptrData;
 774:Generated_Source\PSoC4/CapSense_Structure.c **** 
 775:Generated_Source\PSoC4/CapSense_Structure.c ****     result = DsParseParamId(paramId, &pData);
 382              		.loc 1 775 0
 383 0006 6946     		mov	r1, sp
 384              	.LVL40:
 385 0008 FFF7FEFF 		bl	DsParseParamId
 386              	.LVL41:
 387 000c 041E     		subs	r4, r0, #0
 388              	.LVL42:
 776:Generated_Source\PSoC4/CapSense_Structure.c **** 
 777:Generated_Source\PSoC4/CapSense_Structure.c ****     /* verify if parameter is writable */
 778:Generated_Source\PSoC4/CapSense_Structure.c ****     if (CYRET_SUCCESS == result)
 389              		.loc 1 778 0
 390 000e 04D1     		bne	.L33
 779:Generated_Source\PSoC4/CapSense_Structure.c ****     {
 780:Generated_Source\PSoC4/CapSense_Structure.c ****         if (0u == pData.rw)
ARM GAS  C:\Users\MIHAILO\AppData\Local\Temp\ccy63pSr.s 			page 22


 391              		.loc 1 780 0
 392 0010 6B46     		mov	r3, sp
 393 0012 9B79     		ldrb	r3, [r3, #6]
 394 0014 002B     		cmp	r3, #0
 395 0016 00D1     		bne	.L33
 781:Generated_Source\PSoC4/CapSense_Structure.c ****         {
 782:Generated_Source\PSoC4/CapSense_Structure.c ****             result = CYRET_BAD_PARAM;
 396              		.loc 1 782 0
 397 0018 0134     		adds	r4, r4, #1
 398              	.L33:
 399              	.LVL43:
 783:Generated_Source\PSoC4/CapSense_Structure.c ****         }
 784:Generated_Source\PSoC4/CapSense_Structure.c ****     }
 785:Generated_Source\PSoC4/CapSense_Structure.c **** 
 786:Generated_Source\PSoC4/CapSense_Structure.c ****     /* Parse and validate paramId */
 787:Generated_Source\PSoC4/CapSense_Structure.c ****     if (CYRET_SUCCESS == result)
 400              		.loc 1 787 0
 401 001a 002C     		cmp	r4, #0
 402 001c 16D1     		bne	.L34
 788:Generated_Source\PSoC4/CapSense_Structure.c ****     {
 789:Generated_Source\PSoC4/CapSense_Structure.c ****         /* Get base address of parameter */
 790:Generated_Source\PSoC4/CapSense_Structure.c ****         ptrData.ptr = &CapSense_dsRam;
 791:Generated_Source\PSoC4/CapSense_Structure.c **** 
 792:Generated_Source\PSoC4/CapSense_Structure.c ****         /* Add offset to base address */
 793:Generated_Source\PSoC4/CapSense_Structure.c ****         ptrData.ptrUint8 += pData.offset;
 403              		.loc 1 793 0
 404 001e 6B46     		mov	r3, sp
 405 0020 1A88     		ldrh	r2, [r3]
 406 0022 0C4B     		ldr	r3, .L39
 407 0024 D318     		adds	r3, r2, r3
 794:Generated_Source\PSoC4/CapSense_Structure.c **** 
 795:Generated_Source\PSoC4/CapSense_Structure.c ****         /* Write data */
 796:Generated_Source\PSoC4/CapSense_Structure.c ****         if (DS_PARAM_TYPE_UINT8 == pData.type)
 408              		.loc 1 796 0
 409 0026 6A46     		mov	r2, sp
 410 0028 D279     		ldrb	r2, [r2, #7]
 411 002a 012A     		cmp	r2, #1
 412 002c 02D1     		bne	.L35
 797:Generated_Source\PSoC4/CapSense_Structure.c ****         {
 798:Generated_Source\PSoC4/CapSense_Structure.c ****             *ptrData.ptrUint8 = LO8(value);
 413              		.loc 1 798 0
 414 002e EDB2     		uxtb	r5, r5
 415              	.LVL44:
 416 0030 1D70     		strb	r5, [r3]
 417 0032 0BE0     		b	.L34
 418              	.LVL45:
 419              	.L35:
 799:Generated_Source\PSoC4/CapSense_Structure.c ****         }
 800:Generated_Source\PSoC4/CapSense_Structure.c ****         else if (DS_PARAM_TYPE_UINT16 == pData.type)
 420              		.loc 1 800 0
 421 0034 022A     		cmp	r2, #2
 422 0036 02D1     		bne	.L36
 801:Generated_Source\PSoC4/CapSense_Structure.c ****         {
 802:Generated_Source\PSoC4/CapSense_Structure.c ****             *ptrData.ptrUint16 = LO16(value);
 423              		.loc 1 802 0
 424 0038 ADB2     		uxth	r5, r5
 425              	.LVL46:
ARM GAS  C:\Users\MIHAILO\AppData\Local\Temp\ccy63pSr.s 			page 23


 426 003a 1D80     		strh	r5, [r3]
 427 003c 06E0     		b	.L34
 428              	.LVL47:
 429              	.L36:
 803:Generated_Source\PSoC4/CapSense_Structure.c ****         }
 804:Generated_Source\PSoC4/CapSense_Structure.c ****         else if (DS_PARAM_TYPE_UINT32 == pData.type)
 430              		.loc 1 804 0
 431 003e 032A     		cmp	r2, #3
 432 0040 01D1     		bne	.L37
 805:Generated_Source\PSoC4/CapSense_Structure.c ****         {
 806:Generated_Source\PSoC4/CapSense_Structure.c ****             *ptrData.ptrUint32 = value;
 433              		.loc 1 806 0
 434 0042 1D60     		str	r5, [r3]
 435 0044 02E0     		b	.L34
 436              	.L37:
 807:Generated_Source\PSoC4/CapSense_Structure.c ****         }
 808:Generated_Source\PSoC4/CapSense_Structure.c ****         else
 809:Generated_Source\PSoC4/CapSense_Structure.c ****         {
 810:Generated_Source\PSoC4/CapSense_Structure.c ****             /* Parameter comes here already validated. */
 811:Generated_Source\PSoC4/CapSense_Structure.c ****             CYASSERT(0u);
 437              		.loc 1 811 0 discriminator 1
 438 0046 0020     		movs	r0, #0
 439 0048 FFF7FEFF 		bl	CyHalt
 440              	.LVL48:
 441              	.L34:
 812:Generated_Source\PSoC4/CapSense_Structure.c ****         }
 813:Generated_Source\PSoC4/CapSense_Structure.c **** 
 814:Generated_Source\PSoC4/CapSense_Structure.c ****         #if (CapSense_ENABLE == (CapSense_TST_WDGT_CRC_EN || CapSense_TST_GLOBAL_CRC_EN))
 815:Generated_Source\PSoC4/CapSense_Structure.c ****             /* Update widget or global CRC if self-test is enabled and parameter affects it */
 816:Generated_Source\PSoC4/CapSense_Structure.c ****             if (0u != pData.affectsCrc)
 817:Generated_Source\PSoC4/CapSense_Structure.c ****             {
 818:Generated_Source\PSoC4/CapSense_Structure.c ****                 if ((ptrData.ptrUint16 >= &CapSense_dsRam.csd0Config) &&
 819:Generated_Source\PSoC4/CapSense_Structure.c ****                     (ptrData.ptrUint16 <  &CapSense_dsRam.glbCrc))
 820:Generated_Source\PSoC4/CapSense_Structure.c ****                 {
 821:Generated_Source\PSoC4/CapSense_Structure.c **** 
 822:Generated_Source\PSoC4/CapSense_Structure.c ****                     #if (CapSense_ENABLE == CapSense_TST_GLOBAL_CRC_EN)
 823:Generated_Source\PSoC4/CapSense_Structure.c ****                         CapSense_DsUpdateGlobalCrc();
 824:Generated_Source\PSoC4/CapSense_Structure.c ****                     #endif /* (CapSense_ENABLE == CapSense_TST_GLOBAL_CRC_EN) */
 825:Generated_Source\PSoC4/CapSense_Structure.c **** 
 826:Generated_Source\PSoC4/CapSense_Structure.c ****                 }
 827:Generated_Source\PSoC4/CapSense_Structure.c ****                 else
 828:Generated_Source\PSoC4/CapSense_Structure.c ****                 {
 829:Generated_Source\PSoC4/CapSense_Structure.c ****                     #if (CapSense_ENABLE == CapSense_TST_WDGT_CRC_EN)
 830:Generated_Source\PSoC4/CapSense_Structure.c ****                         CapSense_DsUpdateWidgetCrc((uint32)pData.widgetId);
 831:Generated_Source\PSoC4/CapSense_Structure.c ****                     #endif /* (CapSense_ENABLE == CapSense_TST_WDGT_CRC_EN) */
 832:Generated_Source\PSoC4/CapSense_Structure.c ****                 }
 833:Generated_Source\PSoC4/CapSense_Structure.c ****             }
 834:Generated_Source\PSoC4/CapSense_Structure.c ****         #endif /* (CapSense_ENABLE == (CapSense_TST_WDGT_CRC_EN || CapSense_TST_GLOBAL_CRC_EN)) */
 835:Generated_Source\PSoC4/CapSense_Structure.c ****     }
 836:Generated_Source\PSoC4/CapSense_Structure.c **** 
 837:Generated_Source\PSoC4/CapSense_Structure.c ****     return result;
 838:Generated_Source\PSoC4/CapSense_Structure.c **** }
 442              		.loc 1 838 0
 443 004c 2000     		movs	r0, r4
 444 004e 03B0     		add	sp, sp, #12
 445              		@ sp needed
 446              	.LVL49:
ARM GAS  C:\Users\MIHAILO\AppData\Local\Temp\ccy63pSr.s 			page 24


 447 0050 30BD     		pop	{r4, r5, pc}
 448              	.L40:
 449 0052 C046     		.align	2
 450              	.L39:
 451 0054 00000000 		.word	CapSense_dsRam
 452              		.cfi_endproc
 453              	.LFE3:
 454              		.size	CapSense_SetParam, .-CapSense_SetParam
 455              		.section	.text.CapSense_IsAnyWidgetActive,"ax",%progbits
 456              		.align	2
 457              		.global	CapSense_IsAnyWidgetActive
 458              		.code	16
 459              		.thumb_func
 460              		.type	CapSense_IsAnyWidgetActive, %function
 461              	CapSense_IsAnyWidgetActive:
 462              	.LFB4:
 839:Generated_Source\PSoC4/CapSense_Structure.c **** 
 840:Generated_Source\PSoC4/CapSense_Structure.c **** /*******************************************************************************
 841:Generated_Source\PSoC4/CapSense_Structure.c **** * Function Name: CapSense_IsAnyWidgetActive
 842:Generated_Source\PSoC4/CapSense_Structure.c **** ****************************************************************************//**
 843:Generated_Source\PSoC4/CapSense_Structure.c **** *
 844:Generated_Source\PSoC4/CapSense_Structure.c **** * \brief
 845:Generated_Source\PSoC4/CapSense_Structure.c **** *  Reports if any widget has detected a touch.
 846:Generated_Source\PSoC4/CapSense_Structure.c **** *
 847:Generated_Source\PSoC4/CapSense_Structure.c **** * \details
 848:Generated_Source\PSoC4/CapSense_Structure.c **** *  This function reports if any widget has detected a touch or not by extracting
 849:Generated_Source\PSoC4/CapSense_Structure.c **** *  information from the wdgtStatus registers
 850:Generated_Source\PSoC4/CapSense_Structure.c **** *  (CapSense_WDGT_STATUS<X>_VALUE). This function does not process a
 851:Generated_Source\PSoC4/CapSense_Structure.c **** *  widget but extracts processed results from the \ref group_structures.
 852:Generated_Source\PSoC4/CapSense_Structure.c **** *
 853:Generated_Source\PSoC4/CapSense_Structure.c **** * \return
 854:Generated_Source\PSoC4/CapSense_Structure.c **** *   Returns the touch detection status of all the widgets:
 855:Generated_Source\PSoC4/CapSense_Structure.c **** *     - Zero - No touch is detected in all the widgets or sensors.
 856:Generated_Source\PSoC4/CapSense_Structure.c **** *     - Non-zero - At least one widget or sensor detected a touch.
 857:Generated_Source\PSoC4/CapSense_Structure.c **** *
 858:Generated_Source\PSoC4/CapSense_Structure.c **** *******************************************************************************/
 859:Generated_Source\PSoC4/CapSense_Structure.c **** uint32 CapSense_IsAnyWidgetActive(void)
 860:Generated_Source\PSoC4/CapSense_Structure.c **** {
 463              		.loc 1 860 0
 464              		.cfi_startproc
 465              		@ args = 0, pretend = 0, frame = 0
 466              		@ frame_needed = 0, uses_anonymous_args = 0
 467              		@ link register save eliminated.
 468              	.LVL50:
 861:Generated_Source\PSoC4/CapSense_Structure.c ****     uint32 result = 0Lu;
 862:Generated_Source\PSoC4/CapSense_Structure.c ****     uint32 wdWord;
 863:Generated_Source\PSoC4/CapSense_Structure.c **** 
 864:Generated_Source\PSoC4/CapSense_Structure.c ****     for (wdWord = CapSense_WDGT_STATUS_WORDS; wdWord-- > 0u;)
 469              		.loc 1 864 0
 470 0000 0123     		movs	r3, #1
 861:Generated_Source\PSoC4/CapSense_Structure.c ****     uint32 result = 0Lu;
 471              		.loc 1 861 0
 472 0002 0020     		movs	r0, #0
 473              		.loc 1 864 0
 474 0004 06E0     		b	.L42
 475              	.LVL51:
 476              	.L43:
ARM GAS  C:\Users\MIHAILO\AppData\Local\Temp\ccy63pSr.s 			page 25


 865:Generated_Source\PSoC4/CapSense_Structure.c ****     {
 866:Generated_Source\PSoC4/CapSense_Structure.c ****         result |= CapSense_dsRam.wdgtStatus[wdWord];
 477              		.loc 1 866 0
 478 0006 131D     		adds	r3, r2, #4
 479 0008 9B00     		lsls	r3, r3, #2
 480 000a 0449     		ldr	r1, .L44
 481 000c CB18     		adds	r3, r1, r3
 482 000e 5B68     		ldr	r3, [r3, #4]
 483 0010 1843     		orrs	r0, r3
 484              	.LVL52:
 864:Generated_Source\PSoC4/CapSense_Structure.c ****     {
 485              		.loc 1 864 0
 486 0012 1300     		movs	r3, r2
 487              	.LVL53:
 488              	.L42:
 864:Generated_Source\PSoC4/CapSense_Structure.c ****     {
 489              		.loc 1 864 0 is_stmt 0 discriminator 1
 490 0014 5A1E     		subs	r2, r3, #1
 491              	.LVL54:
 492 0016 002B     		cmp	r3, #0
 493 0018 F5D1     		bne	.L43
 867:Generated_Source\PSoC4/CapSense_Structure.c ****     }
 868:Generated_Source\PSoC4/CapSense_Structure.c **** 
 869:Generated_Source\PSoC4/CapSense_Structure.c ****     return result;
 870:Generated_Source\PSoC4/CapSense_Structure.c **** }
 494              		.loc 1 870 0 is_stmt 1
 495              		@ sp needed
 496 001a 7047     		bx	lr
 497              	.L45:
 498              		.align	2
 499              	.L44:
 500 001c 00000000 		.word	CapSense_dsRam
 501              		.cfi_endproc
 502              	.LFE4:
 503              		.size	CapSense_IsAnyWidgetActive, .-CapSense_IsAnyWidgetActive
 504              		.section	.text.CapSense_IsWidgetActive,"ax",%progbits
 505              		.align	2
 506              		.global	CapSense_IsWidgetActive
 507              		.code	16
 508              		.thumb_func
 509              		.type	CapSense_IsWidgetActive, %function
 510              	CapSense_IsWidgetActive:
 511              	.LFB5:
 871:Generated_Source\PSoC4/CapSense_Structure.c **** 
 872:Generated_Source\PSoC4/CapSense_Structure.c **** 
 873:Generated_Source\PSoC4/CapSense_Structure.c **** /*******************************************************************************
 874:Generated_Source\PSoC4/CapSense_Structure.c **** * Function Name: CapSense_IsWidgetActive
 875:Generated_Source\PSoC4/CapSense_Structure.c **** ****************************************************************************//**
 876:Generated_Source\PSoC4/CapSense_Structure.c **** *
 877:Generated_Source\PSoC4/CapSense_Structure.c **** * \brief
 878:Generated_Source\PSoC4/CapSense_Structure.c **** *  Reports if the specified widget detects a touch on any of its sensors.
 879:Generated_Source\PSoC4/CapSense_Structure.c **** *
 880:Generated_Source\PSoC4/CapSense_Structure.c **** * \details
 881:Generated_Source\PSoC4/CapSense_Structure.c **** *  This function reports if the specified widget has detected a touch or not by
 882:Generated_Source\PSoC4/CapSense_Structure.c **** *  extracting information from the wdgtStatus registers
 883:Generated_Source\PSoC4/CapSense_Structure.c **** *  (CapSense_WDGT_STATUS<X>_VALUE). This function does not process the
 884:Generated_Source\PSoC4/CapSense_Structure.c **** *  widget but extracts processed results from the \ref group_structures.
ARM GAS  C:\Users\MIHAILO\AppData\Local\Temp\ccy63pSr.s 			page 26


 885:Generated_Source\PSoC4/CapSense_Structure.c **** *
 886:Generated_Source\PSoC4/CapSense_Structure.c **** * \param widgetId
 887:Generated_Source\PSoC4/CapSense_Structure.c **** *  Specifies the ID number of the widget to get its status.
 888:Generated_Source\PSoC4/CapSense_Structure.c **** *  A macro for the widget ID can be found in the CapSense Configuration header
 889:Generated_Source\PSoC4/CapSense_Structure.c **** *  file defined as CapSense_<WidgetName>_WDGT_ID.
 890:Generated_Source\PSoC4/CapSense_Structure.c **** *
 891:Generated_Source\PSoC4/CapSense_Structure.c **** * \return
 892:Generated_Source\PSoC4/CapSense_Structure.c **** *  Returns the touch detection status of the specified widgets:
 893:Generated_Source\PSoC4/CapSense_Structure.c **** *    - Zero - No touch is detected in the specified widget or a wrong widgetId
 894:Generated_Source\PSoC4/CapSense_Structure.c **** *      is specified.
 895:Generated_Source\PSoC4/CapSense_Structure.c **** *    - Non-zero if at least one sensor of the specified widget is active, i.e.
 896:Generated_Source\PSoC4/CapSense_Structure.c **** *      a touch is detected.
 897:Generated_Source\PSoC4/CapSense_Structure.c **** *
 898:Generated_Source\PSoC4/CapSense_Structure.c **** *******************************************************************************/
 899:Generated_Source\PSoC4/CapSense_Structure.c **** uint32 CapSense_IsWidgetActive(uint32 widgetId)
 900:Generated_Source\PSoC4/CapSense_Structure.c **** {
 512              		.loc 1 900 0
 513              		.cfi_startproc
 514              		@ args = 0, pretend = 0, frame = 0
 515              		@ frame_needed = 0, uses_anonymous_args = 0
 516              		@ link register save eliminated.
 517              	.LVL55:
 901:Generated_Source\PSoC4/CapSense_Structure.c ****     uint32 result = 0Lu;
 902:Generated_Source\PSoC4/CapSense_Structure.c **** 
 903:Generated_Source\PSoC4/CapSense_Structure.c ****     if (widgetId < CapSense_TOTAL_WIDGETS)
 518              		.loc 1 903 0
 519 0000 0028     		cmp	r0, #0
 520 0002 0BD1     		bne	.L48
 904:Generated_Source\PSoC4/CapSense_Structure.c ****     {
 905:Generated_Source\PSoC4/CapSense_Structure.c ****         result = CapSense_GET_WIDGET_ACTIVE_STATUS(widgetId);
 521              		.loc 1 905 0
 522 0004 1F23     		movs	r3, #31
 523 0006 0340     		ands	r3, r0
 524 0008 0122     		movs	r2, #1
 525 000a 9A40     		lsls	r2, r2, r3
 526 000c 4009     		lsrs	r0, r0, #5
 527              	.LVL56:
 528 000e 031D     		adds	r3, r0, #4
 529 0010 9B00     		lsls	r3, r3, #2
 530 0012 0348     		ldr	r0, .L49
 531 0014 C318     		adds	r3, r0, r3
 532 0016 5868     		ldr	r0, [r3, #4]
 533 0018 1040     		ands	r0, r2
 534              	.LVL57:
 535 001a 00E0     		b	.L47
 536              	.LVL58:
 537              	.L48:
 901:Generated_Source\PSoC4/CapSense_Structure.c ****     uint32 result = 0Lu;
 538              		.loc 1 901 0
 539 001c 0020     		movs	r0, #0
 540              	.LVL59:
 541              	.L47:
 906:Generated_Source\PSoC4/CapSense_Structure.c ****     }
 907:Generated_Source\PSoC4/CapSense_Structure.c ****     return result;
 908:Generated_Source\PSoC4/CapSense_Structure.c **** }
 542              		.loc 1 908 0
 543              		@ sp needed
ARM GAS  C:\Users\MIHAILO\AppData\Local\Temp\ccy63pSr.s 			page 27


 544 001e 7047     		bx	lr
 545              	.L50:
 546              		.align	2
 547              	.L49:
 548 0020 00000000 		.word	CapSense_dsRam
 549              		.cfi_endproc
 550              	.LFE5:
 551              		.size	CapSense_IsWidgetActive, .-CapSense_IsWidgetActive
 552              		.section	.text.CapSense_IsSensorActive,"ax",%progbits
 553              		.align	2
 554              		.global	CapSense_IsSensorActive
 555              		.code	16
 556              		.thumb_func
 557              		.type	CapSense_IsSensorActive, %function
 558              	CapSense_IsSensorActive:
 559              	.LFB6:
 909:Generated_Source\PSoC4/CapSense_Structure.c **** 
 910:Generated_Source\PSoC4/CapSense_Structure.c **** 
 911:Generated_Source\PSoC4/CapSense_Structure.c **** /*******************************************************************************
 912:Generated_Source\PSoC4/CapSense_Structure.c **** * Function Name: CapSense_IsSensorActive
 913:Generated_Source\PSoC4/CapSense_Structure.c **** ****************************************************************************//**
 914:Generated_Source\PSoC4/CapSense_Structure.c **** *
 915:Generated_Source\PSoC4/CapSense_Structure.c **** * \brief
 916:Generated_Source\PSoC4/CapSense_Structure.c **** *  Reports if the specified sensor in the widget detects a touch.
 917:Generated_Source\PSoC4/CapSense_Structure.c **** *
 918:Generated_Source\PSoC4/CapSense_Structure.c **** * \details
 919:Generated_Source\PSoC4/CapSense_Structure.c **** *  This function reports if the specified sensor in the widget has detected a
 920:Generated_Source\PSoC4/CapSense_Structure.c **** *  touch or not by extracting information from the wdgtStatus registers
 921:Generated_Source\PSoC4/CapSense_Structure.c **** *  (CapSense_WDGT_STATUS<X>_VALUE). This function does not process the
 922:Generated_Source\PSoC4/CapSense_Structure.c **** *  widget or sensor but extracts processed results from the \ref group_structures.
 923:Generated_Source\PSoC4/CapSense_Structure.c **** *
 924:Generated_Source\PSoC4/CapSense_Structure.c **** *  For proximity sensors, this function returns the proximity detection status. To
 925:Generated_Source\PSoC4/CapSense_Structure.c **** *  get the finger touch status of proximity sensors, use the
 926:Generated_Source\PSoC4/CapSense_Structure.c **** *  CapSense_IsProximitySensorActive() function.
 927:Generated_Source\PSoC4/CapSense_Structure.c **** *
 928:Generated_Source\PSoC4/CapSense_Structure.c **** * \param widgetId
 929:Generated_Source\PSoC4/CapSense_Structure.c **** *  Specifies the ID number of the widget.
 930:Generated_Source\PSoC4/CapSense_Structure.c **** *  A macro for the widget ID can be found in the CapSense Configuration header
 931:Generated_Source\PSoC4/CapSense_Structure.c **** *  file defined as CapSense_<WidgetName>_WDGT_ID.
 932:Generated_Source\PSoC4/CapSense_Structure.c **** 
 933:Generated_Source\PSoC4/CapSense_Structure.c **** * \param sensorId
 934:Generated_Source\PSoC4/CapSense_Structure.c **** *  Specifies the ID number of the sensor within the widget to get its touch
 935:Generated_Source\PSoC4/CapSense_Structure.c **** *  detection status.
 936:Generated_Source\PSoC4/CapSense_Structure.c **** *  A macro for the sensor ID within the specified widget can be found in the
 937:Generated_Source\PSoC4/CapSense_Structure.c **** *  CapSense Configuration header file defined as
 938:Generated_Source\PSoC4/CapSense_Structure.c **** *  CapSense_<WidgetName>_SNS<SensorNumber>_ID.
 939:Generated_Source\PSoC4/CapSense_Structure.c **** *
 940:Generated_Source\PSoC4/CapSense_Structure.c **** * \return
 941:Generated_Source\PSoC4/CapSense_Structure.c **** *  Returns the touch detection status of the specified sensor / widget:
 942:Generated_Source\PSoC4/CapSense_Structure.c **** *    - Zero if no touch is detected in the specified sensor / widget or a wrong
 943:Generated_Source\PSoC4/CapSense_Structure.c **** *      widget ID / sensor ID is specified.
 944:Generated_Source\PSoC4/CapSense_Structure.c **** *    - Non-zero if the specified sensor is active i.e. touch is detected. If the
 945:Generated_Source\PSoC4/CapSense_Structure.c **** *      specific sensor belongs to a proximity widget, the proximity detection
 946:Generated_Source\PSoC4/CapSense_Structure.c **** *      status is returned.
 947:Generated_Source\PSoC4/CapSense_Structure.c **** *
 948:Generated_Source\PSoC4/CapSense_Structure.c **** *******************************************************************************/
 949:Generated_Source\PSoC4/CapSense_Structure.c **** uint32 CapSense_IsSensorActive(uint32 widgetId, uint32 sensorId)
ARM GAS  C:\Users\MIHAILO\AppData\Local\Temp\ccy63pSr.s 			page 28


 950:Generated_Source\PSoC4/CapSense_Structure.c **** {
 560              		.loc 1 950 0
 561              		.cfi_startproc
 562              		@ args = 0, pretend = 0, frame = 0
 563              		@ frame_needed = 0, uses_anonymous_args = 0
 564              		@ link register save eliminated.
 565              	.LVL60:
 951:Generated_Source\PSoC4/CapSense_Structure.c ****     uint32 result = 0Lu;
 952:Generated_Source\PSoC4/CapSense_Structure.c **** 
 953:Generated_Source\PSoC4/CapSense_Structure.c ****     if ((widgetId < CapSense_TOTAL_WIDGETS) &&
 566              		.loc 1 953 0
 567 0000 0028     		cmp	r0, #0
 568 0002 0CD1     		bne	.L53
 954:Generated_Source\PSoC4/CapSense_Structure.c ****         (sensorId < CapSense_GET_SENSOR_COUNT(widgetId)))
 569              		.loc 1 954 0 discriminator 1
 570 0004 4301     		lsls	r3, r0, #5
 571 0006 084A     		ldr	r2, .L55
 572 0008 D318     		adds	r3, r2, r3
 573 000a 9B8B     		ldrh	r3, [r3, #28]
 953:Generated_Source\PSoC4/CapSense_Structure.c ****         (sensorId < CapSense_GET_SENSOR_COUNT(widgetId)))
 574              		.loc 1 953 0 discriminator 1
 575 000c 8B42     		cmp	r3, r1
 576 000e 08D9     		bls	.L54
 955:Generated_Source\PSoC4/CapSense_Structure.c ****     {
 956:Generated_Source\PSoC4/CapSense_Structure.c ****         #if (CapSense_ENABLE == CapSense_PROXIMITY_WIDGET_EN)
 957:Generated_Source\PSoC4/CapSense_Structure.c ****             if (CapSense_WD_PROXIMITY_E ==
 958:Generated_Source\PSoC4/CapSense_Structure.c ****                 (CapSense_WD_TYPE_ENUM)CapSense_dsFlash.wdgtArray[widgetId].wdgtType)
 959:Generated_Source\PSoC4/CapSense_Structure.c ****             {
 960:Generated_Source\PSoC4/CapSense_Structure.c ****                 sensorId = CapSense_PROX_STS_OFFSET(sensorId);
 961:Generated_Source\PSoC4/CapSense_Structure.c ****             }
 962:Generated_Source\PSoC4/CapSense_Structure.c ****         #endif /* (CapSense_ENABLE != CapSense_PROXIMITY_WIDGET_EN) */
 963:Generated_Source\PSoC4/CapSense_Structure.c ****         result = CapSense_dsRam.snsStatus[widgetId] & (1Lu << sensorId);
 577              		.loc 1 963 0
 578 0010 064B     		ldr	r3, .L55+4
 579 0012 1818     		adds	r0, r3, r0
 580              	.LVL61:
 581 0014 037E     		ldrb	r3, [r0, #24]
 582 0016 0120     		movs	r0, #1
 583 0018 8840     		lsls	r0, r0, r1
 584 001a 1840     		ands	r0, r3
 585              	.LVL62:
 586 001c 02E0     		b	.L52
 587              	.LVL63:
 588              	.L53:
 951:Generated_Source\PSoC4/CapSense_Structure.c **** 
 589              		.loc 1 951 0
 590 001e 0020     		movs	r0, #0
 591              	.LVL64:
 592 0020 00E0     		b	.L52
 593              	.LVL65:
 594              	.L54:
 595 0022 0020     		movs	r0, #0
 596              	.LVL66:
 597              	.L52:
 964:Generated_Source\PSoC4/CapSense_Structure.c ****     }
 965:Generated_Source\PSoC4/CapSense_Structure.c **** 
 966:Generated_Source\PSoC4/CapSense_Structure.c ****     return result;
ARM GAS  C:\Users\MIHAILO\AppData\Local\Temp\ccy63pSr.s 			page 29


 967:Generated_Source\PSoC4/CapSense_Structure.c **** }
 598              		.loc 1 967 0
 599              		@ sp needed
 600 0024 7047     		bx	lr
 601              	.L56:
 602 0026 C046     		.align	2
 603              	.L55:
 604 0028 00000000 		.word	.LANCHOR0
 605 002c 00000000 		.word	CapSense_dsRam
 606              		.cfi_endproc
 607              	.LFE6:
 608              		.size	CapSense_IsSensorActive, .-CapSense_IsSensorActive
 609              		.global	CapSense_ramIdacInit
 610              		.global	CapSense_ramWidgetInit
 611              		.global	CapSense_ioList
 612              		.global	CapSense_dsFlash
 613              		.comm	CapSense_dsRam,68,4
 614              		.section	.rodata
 615              		.align	2
 616              		.set	.LANCHOR0,. + 0
 617              		.type	CapSense_ramIdacInit, %object
 618              		.size	CapSense_ramIdacInit, 1
 619              	CapSense_ramIdacInit:
 620 0000 20       		.byte	32
 621 0001 000000   		.space	3
 622              		.type	CapSense_dsFlash, %object
 623              		.size	CapSense_dsFlash, 32
 624              	CapSense_dsFlash:
 625 0004 00000000 		.word	CapSense_ioList
 626 0008 1E000000 		.word	CapSense_dsRam+30
 627 000c 32000000 		.word	CapSense_dsRam+50
 628 0010 00000000 		.word	0
 629 0014 0C000000 		.word	CapSense_debounceButton0
 630 0018 01280000 		.word	10241
 631 001c 0100     		.short	1
 632 001e 01       		.byte	1
 633 001f 01       		.byte	1
 634 0020 00000000 		.word	CapSense_noiseEnvlpButton0
 635              		.type	CapSense_ramWidgetInit, %object
 636              		.size	CapSense_ramWidgetInit, 20
 637              	CapSense_ramWidgetInit:
 638 0024 0C00     		.short	12
 639 0026 6400     		.short	100
 640 0028 28       		.byte	40
 641 0029 28       		.byte	40
 642 002a 0A       		.byte	10
 643 002b 03       		.byte	3
 644 002c 1E       		.byte	30
 645 002d 20       		.byte	32
 646 002e 00       		.byte	0
 647 002f 00       		.space	1
 648 0030 0400     		.short	4
 649 0032 00       		.byte	0
 650 0033 00       		.space	1
 651 0034 E803     		.short	1000
 652 0036 0000     		.short	0
 653              		.type	CapSense_ioList, %object
ARM GAS  C:\Users\MIHAILO\AppData\Local\Temp\ccy63pSr.s 			page 30


 654              		.size	CapSense_ioList, 28
 655              	CapSense_ioList:
 656 0038 0C000140 		.word	1073807372
 657 003c 08030440 		.word	1074004744
 658 0040 00030440 		.word	1074004736
 659 0044 04030440 		.word	1074004740
 660 0048 00000F00 		.word	983040
 661 004c 10000000 		.word	16
 662 0050 10       		.byte	16
 663 0051 04       		.byte	4
 664 0052 0C       		.byte	12
 665 0053 00       		.space	1
 666              		.bss
 667              		.align	2
 668              		.type	CapSense_noiseEnvlpButton0, %object
 669              		.size	CapSense_noiseEnvlpButton0, 12
 670              	CapSense_noiseEnvlpButton0:
 671 0000 00000000 		.space	12
 671      00000000 
 671      00000000 
 672              		.type	CapSense_debounceButton0, %object
 673              		.size	CapSense_debounceButton0, 1
 674              	CapSense_debounceButton0:
 675 000c 00       		.space	1
 676              		.text
 677              	.Letext0:
 678              		.file 2 "Generated_Source\\PSoC4/cytypes.h"
 679              		.file 3 "Generated_Source\\PSoC4\\CapSense_Configuration.h"
 680              		.file 4 "Generated_Source\\PSoC4\\CapSense_SmartSense_LL.h"
 681              		.file 5 "Generated_Source\\PSoC4\\CapSense_Structure.h"
 682              		.file 6 "Generated_Source\\PSoC4\\CyLib.h"