ARM GAS  C:\Users\MIHAILO\AppData\Local\Temp\ccp4p2Le.s 			page 1


   1              		.syntax unified
   2              		.cpu cortex-m0
   3              		.fpu softvfp
   4              		.eabi_attribute 20, 1
   5              		.eabi_attribute 21, 1
   6              		.eabi_attribute 23, 3
   7              		.eabi_attribute 24, 1
   8              		.eabi_attribute 25, 1
   9              		.eabi_attribute 26, 1
  10              		.eabi_attribute 30, 1
  11              		.eabi_attribute 34, 0
  12              		.eabi_attribute 18, 4
  13              		.thumb
  14              		.syntax unified
  15              		.file	"CapSense_Processing.c"
  16              		.text
  17              	.Ltext0:
  18              		.cfi_sections	.debug_frame
  19              		.section	.text.CapSense_DpInitialize,"ax",%progbits
  20              		.align	2
  21              		.global	CapSense_DpInitialize
  22              		.code	16
  23              		.thumb_func
  24              		.type	CapSense_DpInitialize, %function
  25              	CapSense_DpInitialize:
  26              	.LFB0:
  27              		.file 1 "Generated_Source\\PSoC4\\CapSense_Processing.c"
   1:Generated_Source\PSoC4/CapSense_Processing.c **** /***************************************************************************//**
   2:Generated_Source\PSoC4/CapSense_Processing.c **** * \file CapSense_Processing.c
   3:Generated_Source\PSoC4/CapSense_Processing.c **** * \version 7.0
   4:Generated_Source\PSoC4/CapSense_Processing.c **** *
   5:Generated_Source\PSoC4/CapSense_Processing.c **** * \brief
   6:Generated_Source\PSoC4/CapSense_Processing.c **** *   This file provides the source code for the Data Processing module APIs
   7:Generated_Source\PSoC4/CapSense_Processing.c **** *   of the Component. The Data Processing module is responsible for the
   8:Generated_Source\PSoC4/CapSense_Processing.c **** *   low level raw counts processing provided by the sensing module, maintaining
   9:Generated_Source\PSoC4/CapSense_Processing.c **** *   baseline and difference values and performing high-level widget processing
  10:Generated_Source\PSoC4/CapSense_Processing.c **** *   like updating button status or calculating slider position.
  11:Generated_Source\PSoC4/CapSense_Processing.c **** *
  12:Generated_Source\PSoC4/CapSense_Processing.c **** * \see CapSense v7.0 Datasheet
  13:Generated_Source\PSoC4/CapSense_Processing.c **** *
  14:Generated_Source\PSoC4/CapSense_Processing.c **** *//*****************************************************************************
  15:Generated_Source\PSoC4/CapSense_Processing.c **** * Copyright (2016-2019), Cypress Semiconductor Corporation.
  16:Generated_Source\PSoC4/CapSense_Processing.c **** ********************************************************************************
  17:Generated_Source\PSoC4/CapSense_Processing.c **** * This software is owned by Cypress Semiconductor Corporation (Cypress) and is
  18:Generated_Source\PSoC4/CapSense_Processing.c **** * protected by and subject to worldwide patent protection (United States and
  19:Generated_Source\PSoC4/CapSense_Processing.c **** * foreign), United States copyright laws and international treaty provisions.
  20:Generated_Source\PSoC4/CapSense_Processing.c **** * Cypress hereby grants to licensee a personal, non-exclusive, non-transferable
  21:Generated_Source\PSoC4/CapSense_Processing.c **** * license to copy, use, modify, create derivative works of, and compile the
  22:Generated_Source\PSoC4/CapSense_Processing.c **** * Cypress Source Code and derivative works for the sole purpose of creating
  23:Generated_Source\PSoC4/CapSense_Processing.c **** * custom software in support of licensee product to be used only in conjunction
  24:Generated_Source\PSoC4/CapSense_Processing.c **** * with a Cypress integrated circuit as specified in the applicable agreement.
  25:Generated_Source\PSoC4/CapSense_Processing.c **** * Any reproduction, modification, translation, compilation, or representation of
  26:Generated_Source\PSoC4/CapSense_Processing.c **** * this software except as specified above is prohibited without the express
  27:Generated_Source\PSoC4/CapSense_Processing.c **** * written permission of Cypress.
  28:Generated_Source\PSoC4/CapSense_Processing.c **** *
  29:Generated_Source\PSoC4/CapSense_Processing.c **** * Disclaimer: CYPRESS MAKES NO WARRANTY OF ANY KIND, EXPRESS OR IMPLIED, WITH
  30:Generated_Source\PSoC4/CapSense_Processing.c **** * REGARD TO THIS MATERIAL, INCLUDING, BUT NOT LIMITED TO, THE IMPLIED
ARM GAS  C:\Users\MIHAILO\AppData\Local\Temp\ccp4p2Le.s 			page 2


  31:Generated_Source\PSoC4/CapSense_Processing.c **** * WARRANTIES OF MERCHANTABILITY AND FITNESS FOR A PARTICULAR PURPOSE.
  32:Generated_Source\PSoC4/CapSense_Processing.c **** * Cypress reserves the right to make changes without further notice to the
  33:Generated_Source\PSoC4/CapSense_Processing.c **** * materials described herein. Cypress does not assume any liability arising out
  34:Generated_Source\PSoC4/CapSense_Processing.c **** * of the application or use of any product or circuit described herein. Cypress
  35:Generated_Source\PSoC4/CapSense_Processing.c **** * does not authorize its products for use as critical components in life-support
  36:Generated_Source\PSoC4/CapSense_Processing.c **** * systems where a malfunction or failure may reasonably be expected to result in
  37:Generated_Source\PSoC4/CapSense_Processing.c **** * significant injury to the user. The inclusion of Cypress' product in a life-
  38:Generated_Source\PSoC4/CapSense_Processing.c **** * support systems application implies that the manufacturer assumes all risk of
  39:Generated_Source\PSoC4/CapSense_Processing.c **** * such use and in doing so indemnifies Cypress against all charges. Use may be
  40:Generated_Source\PSoC4/CapSense_Processing.c **** * limited by and subject to the applicable Cypress software license agreement.
  41:Generated_Source\PSoC4/CapSense_Processing.c **** *******************************************************************************/
  42:Generated_Source\PSoC4/CapSense_Processing.c **** 
  43:Generated_Source\PSoC4/CapSense_Processing.c **** #include "CyLib.h"
  44:Generated_Source\PSoC4/CapSense_Processing.c **** #include "cytypes.h"
  45:Generated_Source\PSoC4/CapSense_Processing.c **** #include "CapSense_Configuration.h"
  46:Generated_Source\PSoC4/CapSense_Processing.c **** #include "CapSense_Processing.h"
  47:Generated_Source\PSoC4/CapSense_Processing.c **** #include "CapSense_Filter.h"
  48:Generated_Source\PSoC4/CapSense_Processing.c **** 
  49:Generated_Source\PSoC4/CapSense_Processing.c **** #if (0u != CapSense_CENTROID_EN)
  50:Generated_Source\PSoC4/CapSense_Processing.c ****     #include "CapSense_Centroid_LL.h"
  51:Generated_Source\PSoC4/CapSense_Processing.c **** #endif /* (0 != CapSense_CENTROID_EN) */
  52:Generated_Source\PSoC4/CapSense_Processing.c **** 
  53:Generated_Source\PSoC4/CapSense_Processing.c **** #if (0 != (CapSense_CSD_AUTOTUNE & CapSense_CSD_SS_TH_EN))
  54:Generated_Source\PSoC4/CapSense_Processing.c ****     #include "CapSense_SmartSense_LL.h"
  55:Generated_Source\PSoC4/CapSense_Processing.c **** #endif /* (0 != (CapSense_CSD_AUTOTUNE & CapSense_CSD_SS_TH_EN)) */
  56:Generated_Source\PSoC4/CapSense_Processing.c **** 
  57:Generated_Source\PSoC4/CapSense_Processing.c **** #if (CapSense_ENABLE == CapSense_SELF_TEST_EN)
  58:Generated_Source\PSoC4/CapSense_Processing.c ****     #include "CapSense_SelfTest.h"
  59:Generated_Source\PSoC4/CapSense_Processing.c **** #endif
  60:Generated_Source\PSoC4/CapSense_Processing.c **** 
  61:Generated_Source\PSoC4/CapSense_Processing.c **** #if (CapSense_ENABLE == CapSense_CENTROID_5X5_CSD_EN)
  62:Generated_Source\PSoC4/CapSense_Processing.c ****     #include "CapSense_AdvancedCentroid_LL.h"
  63:Generated_Source\PSoC4/CapSense_Processing.c **** #endif
  64:Generated_Source\PSoC4/CapSense_Processing.c **** 
  65:Generated_Source\PSoC4/CapSense_Processing.c **** #if (CapSense_ENABLE == CapSense_POS_ADAPTIVE_IIR_FILTER_EN)
  66:Generated_Source\PSoC4/CapSense_Processing.c ****     #include "CapSense_AdaptiveFilter_LL.h"
  67:Generated_Source\PSoC4/CapSense_Processing.c **** #endif
  68:Generated_Source\PSoC4/CapSense_Processing.c **** 
  69:Generated_Source\PSoC4/CapSense_Processing.c **** #if(CapSense_ENABLE == CapSense_BALLISTIC_MULTIPLIER_EN)
  70:Generated_Source\PSoC4/CapSense_Processing.c ****     #include "CapSense_Gesture.h"
  71:Generated_Source\PSoC4/CapSense_Processing.c **** #endif
  72:Generated_Source\PSoC4/CapSense_Processing.c **** 
  73:Generated_Source\PSoC4/CapSense_Processing.c **** /**************************************************************************************************
  74:Generated_Source\PSoC4/CapSense_Processing.c **** * Local definition
  75:Generated_Source\PSoC4/CapSense_Processing.c **** ***************************************************************************************************
  76:Generated_Source\PSoC4/CapSense_Processing.c **** 
  77:Generated_Source\PSoC4/CapSense_Processing.c **** /* UINT32 constant with all odd bits set. It is used by the processing function of the Proximity wi
  78:Generated_Source\PSoC4/CapSense_Processing.c **** *  determine type of the status bit: odd bits report proximity status; even bits report touch statu
  79:Generated_Source\PSoC4/CapSense_Processing.c **** */
  80:Generated_Source\PSoC4/CapSense_Processing.c **** #define UINT32_ODD_BITS_CONST       (0x55555555u)
  81:Generated_Source\PSoC4/CapSense_Processing.c **** 
  82:Generated_Source\PSoC4/CapSense_Processing.c **** /* Default value for the Off Debounce counter when the Off Debounce is disabled */
  83:Generated_Source\PSoC4/CapSense_Processing.c **** #define DEFAULT_OFF_DEBOUNCE_VALUE  (1u)
  84:Generated_Source\PSoC4/CapSense_Processing.c **** #define PERCENTAGE_100              (100u)
  85:Generated_Source\PSoC4/CapSense_Processing.c **** #define TEMP_BUFFER_MSB_SHIFT       (16)
  86:Generated_Source\PSoC4/CapSense_Processing.c **** 
  87:Generated_Source\PSoC4/CapSense_Processing.c **** /**************************************************************************************************
ARM GAS  C:\Users\MIHAILO\AppData\Local\Temp\ccp4p2Le.s 			page 3


  88:Generated_Source\PSoC4/CapSense_Processing.c **** * Local variables
  89:Generated_Source\PSoC4/CapSense_Processing.c **** ***************************************************************************************************
  90:Generated_Source\PSoC4/CapSense_Processing.c **** #if (0u != CapSense_CSX_MULTIPHASE_TX_EN)
  91:Generated_Source\PSoC4/CapSense_Processing.c ****     static uint16 deconvRowData[CapSense_CSX_MAX_TX_PHASE_LENGTH];
  92:Generated_Source\PSoC4/CapSense_Processing.c **** #endif
  93:Generated_Source\PSoC4/CapSense_Processing.c **** 
  94:Generated_Source\PSoC4/CapSense_Processing.c **** 
  95:Generated_Source\PSoC4/CapSense_Processing.c **** /**************************************************************************************************
  96:Generated_Source\PSoC4/CapSense_Processing.c **** * Static Function Prototypes
  97:Generated_Source\PSoC4/CapSense_Processing.c **** ***************************************************************************************************
  98:Generated_Source\PSoC4/CapSense_Processing.c **** /**
  99:Generated_Source\PSoC4/CapSense_Processing.c **** * \cond SECTION_C_INTERNAL
 100:Generated_Source\PSoC4/CapSense_Processing.c **** * \addtogroup group_c_internal
 101:Generated_Source\PSoC4/CapSense_Processing.c **** * \{
 102:Generated_Source\PSoC4/CapSense_Processing.c **** */
 103:Generated_Source\PSoC4/CapSense_Processing.c **** #if (0u != CapSense_TOTAL_LINEAR_SLIDERS)
 104:Generated_Source\PSoC4/CapSense_Processing.c ****     static CY_INLINE void DpUpdateLinSlider(
 105:Generated_Source\PSoC4/CapSense_Processing.c ****                         const uint16 newPos[], uint32 numTouches,
 106:Generated_Source\PSoC4/CapSense_Processing.c ****                         CapSense_FLASH_WD_STRUCT const *ptrFlashWdgt,
 107:Generated_Source\PSoC4/CapSense_Processing.c ****                         CapSense_RAM_WD_SLIDER_STRUCT *ptrRamWdgt);
 108:Generated_Source\PSoC4/CapSense_Processing.c **** #endif /* #if (0u != CapSense_TOTAL_LINEAR_SLIDERS) */
 109:Generated_Source\PSoC4/CapSense_Processing.c **** 
 110:Generated_Source\PSoC4/CapSense_Processing.c **** #if (0u != CapSense_TOTAL_RADIAL_SLIDERS)
 111:Generated_Source\PSoC4/CapSense_Processing.c ****     static CY_INLINE void DpUpdateRadSlider(
 112:Generated_Source\PSoC4/CapSense_Processing.c ****                         const uint16 newPos[], uint32 numTouches,
 113:Generated_Source\PSoC4/CapSense_Processing.c ****                         CapSense_FLASH_WD_STRUCT const * ptrFlashWdgt,
 114:Generated_Source\PSoC4/CapSense_Processing.c ****                         CapSense_RAM_WD_SLIDER_STRUCT *ptrRamWdgt);
 115:Generated_Source\PSoC4/CapSense_Processing.c **** #endif /* #if (0u != CapSense_TOTAL_RADIAL_SLIDERS) */
 116:Generated_Source\PSoC4/CapSense_Processing.c **** 
 117:Generated_Source\PSoC4/CapSense_Processing.c **** #if (0u != CapSense_CSD_TOUCHPAD_WIDGET_EN)
 118:Generated_Source\PSoC4/CapSense_Processing.c ****     static CY_INLINE void CapSense_DpInitCsdTouchpad(CapSense_FLASH_WD_STRUCT const * ptrFlashWdgt)
 119:Generated_Source\PSoC4/CapSense_Processing.c **** #endif /* #if (0u != CapSense_CSD_TOUCHPAD_WIDGET_EN) */
 120:Generated_Source\PSoC4/CapSense_Processing.c **** 
 121:Generated_Source\PSoC4/CapSense_Processing.c **** #if (0u != CapSense_CSX_TOUCHPAD_WIDGET_EN)
 122:Generated_Source\PSoC4/CapSense_Processing.c ****     static CY_INLINE void CapSense_DpInitCsxTouchpad(CapSense_FLASH_WD_STRUCT const * ptrFlashWdgt)
 123:Generated_Source\PSoC4/CapSense_Processing.c **** #endif /* #if (0u != CapSense_CSX_TOUCHPAD_WIDGET_EN) */
 124:Generated_Source\PSoC4/CapSense_Processing.c **** 
 125:Generated_Source\PSoC4/CapSense_Processing.c **** #if (0u != CapSense_SLIDER_WIDGET_EN)
 126:Generated_Source\PSoC4/CapSense_Processing.c ****     static CY_INLINE void CapSense_DpInitSlider(CapSense_FLASH_WD_STRUCT const * ptrFlashWdgt);
 127:Generated_Source\PSoC4/CapSense_Processing.c **** #endif /* #if (0u != CapSense_SLIDER_WIDGET_EN) */
 128:Generated_Source\PSoC4/CapSense_Processing.c **** 
 129:Generated_Source\PSoC4/CapSense_Processing.c **** #if (0u != CapSense_CSD_MATRIX_WIDGET_EN)
 130:Generated_Source\PSoC4/CapSense_Processing.c ****     static CY_INLINE void CapSense_DpInitCsdMatrix(CapSense_FLASH_WD_STRUCT const * ptrFlashWdgt);
 131:Generated_Source\PSoC4/CapSense_Processing.c **** #endif /* #if (0u != CapSense_CSD_MATRIX_WIDGET_EN) */
 132:Generated_Source\PSoC4/CapSense_Processing.c **** 
 133:Generated_Source\PSoC4/CapSense_Processing.c **** /** \}
 134:Generated_Source\PSoC4/CapSense_Processing.c **** * \endcond */
 135:Generated_Source\PSoC4/CapSense_Processing.c **** 
 136:Generated_Source\PSoC4/CapSense_Processing.c **** #if (0u != CapSense_CSD_TOUCHPAD_WIDGET_EN)
 137:Generated_Source\PSoC4/CapSense_Processing.c **** /*******************************************************************************
 138:Generated_Source\PSoC4/CapSense_Processing.c **** * Function Name: CapSense_DpInitCsdTouchpad
 139:Generated_Source\PSoC4/CapSense_Processing.c **** ****************************************************************************//**
 140:Generated_Source\PSoC4/CapSense_Processing.c **** *
 141:Generated_Source\PSoC4/CapSense_Processing.c **** * \brief
 142:Generated_Source\PSoC4/CapSense_Processing.c **** *  Performs initialization of the CSD touchpad widget.
 143:Generated_Source\PSoC4/CapSense_Processing.c **** *   - Resets the position data to NONE
 144:Generated_Source\PSoC4/CapSense_Processing.c **** *   - Initializes the position filter history if enabled.
ARM GAS  C:\Users\MIHAILO\AppData\Local\Temp\ccp4p2Le.s 			page 4


 145:Generated_Source\PSoC4/CapSense_Processing.c **** *
 146:Generated_Source\PSoC4/CapSense_Processing.c **** * \details
 147:Generated_Source\PSoC4/CapSense_Processing.c **** *  The position data is always reset to the CapSense_TOUCHPAD_POS_NONE value.
 148:Generated_Source\PSoC4/CapSense_Processing.c **** *  The same happens to the position filter history data if enabled.
 149:Generated_Source\PSoC4/CapSense_Processing.c **** *
 150:Generated_Source\PSoC4/CapSense_Processing.c **** *******************************************************************************/
 151:Generated_Source\PSoC4/CapSense_Processing.c **** static CY_INLINE void CapSense_DpInitCsdTouchpad(CapSense_FLASH_WD_STRUCT const * ptrFlashWdgt)
 152:Generated_Source\PSoC4/CapSense_Processing.c **** {
 153:Generated_Source\PSoC4/CapSense_Processing.c ****     #if (CapSense_ENABLE == CapSense_CENTROID_5X5_CSD_EN)
 154:Generated_Source\PSoC4/CapSense_Processing.c ****         uint32 touchIndex;
 155:Generated_Source\PSoC4/CapSense_Processing.c ****     #endif
 156:Generated_Source\PSoC4/CapSense_Processing.c **** 
 157:Generated_Source\PSoC4/CapSense_Processing.c ****     CapSense_RAM_WD_CSD_TOUCHPAD_STRUCT *ptrWdTouchpad;
 158:Generated_Source\PSoC4/CapSense_Processing.c **** 
 159:Generated_Source\PSoC4/CapSense_Processing.c ****     #if (0u != CapSense_POSITION_FILTER_EN)
 160:Generated_Source\PSoC4/CapSense_Processing.c ****         CapSense_TOUCHPAD_POS_HISTORY_STRUCT *ptrHistory;
 161:Generated_Source\PSoC4/CapSense_Processing.c ****     #endif  /* #if (0u != CapSense_POSITION_FILTER_EN) */
 162:Generated_Source\PSoC4/CapSense_Processing.c **** 
 163:Generated_Source\PSoC4/CapSense_Processing.c ****     #if (0u != CapSense_POS_ADAPTIVE_IIR_FILTER_EN)
 164:Generated_Source\PSoC4/CapSense_Processing.c ****         ADAPTIVE_FILTER_CONTEXT_STRUCT adpContext;
 165:Generated_Source\PSoC4/CapSense_Processing.c ****     #endif /* (0u != CapSense_POS_ADAPTIVE_IIR_FILTER_EN) */
 166:Generated_Source\PSoC4/CapSense_Processing.c **** 
 167:Generated_Source\PSoC4/CapSense_Processing.c ****     ptrWdTouchpad = ptrFlashWdgt->ptr2WdgtRam;
 168:Generated_Source\PSoC4/CapSense_Processing.c **** 
 169:Generated_Source\PSoC4/CapSense_Processing.c ****     /* Reset position data */
 170:Generated_Source\PSoC4/CapSense_Processing.c ****     #if (CapSense_ENABLE == CapSense_CENTROID_5X5_CSD_EN)
 171:Generated_Source\PSoC4/CapSense_Processing.c ****         #if (CapSense_ENABLE == CapSense_CENTROID_3X3_CSD_EN)
 172:Generated_Source\PSoC4/CapSense_Processing.c ****             if (0u != (ptrFlashWdgt->staticConfig & CapSense_CENTROID_5X5_MASK))
 173:Generated_Source\PSoC4/CapSense_Processing.c ****             {
 174:Generated_Source\PSoC4/CapSense_Processing.c ****         #endif
 175:Generated_Source\PSoC4/CapSense_Processing.c **** 
 176:Generated_Source\PSoC4/CapSense_Processing.c ****         ptrWdTouchpad->position.touchNum = 0u;
 177:Generated_Source\PSoC4/CapSense_Processing.c **** 
 178:Generated_Source\PSoC4/CapSense_Processing.c ****         #if (0u != CapSense_POSITION_FILTER_EN)
 179:Generated_Source\PSoC4/CapSense_Processing.c ****             ptrHistory = ptrFlashWdgt->ptr2PosHistory;
 180:Generated_Source\PSoC4/CapSense_Processing.c ****         #endif /* (0u != CapSense_POSITION_FILTER_EN) */
 181:Generated_Source\PSoC4/CapSense_Processing.c **** 
 182:Generated_Source\PSoC4/CapSense_Processing.c ****         for (touchIndex = 0u; touchIndex < ADVANCED_CENTROID_MAX_TOUCHES; touchIndex++)
 183:Generated_Source\PSoC4/CapSense_Processing.c ****         {
 184:Generated_Source\PSoC4/CapSense_Processing.c ****             ptrWdTouchpad->position.pos[touchIndex].x = ADVANCED_CENTROID_POSITION_NONE;
 185:Generated_Source\PSoC4/CapSense_Processing.c ****             ptrWdTouchpad->position.pos[touchIndex].y = ADVANCED_CENTROID_POSITION_NONE;
 186:Generated_Source\PSoC4/CapSense_Processing.c ****             ptrWdTouchpad->position.pos[touchIndex].zX = ADVANCED_CENTROID_POSITION_NONE;
 187:Generated_Source\PSoC4/CapSense_Processing.c ****             ptrWdTouchpad->position.pos[touchIndex].zY = ADVANCED_CENTROID_POSITION_NONE;
 188:Generated_Source\PSoC4/CapSense_Processing.c **** 
 189:Generated_Source\PSoC4/CapSense_Processing.c ****             /* Clear position filter history data if available */
 190:Generated_Source\PSoC4/CapSense_Processing.c ****             #if (0u != CapSense_POSITION_FILTER_EN)
 191:Generated_Source\PSoC4/CapSense_Processing.c ****                 if (NULL != ptrHistory)
 192:Generated_Source\PSoC4/CapSense_Processing.c ****                 {
 193:Generated_Source\PSoC4/CapSense_Processing.c ****                     CapSense_InitPosFiltersDd(&ptrHistory[touchIndex], CapSense_TOUCHPAD_POS_NONE, 
 194:Generated_Source\PSoC4/CapSense_Processing.c ****                     #if (0u != CapSense_POS_ADAPTIVE_IIR_FILTER_EN)
 195:Generated_Source\PSoC4/CapSense_Processing.c ****                         AdaptiveFilter_Initialize(&ptrWdTouchpad->aiirConfig, &adpContext);
 196:Generated_Source\PSoC4/CapSense_Processing.c ****                         ptrHistory[touchIndex].xPos.posAIIRCoeff = adpContext.coefficient;
 197:Generated_Source\PSoC4/CapSense_Processing.c ****                         ptrHistory[touchIndex].yPos.posAIIRCoeff = adpContext.coefficient;
 198:Generated_Source\PSoC4/CapSense_Processing.c ****                     #endif /* (0u != CapSense_POS_ADAPTIVE_IIR_FILTER_EN) */
 199:Generated_Source\PSoC4/CapSense_Processing.c ****                 }
 200:Generated_Source\PSoC4/CapSense_Processing.c ****             #endif /* (0u != CapSense_POSITION_FILTER_EN) */
 201:Generated_Source\PSoC4/CapSense_Processing.c ****         }
ARM GAS  C:\Users\MIHAILO\AppData\Local\Temp\ccp4p2Le.s 			page 5


 202:Generated_Source\PSoC4/CapSense_Processing.c **** 
 203:Generated_Source\PSoC4/CapSense_Processing.c ****         #if (CapSense_ENABLE == CapSense_CENTROID_3X3_CSD_EN)
 204:Generated_Source\PSoC4/CapSense_Processing.c ****             }
 205:Generated_Source\PSoC4/CapSense_Processing.c ****         #endif
 206:Generated_Source\PSoC4/CapSense_Processing.c ****     #endif
 207:Generated_Source\PSoC4/CapSense_Processing.c **** 
 208:Generated_Source\PSoC4/CapSense_Processing.c ****     #if (CapSense_ENABLE == CapSense_CENTROID_3X3_CSD_EN)
 209:Generated_Source\PSoC4/CapSense_Processing.c ****         if (0u != (ptrFlashWdgt->staticConfig & CapSense_CENTROID_3X3_MASK))
 210:Generated_Source\PSoC4/CapSense_Processing.c ****         {
 211:Generated_Source\PSoC4/CapSense_Processing.c ****             ptrWdTouchpad->posX = CapSense_TOUCHPAD_POS_NONE;
 212:Generated_Source\PSoC4/CapSense_Processing.c ****             ptrWdTouchpad->posY = CapSense_TOUCHPAD_POS_NONE;
 213:Generated_Source\PSoC4/CapSense_Processing.c **** 
 214:Generated_Source\PSoC4/CapSense_Processing.c ****             /* Clear position filter history data if available */
 215:Generated_Source\PSoC4/CapSense_Processing.c ****             #if (0u != CapSense_POSITION_FILTER_EN)
 216:Generated_Source\PSoC4/CapSense_Processing.c ****                 ptrHistory = ptrFlashWdgt->ptr2PosHistory;
 217:Generated_Source\PSoC4/CapSense_Processing.c ****                 CapSense_InitPosFiltersDd(ptrHistory, CapSense_TOUCHPAD_POS_NONE, CapSense_TOUCHPAD
 218:Generated_Source\PSoC4/CapSense_Processing.c **** 
 219:Generated_Source\PSoC4/CapSense_Processing.c ****                 #if (0u != CapSense_POS_ADAPTIVE_IIR_FILTER_EN)
 220:Generated_Source\PSoC4/CapSense_Processing.c ****                     if (NULL != ptrHistory)
 221:Generated_Source\PSoC4/CapSense_Processing.c ****                     {
 222:Generated_Source\PSoC4/CapSense_Processing.c ****                         AdaptiveFilter_Initialize(&ptrWdTouchpad->aiirConfig, &adpContext);
 223:Generated_Source\PSoC4/CapSense_Processing.c ****                         ptrHistory->xPos.posAIIRCoeff = adpContext.coefficient;
 224:Generated_Source\PSoC4/CapSense_Processing.c ****                         ptrHistory->yPos.posAIIRCoeff = adpContext.coefficient;
 225:Generated_Source\PSoC4/CapSense_Processing.c ****                     }
 226:Generated_Source\PSoC4/CapSense_Processing.c ****                 #endif /* (0u != CapSense_POS_ADAPTIVE_IIR_FILTER_EN) */
 227:Generated_Source\PSoC4/CapSense_Processing.c ****             #endif /* (0u != CapSense_POSITION_FILTER_EN) */
 228:Generated_Source\PSoC4/CapSense_Processing.c ****         }
 229:Generated_Source\PSoC4/CapSense_Processing.c ****     #endif
 230:Generated_Source\PSoC4/CapSense_Processing.c **** }
 231:Generated_Source\PSoC4/CapSense_Processing.c **** #endif /* #if (0u != CapSense_CSD_TOUCHPAD_WIDGET_EN) */
 232:Generated_Source\PSoC4/CapSense_Processing.c **** 
 233:Generated_Source\PSoC4/CapSense_Processing.c **** #if (0u != CapSense_CSX_TOUCHPAD_WIDGET_EN)
 234:Generated_Source\PSoC4/CapSense_Processing.c **** /*******************************************************************************
 235:Generated_Source\PSoC4/CapSense_Processing.c **** * Function Name: CapSense_DpInitCsxTouchpad
 236:Generated_Source\PSoC4/CapSense_Processing.c **** ****************************************************************************//**
 237:Generated_Source\PSoC4/CapSense_Processing.c **** *
 238:Generated_Source\PSoC4/CapSense_Processing.c **** * \brief
 239:Generated_Source\PSoC4/CapSense_Processing.c **** *  Performs initialization of the CSX touchpad widget i.e. Resets the position data to NONE.
 240:Generated_Source\PSoC4/CapSense_Processing.c **** *
 241:Generated_Source\PSoC4/CapSense_Processing.c **** * \details
 242:Generated_Source\PSoC4/CapSense_Processing.c **** *  The position data is always reset to the CapSense_TOUCHPAD_POS_NONE value.
 243:Generated_Source\PSoC4/CapSense_Processing.c **** *
 244:Generated_Source\PSoC4/CapSense_Processing.c **** *******************************************************************************/
 245:Generated_Source\PSoC4/CapSense_Processing.c **** static CY_INLINE void CapSense_DpInitCsxTouchpad(CapSense_FLASH_WD_STRUCT const * ptrFlashWdgt)
 246:Generated_Source\PSoC4/CapSense_Processing.c **** {
 247:Generated_Source\PSoC4/CapSense_Processing.c ****     CapSense_RAM_WD_CSX_TOUCHPAD_STRUCT *ptrWdTouchpad;
 248:Generated_Source\PSoC4/CapSense_Processing.c **** 
 249:Generated_Source\PSoC4/CapSense_Processing.c ****     #if (0u != CapSense_POSITION_FILTER_EN)
 250:Generated_Source\PSoC4/CapSense_Processing.c ****         uint32 touchIndex;
 251:Generated_Source\PSoC4/CapSense_Processing.c ****         CapSense_TOUCHPAD_POS_HISTORY_STRUCT *ptrHistory;
 252:Generated_Source\PSoC4/CapSense_Processing.c ****     #endif  /* #if (0u != CapSense_POSITION_FILTER_EN) */
 253:Generated_Source\PSoC4/CapSense_Processing.c **** 
 254:Generated_Source\PSoC4/CapSense_Processing.c ****     #if (0u != CapSense_POS_ADAPTIVE_IIR_FILTER_EN)
 255:Generated_Source\PSoC4/CapSense_Processing.c ****         ADAPTIVE_FILTER_CONTEXT_STRUCT adpContext;
 256:Generated_Source\PSoC4/CapSense_Processing.c ****     #endif /* (0u != CapSense_POS_ADAPTIVE_IIR_FILTER_EN) */
 257:Generated_Source\PSoC4/CapSense_Processing.c **** 
 258:Generated_Source\PSoC4/CapSense_Processing.c ****     ptrWdTouchpad = ptrFlashWdgt->ptr2WdgtRam;
ARM GAS  C:\Users\MIHAILO\AppData\Local\Temp\ccp4p2Le.s 			page 6


 259:Generated_Source\PSoC4/CapSense_Processing.c **** 
 260:Generated_Source\PSoC4/CapSense_Processing.c ****     #if (0u != CapSense_POSITION_FILTER_EN)
 261:Generated_Source\PSoC4/CapSense_Processing.c ****         ptrHistory = ptrFlashWdgt->ptr2PosHistory;
 262:Generated_Source\PSoC4/CapSense_Processing.c ****     #endif /* (0u != CapSense_POSITION_FILTER_EN) */
 263:Generated_Source\PSoC4/CapSense_Processing.c **** 
 264:Generated_Source\PSoC4/CapSense_Processing.c ****     /* Reset position data for finger */
 265:Generated_Source\PSoC4/CapSense_Processing.c ****     ptrWdTouchpad->touch[0u].x = CapSense_TOUCHPAD_POS_NONE;
 266:Generated_Source\PSoC4/CapSense_Processing.c ****     ptrWdTouchpad->touch[0u].y = CapSense_TOUCHPAD_POS_NONE;
 267:Generated_Source\PSoC4/CapSense_Processing.c ****     ptrWdTouchpad->touch[0u].z = LO8(CapSense_TOUCHPAD_POS_NONE);
 268:Generated_Source\PSoC4/CapSense_Processing.c **** 
 269:Generated_Source\PSoC4/CapSense_Processing.c ****     #if (CapSense_CSX_MAX_FINGERS > 1u)
 270:Generated_Source\PSoC4/CapSense_Processing.c ****         ptrWdTouchpad->touch[1u].x = CapSense_TOUCHPAD_POS_NONE;
 271:Generated_Source\PSoC4/CapSense_Processing.c ****         ptrWdTouchpad->touch[1u].y = CapSense_TOUCHPAD_POS_NONE;
 272:Generated_Source\PSoC4/CapSense_Processing.c ****         ptrWdTouchpad->touch[1u].z = LO8(CapSense_TOUCHPAD_POS_NONE);
 273:Generated_Source\PSoC4/CapSense_Processing.c ****     #endif /* #if (CapSense_CSX_MAX_FINGERS > 1u) */
 274:Generated_Source\PSoC4/CapSense_Processing.c **** 
 275:Generated_Source\PSoC4/CapSense_Processing.c ****     #if (CapSense_CSX_MAX_FINGERS > 2u)
 276:Generated_Source\PSoC4/CapSense_Processing.c ****         ptrWdTouchpad->touch[2u].x = CapSense_TOUCHPAD_POS_NONE;
 277:Generated_Source\PSoC4/CapSense_Processing.c ****         ptrWdTouchpad->touch[2u].y = CapSense_TOUCHPAD_POS_NONE;
 278:Generated_Source\PSoC4/CapSense_Processing.c ****         ptrWdTouchpad->touch[2u].z = LO8(CapSense_TOUCHPAD_POS_NONE);
 279:Generated_Source\PSoC4/CapSense_Processing.c ****     #endif /* #if (CapSense_CSX_MAX_FINGERS > 2u) */
 280:Generated_Source\PSoC4/CapSense_Processing.c **** 
 281:Generated_Source\PSoC4/CapSense_Processing.c ****     #if (0u != CapSense_POSITION_FILTER_EN)
 282:Generated_Source\PSoC4/CapSense_Processing.c ****         for (touchIndex = 0u; touchIndex < CapSense_CSX_MAX_FINGERS; touchIndex++)
 283:Generated_Source\PSoC4/CapSense_Processing.c ****         {
 284:Generated_Source\PSoC4/CapSense_Processing.c ****             if (NULL != ptrHistory)
 285:Generated_Source\PSoC4/CapSense_Processing.c ****             {
 286:Generated_Source\PSoC4/CapSense_Processing.c ****                 /* Clear position filter history data if available */
 287:Generated_Source\PSoC4/CapSense_Processing.c ****                 CapSense_InitPosFiltersDd(&ptrHistory[touchIndex], CapSense_TOUCHPAD_POS_NONE, CapS
 288:Generated_Source\PSoC4/CapSense_Processing.c ****                 #if (0u != CapSense_POS_ADAPTIVE_IIR_FILTER_EN)
 289:Generated_Source\PSoC4/CapSense_Processing.c ****                     AdaptiveFilter_Initialize(&ptrWdTouchpad->aiirConfig, &adpContext);
 290:Generated_Source\PSoC4/CapSense_Processing.c ****                     ptrHistory[touchIndex].xPos.posAIIRCoeff = adpContext.coefficient;
 291:Generated_Source\PSoC4/CapSense_Processing.c ****                     ptrHistory[touchIndex].yPos.posAIIRCoeff = adpContext.coefficient;
 292:Generated_Source\PSoC4/CapSense_Processing.c ****                 #endif /* (0u != CapSense_POS_ADAPTIVE_IIR_FILTER_EN) */
 293:Generated_Source\PSoC4/CapSense_Processing.c ****             }
 294:Generated_Source\PSoC4/CapSense_Processing.c ****         }
 295:Generated_Source\PSoC4/CapSense_Processing.c ****     #endif /* (0u != CapSense_POSITION_FILTER_EN) */
 296:Generated_Source\PSoC4/CapSense_Processing.c **** }
 297:Generated_Source\PSoC4/CapSense_Processing.c **** #endif /* #if (0u != CapSense_CSX_TOUCHPAD_WIDGET_EN) */
 298:Generated_Source\PSoC4/CapSense_Processing.c **** 
 299:Generated_Source\PSoC4/CapSense_Processing.c **** #if (0u != CapSense_SLIDER_WIDGET_EN)
 300:Generated_Source\PSoC4/CapSense_Processing.c **** /*******************************************************************************
 301:Generated_Source\PSoC4/CapSense_Processing.c **** * Function Name: CapSense_DpInitSlider
 302:Generated_Source\PSoC4/CapSense_Processing.c **** ****************************************************************************//**
 303:Generated_Source\PSoC4/CapSense_Processing.c **** *
 304:Generated_Source\PSoC4/CapSense_Processing.c **** * \brief
 305:Generated_Source\PSoC4/CapSense_Processing.c **** *  Performs initialization of the Radial and Linear Slider widget.
 306:Generated_Source\PSoC4/CapSense_Processing.c **** *   - Resets the position data to NONE
 307:Generated_Source\PSoC4/CapSense_Processing.c **** *   - Initializes the position filter history to NONE if enabled.
 308:Generated_Source\PSoC4/CapSense_Processing.c **** *
 309:Generated_Source\PSoC4/CapSense_Processing.c **** * \details
 310:Generated_Source\PSoC4/CapSense_Processing.c **** *  Position data is always reset to the CapSense_SLIDER_POS_NONE value.
 311:Generated_Source\PSoC4/CapSense_Processing.c **** *  The same happens to the position filter history data if enabled.
 312:Generated_Source\PSoC4/CapSense_Processing.c **** *
 313:Generated_Source\PSoC4/CapSense_Processing.c **** *******************************************************************************/
 314:Generated_Source\PSoC4/CapSense_Processing.c **** static CY_INLINE void CapSense_DpInitSlider(CapSense_FLASH_WD_STRUCT const * ptrFlashWdgt)
 315:Generated_Source\PSoC4/CapSense_Processing.c **** {
ARM GAS  C:\Users\MIHAILO\AppData\Local\Temp\ccp4p2Le.s 			page 7


 316:Generated_Source\PSoC4/CapSense_Processing.c ****     uint32 idx;
 317:Generated_Source\PSoC4/CapSense_Processing.c ****     CapSense_RAM_WD_SLIDER_STRUCT *ptrWdSlider;
 318:Generated_Source\PSoC4/CapSense_Processing.c **** 
 319:Generated_Source\PSoC4/CapSense_Processing.c ****     #if (0u != CapSense_POSITION_FILTER_EN)
 320:Generated_Source\PSoC4/CapSense_Processing.c ****         CapSense_SLIDER_POS_HISTORY_STRUCT *ptrHistory;
 321:Generated_Source\PSoC4/CapSense_Processing.c ****     #endif /* #if (0u != CapSense_POSITION_FILTER_EN) */
 322:Generated_Source\PSoC4/CapSense_Processing.c **** 
 323:Generated_Source\PSoC4/CapSense_Processing.c ****     #if (0u != CapSense_POS_ADAPTIVE_IIR_FILTER_EN)
 324:Generated_Source\PSoC4/CapSense_Processing.c ****         ADAPTIVE_FILTER_CONTEXT_STRUCT context;
 325:Generated_Source\PSoC4/CapSense_Processing.c ****     #endif /* (0u != CapSense_POS_ADAPTIVE_IIR_FILTER_EN) */
 326:Generated_Source\PSoC4/CapSense_Processing.c **** 
 327:Generated_Source\PSoC4/CapSense_Processing.c ****     ptrWdSlider = ptrFlashWdgt->ptr2WdgtRam;
 328:Generated_Source\PSoC4/CapSense_Processing.c **** 
 329:Generated_Source\PSoC4/CapSense_Processing.c ****     /* Reset slider position data to NONE */
 330:Generated_Source\PSoC4/CapSense_Processing.c ****     for (idx = 0u; idx < CapSense_NUM_CENTROIDS; idx++)
 331:Generated_Source\PSoC4/CapSense_Processing.c ****     {
 332:Generated_Source\PSoC4/CapSense_Processing.c ****         ptrWdSlider->position[idx] = CapSense_SLIDER_POS_NONE;
 333:Generated_Source\PSoC4/CapSense_Processing.c **** 
 334:Generated_Source\PSoC4/CapSense_Processing.c ****         #if (0u != CapSense_POSITION_FILTER_EN)
 335:Generated_Source\PSoC4/CapSense_Processing.c ****             ptrHistory = ptrFlashWdgt->ptr2PosHistory;
 336:Generated_Source\PSoC4/CapSense_Processing.c ****             if (NULL != ptrHistory)
 337:Generated_Source\PSoC4/CapSense_Processing.c ****             {
 338:Generated_Source\PSoC4/CapSense_Processing.c ****                 CapSense_InitPosFiltersSd(&ptrHistory[idx], CapSense_SLIDER_POS_NONE);
 339:Generated_Source\PSoC4/CapSense_Processing.c ****                 #if (0u != CapSense_POS_ADAPTIVE_IIR_FILTER_EN)
 340:Generated_Source\PSoC4/CapSense_Processing.c ****                     AdaptiveFilter_Initialize(&ptrWdSlider->aiirConfig, &context);
 341:Generated_Source\PSoC4/CapSense_Processing.c ****                     ptrHistory->posAIIRCoeff = context.coefficient;
 342:Generated_Source\PSoC4/CapSense_Processing.c ****                 #endif /* (0u != CapSense_POS_ADAPTIVE_IIR_FILTER_EN) */
 343:Generated_Source\PSoC4/CapSense_Processing.c ****             }
 344:Generated_Source\PSoC4/CapSense_Processing.c **** 
 345:Generated_Source\PSoC4/CapSense_Processing.c ****         #endif /* #if (0u != CapSense_POSITION_FILTER_EN) */
 346:Generated_Source\PSoC4/CapSense_Processing.c ****     }
 347:Generated_Source\PSoC4/CapSense_Processing.c **** }
 348:Generated_Source\PSoC4/CapSense_Processing.c **** #endif /* #if (0u != CapSense_SLIDER_WIDGET_EN) */
 349:Generated_Source\PSoC4/CapSense_Processing.c **** 
 350:Generated_Source\PSoC4/CapSense_Processing.c **** #if (0u != CapSense_CSD_MATRIX_WIDGET_EN)
 351:Generated_Source\PSoC4/CapSense_Processing.c **** /*******************************************************************************
 352:Generated_Source\PSoC4/CapSense_Processing.c **** * Function Name: CapSense_DpInitCsdMatrix
 353:Generated_Source\PSoC4/CapSense_Processing.c **** ****************************************************************************//**
 354:Generated_Source\PSoC4/CapSense_Processing.c **** *
 355:Generated_Source\PSoC4/CapSense_Processing.c **** * \brief
 356:Generated_Source\PSoC4/CapSense_Processing.c **** *  Performs initialization of the CSD Matrix Buttons widget.
 357:Generated_Source\PSoC4/CapSense_Processing.c **** *   - Resets the active button position data to NONE.
 358:Generated_Source\PSoC4/CapSense_Processing.c **** *
 359:Generated_Source\PSoC4/CapSense_Processing.c **** * \details
 360:Generated_Source\PSoC4/CapSense_Processing.c **** *  Position data is always reset to the CapSense_MATRIX_POS_NONE value.
 361:Generated_Source\PSoC4/CapSense_Processing.c **** *
 362:Generated_Source\PSoC4/CapSense_Processing.c **** *******************************************************************************/
 363:Generated_Source\PSoC4/CapSense_Processing.c **** static CY_INLINE void CapSense_DpInitCsdMatrix(CapSense_FLASH_WD_STRUCT const * ptrFlashWdgt)
 364:Generated_Source\PSoC4/CapSense_Processing.c **** {
 365:Generated_Source\PSoC4/CapSense_Processing.c ****     CapSense_RAM_WD_CSD_MATRIX_STRUCT *ptrRamWdgt;
 366:Generated_Source\PSoC4/CapSense_Processing.c **** 
 367:Generated_Source\PSoC4/CapSense_Processing.c ****     ptrRamWdgt = (CapSense_RAM_WD_CSD_MATRIX_STRUCT *)ptrFlashWdgt->ptr2WdgtRam;
 368:Generated_Source\PSoC4/CapSense_Processing.c **** 
 369:Generated_Source\PSoC4/CapSense_Processing.c ****     /* Reset sensor id, row and col registers in data structure */
 370:Generated_Source\PSoC4/CapSense_Processing.c ****     ptrRamWdgt->posRow   = CapSense_MATRIX_POS_NONE;
 371:Generated_Source\PSoC4/CapSense_Processing.c ****     ptrRamWdgt->posCol   = CapSense_MATRIX_POS_NONE;
 372:Generated_Source\PSoC4/CapSense_Processing.c ****     ptrRamWdgt->posSnsId = CapSense_MATRIX_POS_NONE;
ARM GAS  C:\Users\MIHAILO\AppData\Local\Temp\ccp4p2Le.s 			page 8


 373:Generated_Source\PSoC4/CapSense_Processing.c **** }
 374:Generated_Source\PSoC4/CapSense_Processing.c **** #endif /* #if (0u != CapSense_CSD_MATRIX_WIDGET_EN) */
 375:Generated_Source\PSoC4/CapSense_Processing.c **** 
 376:Generated_Source\PSoC4/CapSense_Processing.c **** /*******************************************************************************
 377:Generated_Source\PSoC4/CapSense_Processing.c **** * Function Name: CapSense_DpInitialize
 378:Generated_Source\PSoC4/CapSense_Processing.c **** ****************************************************************************//**
 379:Generated_Source\PSoC4/CapSense_Processing.c **** *
 380:Generated_Source\PSoC4/CapSense_Processing.c **** * \brief
 381:Generated_Source\PSoC4/CapSense_Processing.c **** *  Performs initialization of the data processing FW module:
 382:Generated_Source\PSoC4/CapSense_Processing.c **** *   - Resets the de-bounce counters of all the widgets
 383:Generated_Source\PSoC4/CapSense_Processing.c **** *   - Resets the position filter history for slider and touchpad widgets
 384:Generated_Source\PSoC4/CapSense_Processing.c **** *   - Clears widget and sensor statuses
 385:Generated_Source\PSoC4/CapSense_Processing.c **** *   - Enables all the widgets.
 386:Generated_Source\PSoC4/CapSense_Processing.c **** *
 387:Generated_Source\PSoC4/CapSense_Processing.c **** * \details
 388:Generated_Source\PSoC4/CapSense_Processing.c **** *  The Button and Matrix Button widgets have individual de-bounce counter per
 389:Generated_Source\PSoC4/CapSense_Processing.c **** *  sensor for the CSD widgets and per node for the CSX widgets.
 390:Generated_Source\PSoC4/CapSense_Processing.c **** *
 391:Generated_Source\PSoC4/CapSense_Processing.c **** *  The Slider and Touchpad widgets have a single de-bounce counter per widget.
 392:Generated_Source\PSoC4/CapSense_Processing.c **** *
 393:Generated_Source\PSoC4/CapSense_Processing.c **** *  The Proximity widget has two de-bounce counters per sensor. One for the
 394:Generated_Source\PSoC4/CapSense_Processing.c **** *  proximity event and second for the touch event.
 395:Generated_Source\PSoC4/CapSense_Processing.c **** *
 396:Generated_Source\PSoC4/CapSense_Processing.c **** *  All debounce counters during initialization are set to the value of the
 397:Generated_Source\PSoC4/CapSense_Processing.c **** *  onDebounce widget parameter.
 398:Generated_Source\PSoC4/CapSense_Processing.c **** *
 399:Generated_Source\PSoC4/CapSense_Processing.c **** *******************************************************************************/
 400:Generated_Source\PSoC4/CapSense_Processing.c **** void CapSense_DpInitialize(void)
 401:Generated_Source\PSoC4/CapSense_Processing.c **** {
  28              		.loc 1 401 0
  29              		.cfi_startproc
  30              		@ args = 0, pretend = 0, frame = 0
  31              		@ frame_needed = 0, uses_anonymous_args = 0
  32 0000 70B5     		push	{r4, r5, r6, lr}
  33              		.cfi_def_cfa_offset 16
  34              		.cfi_offset 4, -16
  35              		.cfi_offset 5, -12
  36              		.cfi_offset 6, -8
  37              		.cfi_offset 14, -4
  38              	.LVL0:
 402:Generated_Source\PSoC4/CapSense_Processing.c ****     uint32 wdgtId;
 403:Generated_Source\PSoC4/CapSense_Processing.c ****     CapSense_WD_TYPE_ENUM widgetType;
 404:Generated_Source\PSoC4/CapSense_Processing.c ****     CapSense_RAM_WD_BASE_STRUCT * ptrRamWdgt;
 405:Generated_Source\PSoC4/CapSense_Processing.c ****     CapSense_FLASH_WD_STRUCT const * ptrFlashWdgt;
 406:Generated_Source\PSoC4/CapSense_Processing.c **** 
 407:Generated_Source\PSoC4/CapSense_Processing.c ****     for (wdgtId = 0u; wdgtId < CapSense_WDGT_STATUS_WORDS; wdgtId++)
  39              		.loc 1 407 0
  40 0002 0023     		movs	r3, #0
  41 0004 09E0     		b	.L2
  42              	.LVL1:
  43              	.L3:
 408:Generated_Source\PSoC4/CapSense_Processing.c ****     {
 409:Generated_Source\PSoC4/CapSense_Processing.c ****         /* Clear widget status */
 410:Generated_Source\PSoC4/CapSense_Processing.c ****         CapSense_dsRam.wdgtStatus[wdgtId] = 0u;
  44              		.loc 1 410 0 discriminator 3
  45 0006 1249     		ldr	r1, .L8
  46 0008 1A1D     		adds	r2, r3, #4
ARM GAS  C:\Users\MIHAILO\AppData\Local\Temp\ccp4p2Le.s 			page 9


  47 000a 9200     		lsls	r2, r2, #2
  48 000c 8818     		adds	r0, r1, r2
  49 000e 0024     		movs	r4, #0
  50 0010 4460     		str	r4, [r0, #4]
 411:Generated_Source\PSoC4/CapSense_Processing.c **** 
 412:Generated_Source\PSoC4/CapSense_Processing.c ****         /* Enable all the widgets */
 413:Generated_Source\PSoC4/CapSense_Processing.c ****         CapSense_dsRam.wdgtEnable[wdgtId] = 0xFFFFFFFFLu;
  51              		.loc 1 413 0 discriminator 3
  52 0012 0120     		movs	r0, #1
  53 0014 4042     		rsbs	r0, r0, #0
  54 0016 5050     		str	r0, [r2, r1]
 407:Generated_Source\PSoC4/CapSense_Processing.c ****     {
  55              		.loc 1 407 0 discriminator 3
  56 0018 0133     		adds	r3, r3, #1
  57              	.LVL2:
  58              	.L2:
 407:Generated_Source\PSoC4/CapSense_Processing.c ****     {
  59              		.loc 1 407 0 is_stmt 0 discriminator 1
  60 001a 002B     		cmp	r3, #0
  61 001c F3D0     		beq	.L3
  62 001e 0D4C     		ldr	r4, .L8+4
  63 0020 0123     		movs	r3, #1
  64              	.LVL3:
  65 0022 10E0     		b	.L4
  66              	.LVL4:
  67              	.L7:
 414:Generated_Source\PSoC4/CapSense_Processing.c **** 
 415:Generated_Source\PSoC4/CapSense_Processing.c ****         /* Set all the widgets to working state if the Self-Test is not enabled */
 416:Generated_Source\PSoC4/CapSense_Processing.c ****         #if (0u != CapSense_SELF_TEST_EN)
 417:Generated_Source\PSoC4/CapSense_Processing.c ****             CapSense_dsRam.wdgtWorking[wdgtId] = 0xFFFFFFFFLu;
 418:Generated_Source\PSoC4/CapSense_Processing.c ****         #endif /* #if (0u == CapSense_SELF_TEST_EN) */
 419:Generated_Source\PSoC4/CapSense_Processing.c ****     }
 420:Generated_Source\PSoC4/CapSense_Processing.c **** 
 421:Generated_Source\PSoC4/CapSense_Processing.c ****     ptrFlashWdgt = CapSense_dsFlash.wdgtArray;
 422:Generated_Source\PSoC4/CapSense_Processing.c **** 
 423:Generated_Source\PSoC4/CapSense_Processing.c ****     for (wdgtId = CapSense_TOTAL_WIDGETS; wdgtId-- > 0u; )
 424:Generated_Source\PSoC4/CapSense_Processing.c ****     {
 425:Generated_Source\PSoC4/CapSense_Processing.c ****         ptrRamWdgt = (CapSense_RAM_WD_BASE_STRUCT *)ptrFlashWdgt->ptr2WdgtRam;
  68              		.loc 1 425 0 is_stmt 1
  69 0024 6668     		ldr	r6, [r4, #4]
  70              	.LVL5:
 426:Generated_Source\PSoC4/CapSense_Processing.c ****         widgetType = (CapSense_WD_TYPE_ENUM)ptrFlashWdgt->wdgtType;
  71              		.loc 1 426 0
  72 0026 A27E     		ldrb	r2, [r4, #26]
  73              	.LVL6:
 427:Generated_Source\PSoC4/CapSense_Processing.c **** 
 428:Generated_Source\PSoC4/CapSense_Processing.c ****         /* Clear all sensor statuses */
 429:Generated_Source\PSoC4/CapSense_Processing.c ****         CapSense_dsRam.snsStatus[wdgtId] = 0u;
  74              		.loc 1 429 0
  75 0028 094B     		ldr	r3, .L8
  76 002a 5B19     		adds	r3, r3, r5
  77 002c 0021     		movs	r1, #0
  78 002e 1976     		strb	r1, [r3, #24]
 430:Generated_Source\PSoC4/CapSense_Processing.c **** 
 431:Generated_Source\PSoC4/CapSense_Processing.c ****         /* Reset de-bounce counters */
 432:Generated_Source\PSoC4/CapSense_Processing.c ****         switch (widgetType)
  79              		.loc 1 432 0
ARM GAS  C:\Users\MIHAILO\AppData\Local\Temp\ccp4p2Le.s 			page 10


  80 0030 012A     		cmp	r2, #1
  81 0032 06D1     		bne	.L5
 433:Generated_Source\PSoC4/CapSense_Processing.c ****         {
 434:Generated_Source\PSoC4/CapSense_Processing.c ****         #if (0u != CapSense_MATRIX_WIDGET_EN)
 435:Generated_Source\PSoC4/CapSense_Processing.c ****             case CapSense_WD_MATRIX_BUTTON_E:
 436:Generated_Source\PSoC4/CapSense_Processing.c ****                 #if (0u != CapSense_CSD_MATRIX_WIDGET_EN)
 437:Generated_Source\PSoC4/CapSense_Processing.c ****                     if (CapSense_SENSE_METHOD_CSD_E == CapSense_GET_SENSE_METHOD(ptrFlashWdgt))
 438:Generated_Source\PSoC4/CapSense_Processing.c ****                     {
 439:Generated_Source\PSoC4/CapSense_Processing.c ****                         CapSense_DpInitCsdMatrix(ptrFlashWdgt);
 440:Generated_Source\PSoC4/CapSense_Processing.c ****                     }
 441:Generated_Source\PSoC4/CapSense_Processing.c ****                 #endif /* #if (0u != CapSense_CSD_MATRIX_WIDGET_EN) */
 442:Generated_Source\PSoC4/CapSense_Processing.c **** 
 443:Generated_Source\PSoC4/CapSense_Processing.c ****                 if (NULL != ptrFlashWdgt->ptr2DebounceArr)
 444:Generated_Source\PSoC4/CapSense_Processing.c ****                 {
 445:Generated_Source\PSoC4/CapSense_Processing.c ****                     /* Initialize array of debounce counters */
 446:Generated_Source\PSoC4/CapSense_Processing.c ****                     (void)memset(ptrFlashWdgt->ptr2DebounceArr,
 447:Generated_Source\PSoC4/CapSense_Processing.c ****                                  (int32)ptrRamWdgt->onDebounce,
 448:Generated_Source\PSoC4/CapSense_Processing.c ****                                  (size_t)ptrFlashWdgt->totalNumSns);
 449:Generated_Source\PSoC4/CapSense_Processing.c ****                 }
 450:Generated_Source\PSoC4/CapSense_Processing.c ****                 break;
 451:Generated_Source\PSoC4/CapSense_Processing.c ****         #endif /* #if (0u != CapSense_MATRIX_WIDGET_EN) */
 452:Generated_Source\PSoC4/CapSense_Processing.c **** 
 453:Generated_Source\PSoC4/CapSense_Processing.c ****         #if (0u != CapSense_BUTTON_WIDGET_EN)
 454:Generated_Source\PSoC4/CapSense_Processing.c ****             case CapSense_WD_BUTTON_E:
 455:Generated_Source\PSoC4/CapSense_Processing.c ****                 if (NULL != ptrFlashWdgt->ptr2DebounceArr)
  82              		.loc 1 455 0
  83 0034 2069     		ldr	r0, [r4, #16]
  84 0036 0028     		cmp	r0, #0
  85 0038 03D0     		beq	.L5
 456:Generated_Source\PSoC4/CapSense_Processing.c ****                 {
 457:Generated_Source\PSoC4/CapSense_Processing.c ****                     /* Initialize array of debounce counters */
 458:Generated_Source\PSoC4/CapSense_Processing.c ****                     (void)memset(ptrFlashWdgt->ptr2DebounceArr,
 459:Generated_Source\PSoC4/CapSense_Processing.c ****                                  (int32)ptrRamWdgt->onDebounce,
  86              		.loc 1 459 0
  87 003a F179     		ldrb	r1, [r6, #7]
 460:Generated_Source\PSoC4/CapSense_Processing.c ****                                  (size_t)ptrFlashWdgt->totalNumSns);
  88              		.loc 1 460 0
  89 003c 228B     		ldrh	r2, [r4, #24]
  90              	.LVL7:
 458:Generated_Source\PSoC4/CapSense_Processing.c ****                                  (int32)ptrRamWdgt->onDebounce,
  91              		.loc 1 458 0
  92 003e FFF7FEFF 		bl	memset
  93              	.LVL8:
  94              	.L5:
 461:Generated_Source\PSoC4/CapSense_Processing.c ****                 }
 462:Generated_Source\PSoC4/CapSense_Processing.c ****                 break;
 463:Generated_Source\PSoC4/CapSense_Processing.c ****         #endif /* #if (0u != CapSense_BUTTON_WIDGET_EN) */
 464:Generated_Source\PSoC4/CapSense_Processing.c **** 
 465:Generated_Source\PSoC4/CapSense_Processing.c ****         #if (0u != CapSense_SLIDER_WIDGET_EN)
 466:Generated_Source\PSoC4/CapSense_Processing.c ****             case CapSense_WD_LINEAR_SLIDER_E:
 467:Generated_Source\PSoC4/CapSense_Processing.c ****             case CapSense_WD_RADIAL_SLIDER_E:
 468:Generated_Source\PSoC4/CapSense_Processing.c ****                 if (NULL != ptrFlashWdgt->ptr2DebounceArr)
 469:Generated_Source\PSoC4/CapSense_Processing.c ****                 {
 470:Generated_Source\PSoC4/CapSense_Processing.c ****                     /* Initialize single debounce counter of slider */
 471:Generated_Source\PSoC4/CapSense_Processing.c ****                     *(uint8 *)(ptrFlashWdgt->ptr2DebounceArr) = ptrRamWdgt->onDebounce;
 472:Generated_Source\PSoC4/CapSense_Processing.c ****                 }
 473:Generated_Source\PSoC4/CapSense_Processing.c **** 
ARM GAS  C:\Users\MIHAILO\AppData\Local\Temp\ccp4p2Le.s 			page 11


 474:Generated_Source\PSoC4/CapSense_Processing.c ****                 CapSense_DpInitSlider(ptrFlashWdgt);
 475:Generated_Source\PSoC4/CapSense_Processing.c **** 
 476:Generated_Source\PSoC4/CapSense_Processing.c ****                 break;
 477:Generated_Source\PSoC4/CapSense_Processing.c ****         #endif /* #if (0u != CapSense_SLIDER_WIDGET_EN) */
 478:Generated_Source\PSoC4/CapSense_Processing.c **** 
 479:Generated_Source\PSoC4/CapSense_Processing.c ****         #if (0u != CapSense_TOUCHPAD_WIDGET_EN)
 480:Generated_Source\PSoC4/CapSense_Processing.c ****             case CapSense_WD_TOUCHPAD_E:
 481:Generated_Source\PSoC4/CapSense_Processing.c ****                 if (NULL != ptrFlashWdgt->ptr2DebounceArr)
 482:Generated_Source\PSoC4/CapSense_Processing.c ****                 {
 483:Generated_Source\PSoC4/CapSense_Processing.c ****                     /* Initialize single debounce counter of touchpad */
 484:Generated_Source\PSoC4/CapSense_Processing.c ****                     *(uint8 *)(ptrFlashWdgt->ptr2DebounceArr) = ptrRamWdgt->onDebounce;
 485:Generated_Source\PSoC4/CapSense_Processing.c ****                 }
 486:Generated_Source\PSoC4/CapSense_Processing.c **** 
 487:Generated_Source\PSoC4/CapSense_Processing.c ****                 #if (0u != CapSense_CSD_TOUCHPAD_WIDGET_EN)
 488:Generated_Source\PSoC4/CapSense_Processing.c ****                     if (CapSense_SENSE_METHOD_CSD_E == CapSense_GET_SENSE_METHOD(ptrFlashWdgt))
 489:Generated_Source\PSoC4/CapSense_Processing.c ****                     {
 490:Generated_Source\PSoC4/CapSense_Processing.c ****                         CapSense_DpInitCsdTouchpad(ptrFlashWdgt);
 491:Generated_Source\PSoC4/CapSense_Processing.c ****                     }
 492:Generated_Source\PSoC4/CapSense_Processing.c ****                 #endif /* #if (0u != CapSense_CSD_TOUCHPAD_WIDGET_EN) */
 493:Generated_Source\PSoC4/CapSense_Processing.c **** 
 494:Generated_Source\PSoC4/CapSense_Processing.c ****                 #if (0u != CapSense_CSX_TOUCHPAD_WIDGET_EN)
 495:Generated_Source\PSoC4/CapSense_Processing.c ****                     if (CapSense_SENSE_METHOD_CSX_E == CapSense_GET_SENSE_METHOD(ptrFlashWdgt))
 496:Generated_Source\PSoC4/CapSense_Processing.c ****                     {
 497:Generated_Source\PSoC4/CapSense_Processing.c ****                         CapSense_DpInitCsxTouchpad(ptrFlashWdgt);
 498:Generated_Source\PSoC4/CapSense_Processing.c ****                     }
 499:Generated_Source\PSoC4/CapSense_Processing.c ****                 #endif /* #if (0u != CapSense_CSX_TOUCHPAD_WIDGET_EN) */
 500:Generated_Source\PSoC4/CapSense_Processing.c **** 
 501:Generated_Source\PSoC4/CapSense_Processing.c ****                 break;
 502:Generated_Source\PSoC4/CapSense_Processing.c ****         #endif /* #if (0u != CapSense_TOUCHPAD_WIDGET_EN) */
 503:Generated_Source\PSoC4/CapSense_Processing.c **** 
 504:Generated_Source\PSoC4/CapSense_Processing.c ****         #if (0u != CapSense_PROXIMITY_WIDGET_EN)
 505:Generated_Source\PSoC4/CapSense_Processing.c ****             case CapSense_WD_PROXIMITY_E:
 506:Generated_Source\PSoC4/CapSense_Processing.c ****                 if (NULL != ptrFlashWdgt->ptr2DebounceArr)
 507:Generated_Source\PSoC4/CapSense_Processing.c ****                 {
 508:Generated_Source\PSoC4/CapSense_Processing.c ****                     /* Proximity widgets have 2 de-bounce counters per sensor.
 509:Generated_Source\PSoC4/CapSense_Processing.c ****                      * Therefore the number of sensors is multiplied by 2.
 510:Generated_Source\PSoC4/CapSense_Processing.c ****                      */
 511:Generated_Source\PSoC4/CapSense_Processing.c ****                    (void)memset(ptrFlashWdgt->ptr2DebounceArr,
 512:Generated_Source\PSoC4/CapSense_Processing.c ****                                 (int32)ptrRamWdgt->onDebounce,
 513:Generated_Source\PSoC4/CapSense_Processing.c ****                                 (size_t)ptrFlashWdgt->totalNumSns * 2u);
 514:Generated_Source\PSoC4/CapSense_Processing.c ****                 }
 515:Generated_Source\PSoC4/CapSense_Processing.c ****                 break;
 516:Generated_Source\PSoC4/CapSense_Processing.c ****         #endif /* #if (0u != CapSense_PROXIMITY_WIDGET_EN) */
 517:Generated_Source\PSoC4/CapSense_Processing.c **** 
 518:Generated_Source\PSoC4/CapSense_Processing.c ****         #if (0u != CapSense_ENCODERDIAL_WIDGET_EN)
 519:Generated_Source\PSoC4/CapSense_Processing.c ****             case CapSense_WD_ENCODERDIAL_E:
 520:Generated_Source\PSoC4/CapSense_Processing.c ****                 if (NULL != ptrFlashWdgt->ptr2DebounceArr)
 521:Generated_Source\PSoC4/CapSense_Processing.c ****                 {
 522:Generated_Source\PSoC4/CapSense_Processing.c ****                     /* Proximity widgets have 2 de-bounce counters per sensor.
 523:Generated_Source\PSoC4/CapSense_Processing.c ****                      * Therefore the number of sensors is multiplied by 2.
 524:Generated_Source\PSoC4/CapSense_Processing.c ****                      */
 525:Generated_Source\PSoC4/CapSense_Processing.c ****                    (void)memset(ptrFlashWdgt->ptr2DebounceArr,
 526:Generated_Source\PSoC4/CapSense_Processing.c ****                                 (int32)ptrRamWdgt->onDebounce,
 527:Generated_Source\PSoC4/CapSense_Processing.c ****                                 (size_t)ptrFlashWdgt->totalNumSns);
 528:Generated_Source\PSoC4/CapSense_Processing.c ****                 }
 529:Generated_Source\PSoC4/CapSense_Processing.c ****                 break;
 530:Generated_Source\PSoC4/CapSense_Processing.c ****         #endif /* (0u != CapSense_ENCODERDIAL_WIDGET_EN) */
ARM GAS  C:\Users\MIHAILO\AppData\Local\Temp\ccp4p2Le.s 			page 12


 531:Generated_Source\PSoC4/CapSense_Processing.c ****             default:
 532:Generated_Source\PSoC4/CapSense_Processing.c ****                 break;
 533:Generated_Source\PSoC4/CapSense_Processing.c ****         }
 534:Generated_Source\PSoC4/CapSense_Processing.c **** 
 535:Generated_Source\PSoC4/CapSense_Processing.c ****         /* Move to next widget */
 536:Generated_Source\PSoC4/CapSense_Processing.c ****         ptrFlashWdgt++;
  95              		.loc 1 536 0
  96 0042 2034     		adds	r4, r4, #32
  97              	.LVL9:
 423:Generated_Source\PSoC4/CapSense_Processing.c ****     {
  98              		.loc 1 423 0
  99 0044 2B00     		movs	r3, r5
 100              	.LVL10:
 101              	.L4:
 423:Generated_Source\PSoC4/CapSense_Processing.c ****     {
 102              		.loc 1 423 0 is_stmt 0 discriminator 1
 103 0046 5D1E     		subs	r5, r3, #1
 104              	.LVL11:
 105 0048 002B     		cmp	r3, #0
 106 004a EBD1     		bne	.L7
 537:Generated_Source\PSoC4/CapSense_Processing.c ****     }
 538:Generated_Source\PSoC4/CapSense_Processing.c **** }
 107              		.loc 1 538 0 is_stmt 1
 108              		@ sp needed
 109              	.LVL12:
 110              	.LVL13:
 111 004c 70BD     		pop	{r4, r5, r6, pc}
 112              	.L9:
 113 004e C046     		.align	2
 114              	.L8:
 115 0050 00000000 		.word	CapSense_dsRam
 116 0054 00000000 		.word	CapSense_dsFlash
 117              		.cfi_endproc
 118              	.LFE0:
 119              		.size	CapSense_DpInitialize, .-CapSense_DpInitialize
 120              		.section	.text.CapSense_DpUpdateThresholds,"ax",%progbits
 121              		.align	2
 122              		.global	CapSense_DpUpdateThresholds
 123              		.code	16
 124              		.thumb_func
 125              		.type	CapSense_DpUpdateThresholds, %function
 126              	CapSense_DpUpdateThresholds:
 127              	.LFB4:
 539:Generated_Source\PSoC4/CapSense_Processing.c **** 
 540:Generated_Source\PSoC4/CapSense_Processing.c **** #if (0u != CapSense_TOTAL_CSX_WIDGETS)
 541:Generated_Source\PSoC4/CapSense_Processing.c **** /*******************************************************************************
 542:Generated_Source\PSoC4/CapSense_Processing.c **** * Function Name: CapSense_DpProcessCsxWidgetRawCounts
 543:Generated_Source\PSoC4/CapSense_Processing.c **** ****************************************************************************//**
 544:Generated_Source\PSoC4/CapSense_Processing.c **** *
 545:Generated_Source\PSoC4/CapSense_Processing.c **** * \brief
 546:Generated_Source\PSoC4/CapSense_Processing.c **** *  Performs default processing of the CSX raw counts.
 547:Generated_Source\PSoC4/CapSense_Processing.c **** *
 548:Generated_Source\PSoC4/CapSense_Processing.c **** * \details
 549:Generated_Source\PSoC4/CapSense_Processing.c **** *  Performs default processing of the CSX raw counts:
 550:Generated_Source\PSoC4/CapSense_Processing.c **** *   - Run Filters
 551:Generated_Source\PSoC4/CapSense_Processing.c **** *   - Update Baselines
 552:Generated_Source\PSoC4/CapSense_Processing.c **** *   - Update Differences
ARM GAS  C:\Users\MIHAILO\AppData\Local\Temp\ccp4p2Le.s 			page 13


 553:Generated_Source\PSoC4/CapSense_Processing.c **** *   - Update Status.
 554:Generated_Source\PSoC4/CapSense_Processing.c **** *  The same process is applied to all the sensors of the specified widget.
 555:Generated_Source\PSoC4/CapSense_Processing.c **** *
 556:Generated_Source\PSoC4/CapSense_Processing.c **** * \param ptrFlashWdgt The pointer to the Flash widget structure.
 557:Generated_Source\PSoC4/CapSense_Processing.c **** *
 558:Generated_Source\PSoC4/CapSense_Processing.c **** * \return
 559:Generated_Source\PSoC4/CapSense_Processing.c **** *  Returns the status of the specified widget processing operation:
 560:Generated_Source\PSoC4/CapSense_Processing.c **** *  - CYRET_SUCCESS if operation was successfully completed;
 561:Generated_Source\PSoC4/CapSense_Processing.c **** *  - CapSense_PROCESS_BASELINE_FAILED if baseline processing of any
 562:Generated_Source\PSoC4/CapSense_Processing.c **** *    sensor of the specified widget failed. The result is concatenated with the index
 563:Generated_Source\PSoC4/CapSense_Processing.c **** *    of failed sensor.
 564:Generated_Source\PSoC4/CapSense_Processing.c **** *
 565:Generated_Source\PSoC4/CapSense_Processing.c **** *******************************************************************************/
 566:Generated_Source\PSoC4/CapSense_Processing.c **** uint32 CapSense_DpProcessCsxWidgetRawCounts(CapSense_FLASH_WD_STRUCT const *ptrFlashWdgt)
 567:Generated_Source\PSoC4/CapSense_Processing.c **** {
 568:Generated_Source\PSoC4/CapSense_Processing.c ****     uint32 result = CYRET_SUCCESS;
 569:Generated_Source\PSoC4/CapSense_Processing.c ****     uint32 widgetType;
 570:Generated_Source\PSoC4/CapSense_Processing.c ****     uint32 snsCount;
 571:Generated_Source\PSoC4/CapSense_Processing.c ****     CapSense_RAM_SNS_STRUCT *ptrSnsTmp;
 572:Generated_Source\PSoC4/CapSense_Processing.c ****     CapSense_RAM_WD_BASE_STRUCT *ptrRamWdgt;
 573:Generated_Source\PSoC4/CapSense_Processing.c **** 
 574:Generated_Source\PSoC4/CapSense_Processing.c ****     #if (CapSense_ENABLE == CapSense_RC_FILTER_EN)
 575:Generated_Source\PSoC4/CapSense_Processing.c ****         CapSense_PTR_FILTER_VARIANT fltrHistV;
 576:Generated_Source\PSoC4/CapSense_Processing.c **** 
 577:Generated_Source\PSoC4/CapSense_Processing.c ****         fltrHistV.ptr = ptrFlashWdgt->ptr2FltrHistory;
 578:Generated_Source\PSoC4/CapSense_Processing.c ****     #endif /* #if (CapSense_ENABLE == CapSense_RC_FILTER_EN) */
 579:Generated_Source\PSoC4/CapSense_Processing.c **** 
 580:Generated_Source\PSoC4/CapSense_Processing.c ****     ptrSnsTmp = ptrFlashWdgt->ptr2SnsRam;
 581:Generated_Source\PSoC4/CapSense_Processing.c ****     snsCount = ptrFlashWdgt->totalNumSns;
 582:Generated_Source\PSoC4/CapSense_Processing.c ****     ptrRamWdgt = (CapSense_RAM_WD_BASE_STRUCT *)ptrFlashWdgt->ptr2WdgtRam;
 583:Generated_Source\PSoC4/CapSense_Processing.c ****     widgetType = ptrFlashWdgt->wdgtType;
 584:Generated_Source\PSoC4/CapSense_Processing.c **** 
 585:Generated_Source\PSoC4/CapSense_Processing.c ****     /* Run deconvolution algorithm for the widgets with multiphase TX support */
 586:Generated_Source\PSoC4/CapSense_Processing.c ****     #if (0u != CapSense_CSX_MULTIPHASE_TX_EN)
 587:Generated_Source\PSoC4/CapSense_Processing.c ****         if (0u != (ptrFlashWdgt->staticConfig & CapSense_MULTIPHASE_TX_MASK))
 588:Generated_Source\PSoC4/CapSense_Processing.c ****         {
 589:Generated_Source\PSoC4/CapSense_Processing.c ****             CapSense_DpDeconvolution(ptrFlashWdgt);
 590:Generated_Source\PSoC4/CapSense_Processing.c ****         }
 591:Generated_Source\PSoC4/CapSense_Processing.c ****     #endif  /* #if (0u != CapSense_CSX_MULTIPHASE_TX_EN) */
 592:Generated_Source\PSoC4/CapSense_Processing.c **** 
 593:Generated_Source\PSoC4/CapSense_Processing.c ****     for (;snsCount-- > 0u;)
 594:Generated_Source\PSoC4/CapSense_Processing.c ****     {
 595:Generated_Source\PSoC4/CapSense_Processing.c ****         #if (CapSense_ENABLE == CapSense_RC_FILTER_EN)
 596:Generated_Source\PSoC4/CapSense_Processing.c ****             CapSense_FtRunEnabledFiltersInternal(fltrHistV, ptrSnsTmp, widgetType);
 597:Generated_Source\PSoC4/CapSense_Processing.c ****             #if (CapSense_ALP_FILTER_EN)
 598:Generated_Source\PSoC4/CapSense_Processing.c ****                 CapSense_ConfigRunALPInternal(fltrHistV, ptrRamWdgt, ptrSnsTmp, widgetType);
 599:Generated_Source\PSoC4/CapSense_Processing.c ****             #endif
 600:Generated_Source\PSoC4/CapSense_Processing.c ****         #endif /* #if (CapSense_ENABLE == CapSense_RC_FILTER_EN) */
 601:Generated_Source\PSoC4/CapSense_Processing.c **** 
 602:Generated_Source\PSoC4/CapSense_Processing.c ****         result = CapSense_FtUpdateBaseline(ptrRamWdgt, ptrSnsTmp, widgetType);
 603:Generated_Source\PSoC4/CapSense_Processing.c **** 
 604:Generated_Source\PSoC4/CapSense_Processing.c ****         #if (CapSense_ENABLE == CapSense_TST_BSLN_DUPLICATION_EN)
 605:Generated_Source\PSoC4/CapSense_Processing.c ****             if (CYRET_SUCCESS != result)
 606:Generated_Source\PSoC4/CapSense_Processing.c ****             {
 607:Generated_Source\PSoC4/CapSense_Processing.c ****                 result = snsCount | CapSense_PROCESS_BASELINE_FAILED;
 608:Generated_Source\PSoC4/CapSense_Processing.c ****             }
 609:Generated_Source\PSoC4/CapSense_Processing.c ****         #endif /* (CapSense_ENABLE == CapSense_TST_BSLN_DUPLICATION_EN) */
ARM GAS  C:\Users\MIHAILO\AppData\Local\Temp\ccp4p2Le.s 			page 14


 610:Generated_Source\PSoC4/CapSense_Processing.c **** 
 611:Generated_Source\PSoC4/CapSense_Processing.c ****         CapSense_DpUpdateDifferences(ptrRamWdgt, ptrSnsTmp);
 612:Generated_Source\PSoC4/CapSense_Processing.c **** 
 613:Generated_Source\PSoC4/CapSense_Processing.c ****         /* Move pointers to the next sensor and filter history objects */
 614:Generated_Source\PSoC4/CapSense_Processing.c ****         ptrSnsTmp++;
 615:Generated_Source\PSoC4/CapSense_Processing.c **** 
 616:Generated_Source\PSoC4/CapSense_Processing.c ****         #if (CapSense_ENABLE == CapSense_RC_FILTER_EN)
 617:Generated_Source\PSoC4/CapSense_Processing.c ****             CapSense_INC_REG_FLTR_OBJ(fltrHistV);
 618:Generated_Source\PSoC4/CapSense_Processing.c ****         #endif /* #if (CapSense_ENABLE == CapSense_RC_FILTER_EN) */
 619:Generated_Source\PSoC4/CapSense_Processing.c ****     }
 620:Generated_Source\PSoC4/CapSense_Processing.c ****     return result;
 621:Generated_Source\PSoC4/CapSense_Processing.c **** }
 622:Generated_Source\PSoC4/CapSense_Processing.c **** 
 623:Generated_Source\PSoC4/CapSense_Processing.c **** /*******************************************************************************
 624:Generated_Source\PSoC4/CapSense_Processing.c **** * Function Name: CapSense_DpProcessCsxSensorRawCountsExt
 625:Generated_Source\PSoC4/CapSense_Processing.c **** ****************************************************************************//**
 626:Generated_Source\PSoC4/CapSense_Processing.c **** *
 627:Generated_Source\PSoC4/CapSense_Processing.c **** * \brief
 628:Generated_Source\PSoC4/CapSense_Processing.c **** *   Performs customized processing of the CSX sensor raw counts.
 629:Generated_Source\PSoC4/CapSense_Processing.c **** *
 630:Generated_Source\PSoC4/CapSense_Processing.c **** * \details
 631:Generated_Source\PSoC4/CapSense_Processing.c **** *   Performs customized processing of the CSX sensor raw counts.
 632:Generated_Source\PSoC4/CapSense_Processing.c **** *
 633:Generated_Source\PSoC4/CapSense_Processing.c **** *   If all bits are set at once the default processing order will take place.
 634:Generated_Source\PSoC4/CapSense_Processing.c **** *   For the custom order this API can be called multiple times and execute one task at a time.
 635:Generated_Source\PSoC4/CapSense_Processing.c **** *
 636:Generated_Source\PSoC4/CapSense_Processing.c **** * \param ptrFlashWdgt The pointer to the Flash Widget Object.
 637:Generated_Source\PSoC4/CapSense_Processing.c **** * \param curSnsPtr    The pointer to the specific RAM Sensor Object.
 638:Generated_Source\PSoC4/CapSense_Processing.c **** * \param fltrHistV    The pointer to the Filter History Object in RAM associated with specific sens
 639:Generated_Source\PSoC4/CapSense_Processing.c **** * \param mode         The bit-mask with the data processing tasks to be executed.
 640:Generated_Source\PSoC4/CapSense_Processing.c **** *   The mode parameters can take the following values:
 641:Generated_Source\PSoC4/CapSense_Processing.c **** *    - CapSense_PROCESS_FILTER     (0x01) Run Firmware Filter
 642:Generated_Source\PSoC4/CapSense_Processing.c **** *    - CapSense_PROCESS_BASELINE   (0x02) Update Baselines
 643:Generated_Source\PSoC4/CapSense_Processing.c **** *    - CapSense_PROCESS_DIFFCOUNTS (0x04) Update Difference Counts
 644:Generated_Source\PSoC4/CapSense_Processing.c **** *    - CapSense_PROCESS_ALL               Execute all tasks
 645:Generated_Source\PSoC4/CapSense_Processing.c **** *
 646:Generated_Source\PSoC4/CapSense_Processing.c **** * \return
 647:Generated_Source\PSoC4/CapSense_Processing.c **** *  Returns the status of the specified sensor processing operation:
 648:Generated_Source\PSoC4/CapSense_Processing.c **** *  - CYRET_SUCCESS if operation was successfully completed;
 649:Generated_Source\PSoC4/CapSense_Processing.c **** *  - CapSense_PROCESS_BASELINE_FAILED if baseline processing of any
 650:Generated_Source\PSoC4/CapSense_Processing.c **** *    sensor of the specified widget failed. The result is concatenated with the index
 651:Generated_Source\PSoC4/CapSense_Processing.c **** *    of failed sensor.
 652:Generated_Source\PSoC4/CapSense_Processing.c **** *
 653:Generated_Source\PSoC4/CapSense_Processing.c **** *******************************************************************************/
 654:Generated_Source\PSoC4/CapSense_Processing.c **** uint32 CapSense_DpProcessCsxSensorRawCountsExt(
 655:Generated_Source\PSoC4/CapSense_Processing.c ****                 CapSense_FLASH_WD_STRUCT const *ptrFlashWdgt,
 656:Generated_Source\PSoC4/CapSense_Processing.c ****                 CapSense_RAM_SNS_STRUCT *curSnsPtr,
 657:Generated_Source\PSoC4/CapSense_Processing.c ****                 CapSense_PTR_FILTER_VARIANT fltrHistV,
 658:Generated_Source\PSoC4/CapSense_Processing.c ****                 uint32 mode)
 659:Generated_Source\PSoC4/CapSense_Processing.c **** {
 660:Generated_Source\PSoC4/CapSense_Processing.c ****     uint32  result = CYRET_SUCCESS;
 661:Generated_Source\PSoC4/CapSense_Processing.c ****     uint32  widgetType;
 662:Generated_Source\PSoC4/CapSense_Processing.c ****     CapSense_RAM_WD_BASE_STRUCT *ptrRamWdgt;
 663:Generated_Source\PSoC4/CapSense_Processing.c **** 
 664:Generated_Source\PSoC4/CapSense_Processing.c ****     widgetType = ptrFlashWdgt->wdgtType;
 665:Generated_Source\PSoC4/CapSense_Processing.c ****     ptrRamWdgt = (CapSense_RAM_WD_BASE_STRUCT *)ptrFlashWdgt->ptr2WdgtRam;
 666:Generated_Source\PSoC4/CapSense_Processing.c **** 
ARM GAS  C:\Users\MIHAILO\AppData\Local\Temp\ccp4p2Le.s 			page 15


 667:Generated_Source\PSoC4/CapSense_Processing.c ****     #if (CapSense_ENABLE == CapSense_RC_FILTER_EN)
 668:Generated_Source\PSoC4/CapSense_Processing.c ****         if (0u != (mode & CapSense_PROCESS_FILTER))
 669:Generated_Source\PSoC4/CapSense_Processing.c ****         {
 670:Generated_Source\PSoC4/CapSense_Processing.c ****             CapSense_FtRunEnabledFiltersInternal(fltrHistV, curSnsPtr, widgetType);
 671:Generated_Source\PSoC4/CapSense_Processing.c ****             #if (CapSense_ALP_FILTER_EN)
 672:Generated_Source\PSoC4/CapSense_Processing.c ****                 CapSense_ConfigRunALPInternal(fltrHistV, ptrRamWdgt, curSnsPtr, widgetType);
 673:Generated_Source\PSoC4/CapSense_Processing.c ****             #endif
 674:Generated_Source\PSoC4/CapSense_Processing.c ****         }
 675:Generated_Source\PSoC4/CapSense_Processing.c ****     #else
 676:Generated_Source\PSoC4/CapSense_Processing.c ****         (void)fltrHistV; /* This parameter is unused in such configurations */
 677:Generated_Source\PSoC4/CapSense_Processing.c ****     #endif /* #if (CapSense_ENABLE == CapSense_RC_FILTER_EN) */
 678:Generated_Source\PSoC4/CapSense_Processing.c **** 
 679:Generated_Source\PSoC4/CapSense_Processing.c ****     if (0u != (mode & CapSense_PROCESS_BASELINE))
 680:Generated_Source\PSoC4/CapSense_Processing.c ****     {
 681:Generated_Source\PSoC4/CapSense_Processing.c ****         result = CapSense_FtUpdateBaseline(ptrRamWdgt, curSnsPtr, widgetType);
 682:Generated_Source\PSoC4/CapSense_Processing.c ****     }
 683:Generated_Source\PSoC4/CapSense_Processing.c **** 
 684:Generated_Source\PSoC4/CapSense_Processing.c ****     if (0u != (mode & CapSense_PROCESS_DIFFCOUNTS))
 685:Generated_Source\PSoC4/CapSense_Processing.c ****     {
 686:Generated_Source\PSoC4/CapSense_Processing.c ****         CapSense_DpUpdateDifferences(ptrRamWdgt, curSnsPtr);
 687:Generated_Source\PSoC4/CapSense_Processing.c ****     }
 688:Generated_Source\PSoC4/CapSense_Processing.c ****     return result;
 689:Generated_Source\PSoC4/CapSense_Processing.c **** }
 690:Generated_Source\PSoC4/CapSense_Processing.c **** 
 691:Generated_Source\PSoC4/CapSense_Processing.c **** 
 692:Generated_Source\PSoC4/CapSense_Processing.c **** /*******************************************************************************
 693:Generated_Source\PSoC4/CapSense_Processing.c **** * Function Name: CapSense_DpProcessCsxWidgetStatus
 694:Generated_Source\PSoC4/CapSense_Processing.c **** ****************************************************************************//**
 695:Generated_Source\PSoC4/CapSense_Processing.c **** *
 696:Generated_Source\PSoC4/CapSense_Processing.c **** * \brief
 697:Generated_Source\PSoC4/CapSense_Processing.c **** *   Updates the status of the CSX widget in the Data Structure.
 698:Generated_Source\PSoC4/CapSense_Processing.c **** *
 699:Generated_Source\PSoC4/CapSense_Processing.c **** * \details
 700:Generated_Source\PSoC4/CapSense_Processing.c **** *  This API determines the type of widget and runs the appropriate function
 701:Generated_Source\PSoC4/CapSense_Processing.c **** *  that implements the status update algorithm for this type of widget.
 702:Generated_Source\PSoC4/CapSense_Processing.c **** *
 703:Generated_Source\PSoC4/CapSense_Processing.c **** *  When the widget-specific processing completes this API updates the snsStatus
 704:Generated_Source\PSoC4/CapSense_Processing.c **** *  and wdgtStatus registers in the data structure. The wdgtStatus register
 705:Generated_Source\PSoC4/CapSense_Processing.c **** *  is a bitmask were each bit corresponds to the specific widget identified by
 706:Generated_Source\PSoC4/CapSense_Processing.c **** *  the widget index. When the bit is set the widget is active (touched);
 707:Generated_Source\PSoC4/CapSense_Processing.c **** *
 708:Generated_Source\PSoC4/CapSense_Processing.c **** *  Depending on the type of widget the snsStatus register may contain either
 709:Generated_Source\PSoC4/CapSense_Processing.c **** *  status of each widget node (active/non-active) or in case of the CSX Touchpad
 710:Generated_Source\PSoC4/CapSense_Processing.c **** *  is contains the number of touches. In both cases 0 means that widget is not
 711:Generated_Source\PSoC4/CapSense_Processing.c **** *  active.
 712:Generated_Source\PSoC4/CapSense_Processing.c **** *
 713:Generated_Source\PSoC4/CapSense_Processing.c **** * \param widgetId     The widget ID number.
 714:Generated_Source\PSoC4/CapSense_Processing.c **** * \param ptrFlashWdgt The pointer to the Flash Widget Object.
 715:Generated_Source\PSoC4/CapSense_Processing.c **** *
 716:Generated_Source\PSoC4/CapSense_Processing.c **** *******************************************************************************/
 717:Generated_Source\PSoC4/CapSense_Processing.c **** void CapSense_DpProcessCsxWidgetStatus(uint32 widgetId, CapSense_FLASH_WD_STRUCT const *ptrFlashWdg
 718:Generated_Source\PSoC4/CapSense_Processing.c **** {
 719:Generated_Source\PSoC4/CapSense_Processing.c ****     uint32 sensorStatus;
 720:Generated_Source\PSoC4/CapSense_Processing.c ****     uint32 wdStatusIndex;
 721:Generated_Source\PSoC4/CapSense_Processing.c ****     uint32 wdStatusMask;
 722:Generated_Source\PSoC4/CapSense_Processing.c ****     CapSense_WD_TYPE_ENUM widgetType;
 723:Generated_Source\PSoC4/CapSense_Processing.c **** 
ARM GAS  C:\Users\MIHAILO\AppData\Local\Temp\ccp4p2Le.s 			page 16


 724:Generated_Source\PSoC4/CapSense_Processing.c ****     widgetType = (CapSense_WD_TYPE_ENUM)ptrFlashWdgt->wdgtType;
 725:Generated_Source\PSoC4/CapSense_Processing.c ****     sensorStatus = CapSense_dsRam.snsStatus[widgetId];
 726:Generated_Source\PSoC4/CapSense_Processing.c **** 
 727:Generated_Source\PSoC4/CapSense_Processing.c ****     switch (widgetType)
 728:Generated_Source\PSoC4/CapSense_Processing.c ****     {
 729:Generated_Source\PSoC4/CapSense_Processing.c ****     #if (0u != CapSense_BUTTON_WIDGET_EN)
 730:Generated_Source\PSoC4/CapSense_Processing.c ****         case CapSense_WD_BUTTON_E:
 731:Generated_Source\PSoC4/CapSense_Processing.c ****             sensorStatus = CapSense_DpProcessButton(sensorStatus, ptrFlashWdgt);
 732:Generated_Source\PSoC4/CapSense_Processing.c ****             break;
 733:Generated_Source\PSoC4/CapSense_Processing.c ****     #endif /* #if (0u != CapSense_BUTTON_WIDGET_EN) */
 734:Generated_Source\PSoC4/CapSense_Processing.c **** 
 735:Generated_Source\PSoC4/CapSense_Processing.c ****     #if (0u != CapSense_CSX_MATRIX_WIDGET_EN)
 736:Generated_Source\PSoC4/CapSense_Processing.c ****         case CapSense_WD_MATRIX_BUTTON_E:
 737:Generated_Source\PSoC4/CapSense_Processing.c ****             sensorStatus = CapSense_DpProcessButton(sensorStatus, ptrFlashWdgt);
 738:Generated_Source\PSoC4/CapSense_Processing.c ****             break;
 739:Generated_Source\PSoC4/CapSense_Processing.c ****     #endif /* #if (0u != CapSense_CSX_MATRIX_WIDGET_EN) */
 740:Generated_Source\PSoC4/CapSense_Processing.c **** 
 741:Generated_Source\PSoC4/CapSense_Processing.c ****     #if (0u != CapSense_CSX_TOUCHPAD_WIDGET_EN)
 742:Generated_Source\PSoC4/CapSense_Processing.c ****         case CapSense_WD_TOUCHPAD_E:
 743:Generated_Source\PSoC4/CapSense_Processing.c ****             sensorStatus = CapSense_DpProcessCsxTouchpad(sensorStatus, ptrFlashWdgt);
 744:Generated_Source\PSoC4/CapSense_Processing.c ****             break;
 745:Generated_Source\PSoC4/CapSense_Processing.c ****     #endif /* #if (0u != CapSense_CSX_TOUCHPAD_WIDGET_EN) */
 746:Generated_Source\PSoC4/CapSense_Processing.c **** 
 747:Generated_Source\PSoC4/CapSense_Processing.c ****     default:
 748:Generated_Source\PSoC4/CapSense_Processing.c ****         CYASSERT(0u);
 749:Generated_Source\PSoC4/CapSense_Processing.c ****         break;
 750:Generated_Source\PSoC4/CapSense_Processing.c ****     }
 751:Generated_Source\PSoC4/CapSense_Processing.c **** 
 752:Generated_Source\PSoC4/CapSense_Processing.c ****     /* Update sensor status in the data structure */
 753:Generated_Source\PSoC4/CapSense_Processing.c ****     CapSense_dsRam.snsStatus[widgetId] = (CapSense_SNS_STS_TYPE)sensorStatus;
 754:Generated_Source\PSoC4/CapSense_Processing.c **** 
 755:Generated_Source\PSoC4/CapSense_Processing.c ****     /* The next two lines calculate index and bitmask of the widget status bit in the wdgtStatus ar
 756:Generated_Source\PSoC4/CapSense_Processing.c ****     wdStatusIndex = CapSense_GET_WDGT_STATUS_INDEX(widgetId);
 757:Generated_Source\PSoC4/CapSense_Processing.c ****     wdStatusMask = CapSense_GET_WDGT_STATUS_MASK(widgetId);
 758:Generated_Source\PSoC4/CapSense_Processing.c **** 
 759:Generated_Source\PSoC4/CapSense_Processing.c ****     /* Check if there are active sensors and update widget status accordingly */
 760:Generated_Source\PSoC4/CapSense_Processing.c ****     if (0u == sensorStatus)
 761:Generated_Source\PSoC4/CapSense_Processing.c ****     {
 762:Generated_Source\PSoC4/CapSense_Processing.c ****         CapSense_dsRam.wdgtStatus[wdStatusIndex] &= ~wdStatusMask;
 763:Generated_Source\PSoC4/CapSense_Processing.c ****     }
 764:Generated_Source\PSoC4/CapSense_Processing.c ****     else
 765:Generated_Source\PSoC4/CapSense_Processing.c ****     {
 766:Generated_Source\PSoC4/CapSense_Processing.c ****         CapSense_dsRam.wdgtStatus[wdStatusIndex] |= wdStatusMask;
 767:Generated_Source\PSoC4/CapSense_Processing.c ****     }
 768:Generated_Source\PSoC4/CapSense_Processing.c **** }
 769:Generated_Source\PSoC4/CapSense_Processing.c **** #endif /* #if CapSense_TOTAL_CSX_WIDGETS */
 770:Generated_Source\PSoC4/CapSense_Processing.c **** 
 771:Generated_Source\PSoC4/CapSense_Processing.c **** #if (0u != CapSense_TOTAL_ISX_WIDGETS)
 772:Generated_Source\PSoC4/CapSense_Processing.c **** /*******************************************************************************
 773:Generated_Source\PSoC4/CapSense_Processing.c **** * Function Name: CapSense_DpProcessIsxWidgetRawCounts
 774:Generated_Source\PSoC4/CapSense_Processing.c **** ****************************************************************************//**
 775:Generated_Source\PSoC4/CapSense_Processing.c **** *
 776:Generated_Source\PSoC4/CapSense_Processing.c **** * \brief
 777:Generated_Source\PSoC4/CapSense_Processing.c **** *  Performs default processing of the ISX raw counts.
 778:Generated_Source\PSoC4/CapSense_Processing.c **** *
 779:Generated_Source\PSoC4/CapSense_Processing.c **** * \details
 780:Generated_Source\PSoC4/CapSense_Processing.c **** *  Performs default processing of the ISX raw counts:
ARM GAS  C:\Users\MIHAILO\AppData\Local\Temp\ccp4p2Le.s 			page 17


 781:Generated_Source\PSoC4/CapSense_Processing.c **** *   - Run Filters
 782:Generated_Source\PSoC4/CapSense_Processing.c **** *   - Update Baselines
 783:Generated_Source\PSoC4/CapSense_Processing.c **** *   - Update Differences
 784:Generated_Source\PSoC4/CapSense_Processing.c **** *   - Update Status.
 785:Generated_Source\PSoC4/CapSense_Processing.c **** *  The same process is applied to all the sensors of the specified widget.
 786:Generated_Source\PSoC4/CapSense_Processing.c **** *
 787:Generated_Source\PSoC4/CapSense_Processing.c **** * \param ptrFlashWdgt The pointer to the Flash widget structure.
 788:Generated_Source\PSoC4/CapSense_Processing.c **** *
 789:Generated_Source\PSoC4/CapSense_Processing.c **** * \return
 790:Generated_Source\PSoC4/CapSense_Processing.c **** *  Returns the status of the specified widget processing operation:
 791:Generated_Source\PSoC4/CapSense_Processing.c **** *  - CYRET_SUCCESS if operation was successfully completed;
 792:Generated_Source\PSoC4/CapSense_Processing.c **** *  - CapSense_PROCESS_BASELINE_FAILED if baseline processing of any
 793:Generated_Source\PSoC4/CapSense_Processing.c **** *    sensor of the specified widget failed. The result is concatenated with the index
 794:Generated_Source\PSoC4/CapSense_Processing.c **** *    of failed sensor.
 795:Generated_Source\PSoC4/CapSense_Processing.c **** *
 796:Generated_Source\PSoC4/CapSense_Processing.c **** *******************************************************************************/
 797:Generated_Source\PSoC4/CapSense_Processing.c **** uint32 CapSense_DpProcessIsxWidgetRawCounts(CapSense_FLASH_WD_STRUCT const *ptrFlashWdgt)
 798:Generated_Source\PSoC4/CapSense_Processing.c **** {
 799:Generated_Source\PSoC4/CapSense_Processing.c ****     uint32 result = CYRET_SUCCESS;
 800:Generated_Source\PSoC4/CapSense_Processing.c ****     uint32 widgetType;
 801:Generated_Source\PSoC4/CapSense_Processing.c ****     uint32 snsCount;
 802:Generated_Source\PSoC4/CapSense_Processing.c ****     CapSense_RAM_SNS_STRUCT *ptrSns;
 803:Generated_Source\PSoC4/CapSense_Processing.c ****     CapSense_RAM_WD_BASE_STRUCT *ptrRamWdgt;
 804:Generated_Source\PSoC4/CapSense_Processing.c **** 
 805:Generated_Source\PSoC4/CapSense_Processing.c ****     #if (CapSense_ENABLE == CapSense_RC_FILTER_EN)
 806:Generated_Source\PSoC4/CapSense_Processing.c ****         CapSense_PTR_FILTER_VARIANT fltrHistV;
 807:Generated_Source\PSoC4/CapSense_Processing.c **** 
 808:Generated_Source\PSoC4/CapSense_Processing.c ****         fltrHistV.ptr = ptrFlashWdgt->ptr2FltrHistory;
 809:Generated_Source\PSoC4/CapSense_Processing.c ****     #endif /* #if (CapSense_ENABLE == CapSense_RC_FILTER_EN) */
 810:Generated_Source\PSoC4/CapSense_Processing.c **** 
 811:Generated_Source\PSoC4/CapSense_Processing.c ****     ptrSns = ptrFlashWdgt->ptr2SnsRam;
 812:Generated_Source\PSoC4/CapSense_Processing.c ****     snsCount = ptrFlashWdgt->totalNumSns;
 813:Generated_Source\PSoC4/CapSense_Processing.c ****     ptrRamWdgt = ptrFlashWdgt->ptr2WdgtRam;
 814:Generated_Source\PSoC4/CapSense_Processing.c ****     widgetType = ptrFlashWdgt->wdgtType;
 815:Generated_Source\PSoC4/CapSense_Processing.c **** 
 816:Generated_Source\PSoC4/CapSense_Processing.c ****     #if (0u != CapSense_ISX_SKIP_OVSMPL_SPECIFIC_NODES)
 817:Generated_Source\PSoC4/CapSense_Processing.c ****         if (0u != ptrSns->resolution)
 818:Generated_Source\PSoC4/CapSense_Processing.c ****     #endif
 819:Generated_Source\PSoC4/CapSense_Processing.c ****     {
 820:Generated_Source\PSoC4/CapSense_Processing.c ****         for(;snsCount-- > 0u;)
 821:Generated_Source\PSoC4/CapSense_Processing.c ****         {
 822:Generated_Source\PSoC4/CapSense_Processing.c ****             #if (CapSense_ENABLE == CapSense_RC_FILTER_EN)
 823:Generated_Source\PSoC4/CapSense_Processing.c ****                 CapSense_FtRunEnabledFiltersInternal(fltrHistV, ptrSns, widgetType);
 824:Generated_Source\PSoC4/CapSense_Processing.c ****             #endif /* #if (CapSense_ENABLE == CapSense_RC_FILTER_EN) */
 825:Generated_Source\PSoC4/CapSense_Processing.c **** 
 826:Generated_Source\PSoC4/CapSense_Processing.c ****             result = CapSense_FtUpdateBaseline(ptrRamWdgt, ptrSns, widgetType);
 827:Generated_Source\PSoC4/CapSense_Processing.c **** 
 828:Generated_Source\PSoC4/CapSense_Processing.c ****             #if (CapSense_ENABLE == CapSense_TST_BSLN_DUPLICATION_EN)
 829:Generated_Source\PSoC4/CapSense_Processing.c ****                 if (CYRET_SUCCESS != result)
 830:Generated_Source\PSoC4/CapSense_Processing.c ****                 {
 831:Generated_Source\PSoC4/CapSense_Processing.c ****                     result = CapSense_PROCESS_BASELINE_FAILED;
 832:Generated_Source\PSoC4/CapSense_Processing.c ****                 }
 833:Generated_Source\PSoC4/CapSense_Processing.c ****             #endif /* (CapSense_ENABLE == CapSense_TST_BSLN_DUPLICATION_EN) */
 834:Generated_Source\PSoC4/CapSense_Processing.c **** 
 835:Generated_Source\PSoC4/CapSense_Processing.c ****             CapSense_DpUpdateDifferences(ptrRamWdgt, ptrSns);
 836:Generated_Source\PSoC4/CapSense_Processing.c ****             ptrSns++;
 837:Generated_Source\PSoC4/CapSense_Processing.c **** 
ARM GAS  C:\Users\MIHAILO\AppData\Local\Temp\ccp4p2Le.s 			page 18


 838:Generated_Source\PSoC4/CapSense_Processing.c ****             #if (CapSense_ENABLE == CapSense_RC_FILTER_EN)
 839:Generated_Source\PSoC4/CapSense_Processing.c ****                 CapSense_INC_FLTR_OBJ_VARIANT(0u, fltrHistV);
 840:Generated_Source\PSoC4/CapSense_Processing.c ****             #endif /* #if (CapSense_ENABLE == CapSense_RC_FILTER_EN) */
 841:Generated_Source\PSoC4/CapSense_Processing.c ****         }
 842:Generated_Source\PSoC4/CapSense_Processing.c ****     }
 843:Generated_Source\PSoC4/CapSense_Processing.c **** 
 844:Generated_Source\PSoC4/CapSense_Processing.c ****     return result;
 845:Generated_Source\PSoC4/CapSense_Processing.c **** }
 846:Generated_Source\PSoC4/CapSense_Processing.c **** 
 847:Generated_Source\PSoC4/CapSense_Processing.c **** /*******************************************************************************
 848:Generated_Source\PSoC4/CapSense_Processing.c **** * Function Name: CapSense_DpProcessIsxSensorRawCountsExt
 849:Generated_Source\PSoC4/CapSense_Processing.c **** ****************************************************************************//**
 850:Generated_Source\PSoC4/CapSense_Processing.c **** *
 851:Generated_Source\PSoC4/CapSense_Processing.c **** * \brief
 852:Generated_Source\PSoC4/CapSense_Processing.c **** *   Performs customized processing of the ISX sensor raw counts.
 853:Generated_Source\PSoC4/CapSense_Processing.c **** *
 854:Generated_Source\PSoC4/CapSense_Processing.c **** * \details
 855:Generated_Source\PSoC4/CapSense_Processing.c **** *   Performs customized processing of the ISX sensor raw counts.
 856:Generated_Source\PSoC4/CapSense_Processing.c **** *
 857:Generated_Source\PSoC4/CapSense_Processing.c **** *   If all bits are set at once the default processing order will take place.
 858:Generated_Source\PSoC4/CapSense_Processing.c **** *   For the custom order this API can be called multiple times and execute one task at a time.
 859:Generated_Source\PSoC4/CapSense_Processing.c **** *
 860:Generated_Source\PSoC4/CapSense_Processing.c **** * \param ptrFlashWdgt The pointer to the Flash Widget Object.
 861:Generated_Source\PSoC4/CapSense_Processing.c **** * \param ptrSns       The pointer to the specific RAM Sensor Object.
 862:Generated_Source\PSoC4/CapSense_Processing.c **** * \param fltrHistV    The pointer to the Filter History Object in RAM associated with specific sens
 863:Generated_Source\PSoC4/CapSense_Processing.c **** * \param mode         The bit-mask with the data processing tasks to be executed.
 864:Generated_Source\PSoC4/CapSense_Processing.c **** *   The mode parameters can take the following values:
 865:Generated_Source\PSoC4/CapSense_Processing.c **** *    - CapSense_PROCESS_FILTER     (0x01) Run Firmware Filter
 866:Generated_Source\PSoC4/CapSense_Processing.c **** *    - CapSense_PROCESS_BASELINE   (0x02) Update Baselines
 867:Generated_Source\PSoC4/CapSense_Processing.c **** *    - CapSense_PROCESS_DIFFCOUNTS (0x04) Update Difference Counts
 868:Generated_Source\PSoC4/CapSense_Processing.c **** *    - CapSense_PROCESS_ALL               Execute all tasks
 869:Generated_Source\PSoC4/CapSense_Processing.c **** *
 870:Generated_Source\PSoC4/CapSense_Processing.c **** * \return
 871:Generated_Source\PSoC4/CapSense_Processing.c **** *  Returns the status of the specified sensor processing operation:
 872:Generated_Source\PSoC4/CapSense_Processing.c **** *  - CYRET_SUCCESS if operation was successfully completed;
 873:Generated_Source\PSoC4/CapSense_Processing.c **** *  - CapSense_PROCESS_BASELINE_FAILED if baseline processing of any
 874:Generated_Source\PSoC4/CapSense_Processing.c **** *    sensor of the specified widget failed. The result is concatenated with the index
 875:Generated_Source\PSoC4/CapSense_Processing.c **** *    of failed sensor.
 876:Generated_Source\PSoC4/CapSense_Processing.c **** *
 877:Generated_Source\PSoC4/CapSense_Processing.c **** *******************************************************************************/
 878:Generated_Source\PSoC4/CapSense_Processing.c **** uint32 CapSense_DpProcessIsxSensorRawCountsExt(
 879:Generated_Source\PSoC4/CapSense_Processing.c ****                 CapSense_FLASH_WD_STRUCT const *ptrFlashWdgt,
 880:Generated_Source\PSoC4/CapSense_Processing.c ****                 CapSense_RAM_SNS_STRUCT *ptrSns,
 881:Generated_Source\PSoC4/CapSense_Processing.c ****                 CapSense_PTR_FILTER_VARIANT fltrHistV,
 882:Generated_Source\PSoC4/CapSense_Processing.c ****                 uint32 mode)
 883:Generated_Source\PSoC4/CapSense_Processing.c **** {
 884:Generated_Source\PSoC4/CapSense_Processing.c ****     uint32  result = CYRET_SUCCESS;
 885:Generated_Source\PSoC4/CapSense_Processing.c ****     uint32  widgetType;
 886:Generated_Source\PSoC4/CapSense_Processing.c ****     CapSense_RAM_WD_BASE_STRUCT *ptrRamWdgt;
 887:Generated_Source\PSoC4/CapSense_Processing.c **** 
 888:Generated_Source\PSoC4/CapSense_Processing.c ****     widgetType = ptrFlashWdgt->wdgtType;
 889:Generated_Source\PSoC4/CapSense_Processing.c ****     ptrRamWdgt = ptrFlashWdgt->ptr2WdgtRam;
 890:Generated_Source\PSoC4/CapSense_Processing.c **** 
 891:Generated_Source\PSoC4/CapSense_Processing.c ****     #if (CapSense_ENABLE == CapSense_RC_FILTER_EN)
 892:Generated_Source\PSoC4/CapSense_Processing.c ****         if (0u != (mode & CapSense_PROCESS_FILTER))
 893:Generated_Source\PSoC4/CapSense_Processing.c ****         {
 894:Generated_Source\PSoC4/CapSense_Processing.c ****             CapSense_FtRunEnabledFiltersInternal(fltrHistV, ptrSns, widgetType);
ARM GAS  C:\Users\MIHAILO\AppData\Local\Temp\ccp4p2Le.s 			page 19


 895:Generated_Source\PSoC4/CapSense_Processing.c ****         }
 896:Generated_Source\PSoC4/CapSense_Processing.c ****     #else
 897:Generated_Source\PSoC4/CapSense_Processing.c ****         (void)fltrHistV; /* This parameter is unused in such configurations */
 898:Generated_Source\PSoC4/CapSense_Processing.c ****     #endif /* #if (CapSense_ENABLE == CapSense_RC_FILTER_EN) */
 899:Generated_Source\PSoC4/CapSense_Processing.c **** 
 900:Generated_Source\PSoC4/CapSense_Processing.c ****     if (0u != (mode & CapSense_PROCESS_BASELINE))
 901:Generated_Source\PSoC4/CapSense_Processing.c ****     {
 902:Generated_Source\PSoC4/CapSense_Processing.c ****         result = CapSense_FtUpdateBaseline(ptrRamWdgt, ptrSns, widgetType);
 903:Generated_Source\PSoC4/CapSense_Processing.c ****     }
 904:Generated_Source\PSoC4/CapSense_Processing.c **** 
 905:Generated_Source\PSoC4/CapSense_Processing.c ****     if (0u != (mode & CapSense_PROCESS_DIFFCOUNTS))
 906:Generated_Source\PSoC4/CapSense_Processing.c ****     {
 907:Generated_Source\PSoC4/CapSense_Processing.c ****         CapSense_DpUpdateDifferences(ptrRamWdgt, ptrSns);
 908:Generated_Source\PSoC4/CapSense_Processing.c ****     }
 909:Generated_Source\PSoC4/CapSense_Processing.c ****     return result;
 910:Generated_Source\PSoC4/CapSense_Processing.c **** }
 911:Generated_Source\PSoC4/CapSense_Processing.c **** 
 912:Generated_Source\PSoC4/CapSense_Processing.c **** 
 913:Generated_Source\PSoC4/CapSense_Processing.c **** /*******************************************************************************
 914:Generated_Source\PSoC4/CapSense_Processing.c **** * Function Name: CapSense_DpProcessIsxWidgetStatus
 915:Generated_Source\PSoC4/CapSense_Processing.c **** ****************************************************************************//**
 916:Generated_Source\PSoC4/CapSense_Processing.c **** *
 917:Generated_Source\PSoC4/CapSense_Processing.c **** * \brief
 918:Generated_Source\PSoC4/CapSense_Processing.c **** *   Updates the status of the ISX widget in the Data Structure.
 919:Generated_Source\PSoC4/CapSense_Processing.c **** *
 920:Generated_Source\PSoC4/CapSense_Processing.c **** * \details
 921:Generated_Source\PSoC4/CapSense_Processing.c **** *  This API determines the type of widget and runs the appropriate function
 922:Generated_Source\PSoC4/CapSense_Processing.c **** *  that implements the status update algorithm for this type of widget.
 923:Generated_Source\PSoC4/CapSense_Processing.c **** *
 924:Generated_Source\PSoC4/CapSense_Processing.c **** *  When the widget-specific processing completes this API updates the snsStatus
 925:Generated_Source\PSoC4/CapSense_Processing.c **** *  and wdgtStatus registers in the data structure. The wdgtStatus register
 926:Generated_Source\PSoC4/CapSense_Processing.c **** *  is a bitmask were each bit corresponds to the specific widget identified by
 927:Generated_Source\PSoC4/CapSense_Processing.c **** *  the widget index. When the bit is set the widget is active (touched);
 928:Generated_Source\PSoC4/CapSense_Processing.c **** *
 929:Generated_Source\PSoC4/CapSense_Processing.c **** *  Depending on the type of widget the snsStatus register may contain either
 930:Generated_Source\PSoC4/CapSense_Processing.c **** *  status of each widget node (active/non-active) or in case of the ISX Touchpad
 931:Generated_Source\PSoC4/CapSense_Processing.c **** *  is contains the number of touches. In both cases 0 means that widget is not
 932:Generated_Source\PSoC4/CapSense_Processing.c **** *  active.
 933:Generated_Source\PSoC4/CapSense_Processing.c **** *
 934:Generated_Source\PSoC4/CapSense_Processing.c **** * \param wdgtId       The widget index number.
 935:Generated_Source\PSoC4/CapSense_Processing.c **** * \param ptrFlashWdgt The pointer to the Flash Widget Object.
 936:Generated_Source\PSoC4/CapSense_Processing.c **** *
 937:Generated_Source\PSoC4/CapSense_Processing.c **** *******************************************************************************/
 938:Generated_Source\PSoC4/CapSense_Processing.c **** void CapSense_DpProcessIsxWidgetStatus(uint32 wdgtId, CapSense_FLASH_WD_STRUCT const *ptrFlashWdgt)
 939:Generated_Source\PSoC4/CapSense_Processing.c **** {
 940:Generated_Source\PSoC4/CapSense_Processing.c ****     uint32 sensorStatus;
 941:Generated_Source\PSoC4/CapSense_Processing.c ****     uint32 wdStatusIndex;
 942:Generated_Source\PSoC4/CapSense_Processing.c ****     uint32 wdStatusMask;
 943:Generated_Source\PSoC4/CapSense_Processing.c ****     CapSense_WD_TYPE_ENUM widgetType;
 944:Generated_Source\PSoC4/CapSense_Processing.c **** 
 945:Generated_Source\PSoC4/CapSense_Processing.c ****     widgetType = (CapSense_WD_TYPE_ENUM)ptrFlashWdgt->wdgtType;
 946:Generated_Source\PSoC4/CapSense_Processing.c ****     sensorStatus = CapSense_dsRam.snsStatus[wdgtId];
 947:Generated_Source\PSoC4/CapSense_Processing.c **** 
 948:Generated_Source\PSoC4/CapSense_Processing.c ****     switch (widgetType)
 949:Generated_Source\PSoC4/CapSense_Processing.c ****     {
 950:Generated_Source\PSoC4/CapSense_Processing.c ****     #if (0u != CapSense_PROXIMITY_WIDGET_EN)
 951:Generated_Source\PSoC4/CapSense_Processing.c ****         case CapSense_WD_PROXIMITY_E:
ARM GAS  C:\Users\MIHAILO\AppData\Local\Temp\ccp4p2Le.s 			page 20


 952:Generated_Source\PSoC4/CapSense_Processing.c ****             sensorStatus = CapSense_DpProcessProximity(sensorStatus, ptrFlashWdgt);
 953:Generated_Source\PSoC4/CapSense_Processing.c ****             break;
 954:Generated_Source\PSoC4/CapSense_Processing.c ****     #endif /* #if (0u != CapSense_Proximity_WIDGET_EN) */
 955:Generated_Source\PSoC4/CapSense_Processing.c ****     #if (0u != CapSense_ENCODERDIAL_WIDGET_EN)
 956:Generated_Source\PSoC4/CapSense_Processing.c ****         case CapSense_WD_ENCODERDIAL_E:
 957:Generated_Source\PSoC4/CapSense_Processing.c ****             sensorStatus = CapSense_DpProcessEncoderDial(sensorStatus, ptrFlashWdgt);
 958:Generated_Source\PSoC4/CapSense_Processing.c ****             break;
 959:Generated_Source\PSoC4/CapSense_Processing.c ****     #endif /* #if (0u != CapSense_Proximity_WIDGET_EN) */
 960:Generated_Source\PSoC4/CapSense_Processing.c ****     #if (0u != CapSense_BUTTON_WIDGET_EN)
 961:Generated_Source\PSoC4/CapSense_Processing.c ****         case CapSense_WD_BUTTON_E:
 962:Generated_Source\PSoC4/CapSense_Processing.c ****             sensorStatus = CapSense_DpProcessButton(sensorStatus, ptrFlashWdgt);
 963:Generated_Source\PSoC4/CapSense_Processing.c ****             break;
 964:Generated_Source\PSoC4/CapSense_Processing.c ****     #endif /* #if (0u != CapSense_Proximity_WIDGET_EN) */
 965:Generated_Source\PSoC4/CapSense_Processing.c **** 
 966:Generated_Source\PSoC4/CapSense_Processing.c ****     default:
 967:Generated_Source\PSoC4/CapSense_Processing.c ****         CYASSERT(0u);
 968:Generated_Source\PSoC4/CapSense_Processing.c ****         break;
 969:Generated_Source\PSoC4/CapSense_Processing.c ****     }
 970:Generated_Source\PSoC4/CapSense_Processing.c **** 
 971:Generated_Source\PSoC4/CapSense_Processing.c ****     /* Update sensor status in the data structure */
 972:Generated_Source\PSoC4/CapSense_Processing.c ****     CapSense_dsRam.snsStatus[wdgtId] = (CapSense_SNS_STS_TYPE)sensorStatus;
 973:Generated_Source\PSoC4/CapSense_Processing.c **** 
 974:Generated_Source\PSoC4/CapSense_Processing.c ****     /* The next two lines calculate index and bitmask of the widget status bit in the wdgtStatus ar
 975:Generated_Source\PSoC4/CapSense_Processing.c ****     wdStatusIndex = CapSense_GET_WDGT_STATUS_INDEX(wdgtId);
 976:Generated_Source\PSoC4/CapSense_Processing.c ****     wdStatusMask = CapSense_GET_WDGT_STATUS_MASK(wdgtId);
 977:Generated_Source\PSoC4/CapSense_Processing.c **** 
 978:Generated_Source\PSoC4/CapSense_Processing.c ****     /* Check if there are active sensors and update widget status accordingly */
 979:Generated_Source\PSoC4/CapSense_Processing.c ****     if (0u == sensorStatus)
 980:Generated_Source\PSoC4/CapSense_Processing.c ****     {
 981:Generated_Source\PSoC4/CapSense_Processing.c ****         CapSense_dsRam.wdgtStatus[wdStatusIndex] &= ~wdStatusMask;
 982:Generated_Source\PSoC4/CapSense_Processing.c ****     }
 983:Generated_Source\PSoC4/CapSense_Processing.c ****     else
 984:Generated_Source\PSoC4/CapSense_Processing.c ****     {
 985:Generated_Source\PSoC4/CapSense_Processing.c ****         CapSense_dsRam.wdgtStatus[wdStatusIndex] |= wdStatusMask;
 986:Generated_Source\PSoC4/CapSense_Processing.c ****     }
 987:Generated_Source\PSoC4/CapSense_Processing.c **** }
 988:Generated_Source\PSoC4/CapSense_Processing.c **** #endif /* #if CapSense_TOTAL_ISX_WIDGETS */
 989:Generated_Source\PSoC4/CapSense_Processing.c **** 
 990:Generated_Source\PSoC4/CapSense_Processing.c **** #if (0u != CapSense_TOTAL_CSD_WIDGETS)
 991:Generated_Source\PSoC4/CapSense_Processing.c **** /*******************************************************************************
 992:Generated_Source\PSoC4/CapSense_Processing.c **** * Function Name: CapSense_DpProcessCsdWidgetRawCounts
 993:Generated_Source\PSoC4/CapSense_Processing.c **** ****************************************************************************//**
 994:Generated_Source\PSoC4/CapSense_Processing.c **** *
 995:Generated_Source\PSoC4/CapSense_Processing.c **** * \brief
 996:Generated_Source\PSoC4/CapSense_Processing.c **** *   Performs default processing for the CSD widget raw counts.
 997:Generated_Source\PSoC4/CapSense_Processing.c **** *
 998:Generated_Source\PSoC4/CapSense_Processing.c **** * \details
 999:Generated_Source\PSoC4/CapSense_Processing.c **** *   Performs default processing for the CSD widget raw counts:
1000:Generated_Source\PSoC4/CapSense_Processing.c **** *    - Run Filters
1001:Generated_Source\PSoC4/CapSense_Processing.c **** *    - Update Thresholds (FW Auto-tuning)
1002:Generated_Source\PSoC4/CapSense_Processing.c **** *    - Update Baselines
1003:Generated_Source\PSoC4/CapSense_Processing.c **** *    - Update Differences.
1004:Generated_Source\PSoC4/CapSense_Processing.c **** *   The process is applied to all widget's sensors.
1005:Generated_Source\PSoC4/CapSense_Processing.c **** *
1006:Generated_Source\PSoC4/CapSense_Processing.c **** * \param ptrFlashWdgt The pointer to the Flash Widget Object.
1007:Generated_Source\PSoC4/CapSense_Processing.c **** *
1008:Generated_Source\PSoC4/CapSense_Processing.c **** * \return
ARM GAS  C:\Users\MIHAILO\AppData\Local\Temp\ccp4p2Le.s 			page 21


1009:Generated_Source\PSoC4/CapSense_Processing.c **** *  Returns the status of the specified widget processing operation:
1010:Generated_Source\PSoC4/CapSense_Processing.c **** *  - CYRET_SUCCESS if operation was successfully completed;
1011:Generated_Source\PSoC4/CapSense_Processing.c **** *  - CapSense_PROCESS_BASELINE_FAILED if baseline processing of any
1012:Generated_Source\PSoC4/CapSense_Processing.c **** *    sensor of the specified widget failed. The result is concatenated with the index
1013:Generated_Source\PSoC4/CapSense_Processing.c **** *    of failed sensor.
1014:Generated_Source\PSoC4/CapSense_Processing.c **** *
1015:Generated_Source\PSoC4/CapSense_Processing.c **** *******************************************************************************/
1016:Generated_Source\PSoC4/CapSense_Processing.c **** uint32 CapSense_DpProcessCsdWidgetRawCounts(CapSense_FLASH_WD_STRUCT const *ptrFlashWdgt)
1017:Generated_Source\PSoC4/CapSense_Processing.c **** {
1018:Generated_Source\PSoC4/CapSense_Processing.c ****     uint32  result = CYRET_SUCCESS;
1019:Generated_Source\PSoC4/CapSense_Processing.c **** 
1020:Generated_Source\PSoC4/CapSense_Processing.c ****     #if (CapSense_ENABLE == CapSense_TST_BSLN_DUPLICATION_EN)
1021:Generated_Source\PSoC4/CapSense_Processing.c ****         uint32 bslnTstResult = CYRET_SUCCESS;
1022:Generated_Source\PSoC4/CapSense_Processing.c ****     #endif /* (CapSense_ENABLE == CapSense_TST_BSLN_DUPLICATION_EN) */
1023:Generated_Source\PSoC4/CapSense_Processing.c **** 
1024:Generated_Source\PSoC4/CapSense_Processing.c ****     uint32  widgetType;
1025:Generated_Source\PSoC4/CapSense_Processing.c ****     uint32  snsId;
1026:Generated_Source\PSoC4/CapSense_Processing.c ****     CapSense_RAM_SNS_STRUCT *ptrSnsTmp;
1027:Generated_Source\PSoC4/CapSense_Processing.c ****     CapSense_RAM_WD_BASE_STRUCT *ptrRamWdgt;
1028:Generated_Source\PSoC4/CapSense_Processing.c **** 
1029:Generated_Source\PSoC4/CapSense_Processing.c ****     #if (0u != (CapSense_CSD_AUTOTUNE & CapSense_CSD_SS_TH_EN))
1030:Generated_Source\PSoC4/CapSense_Processing.c ****         /* The noise envelope data is available only when Full CSD Auto-Tuning is enabled */
1031:Generated_Source\PSoC4/CapSense_Processing.c ****         SMARTSENSE_CSD_NOISE_ENVELOPE_STRUCT *ptrNoiseEnvelope;
1032:Generated_Source\PSoC4/CapSense_Processing.c ****         #if (CapSense_ENABLE == CapSense_PROXIMITY_WIDGET_EN)
1033:Generated_Source\PSoC4/CapSense_Processing.c ****             uint32  proximityThreshold;
1034:Generated_Source\PSoC4/CapSense_Processing.c ****         #endif /* (0 != CapSense_PROXIMITY_WIDGET_EN) */
1035:Generated_Source\PSoC4/CapSense_Processing.c ****     #endif /* #if (0u != (CapSense_CSD_AUTOTUNE & CapSense_CSD_SS_TH_EN)) */
1036:Generated_Source\PSoC4/CapSense_Processing.c **** 
1037:Generated_Source\PSoC4/CapSense_Processing.c ****     #if (CapSense_ENABLE == CapSense_RC_FILTER_EN)
1038:Generated_Source\PSoC4/CapSense_Processing.c ****         CapSense_PTR_FILTER_VARIANT fltrHistV;
1039:Generated_Source\PSoC4/CapSense_Processing.c **** 
1040:Generated_Source\PSoC4/CapSense_Processing.c ****         /* Determine if widget type is proximity */
1041:Generated_Source\PSoC4/CapSense_Processing.c ****         uint32 isProxWdgt = (CapSense_GET_WIDGET_TYPE(ptrFlashWdgt) == CapSense_WD_PROXIMITY_E) ? 1
1042:Generated_Source\PSoC4/CapSense_Processing.c **** 
1043:Generated_Source\PSoC4/CapSense_Processing.c ****         /* Get pointer to the filter history object */
1044:Generated_Source\PSoC4/CapSense_Processing.c ****         fltrHistV.ptr = ptrFlashWdgt->ptr2FltrHistory;
1045:Generated_Source\PSoC4/CapSense_Processing.c ****     #endif /* #if (CapSense_ENABLE == CapSense_RC_FILTER_EN) */
1046:Generated_Source\PSoC4/CapSense_Processing.c **** 
1047:Generated_Source\PSoC4/CapSense_Processing.c ****     ptrSnsTmp = ptrFlashWdgt->ptr2SnsRam;
1048:Generated_Source\PSoC4/CapSense_Processing.c ****     ptrRamWdgt = (CapSense_RAM_WD_BASE_STRUCT *)ptrFlashWdgt->ptr2WdgtRam;
1049:Generated_Source\PSoC4/CapSense_Processing.c ****     widgetType = ptrFlashWdgt->wdgtType;
1050:Generated_Source\PSoC4/CapSense_Processing.c **** 
1051:Generated_Source\PSoC4/CapSense_Processing.c ****     #if (0u != (CapSense_CSD_AUTOTUNE & CapSense_CSD_SS_TH_EN))
1052:Generated_Source\PSoC4/CapSense_Processing.c ****         ptrNoiseEnvelope = ptrFlashWdgt->ptr2NoiseEnvlp;
1053:Generated_Source\PSoC4/CapSense_Processing.c ****     #endif /* #if (0u != (CapSense_CSD_AUTOTUNE & CapSense_CSD_SS_TH_EN)) */
1054:Generated_Source\PSoC4/CapSense_Processing.c **** 
1055:Generated_Source\PSoC4/CapSense_Processing.c ****     /* Iterate through all widget's sensors */
1056:Generated_Source\PSoC4/CapSense_Processing.c ****     for(snsId = 0u; snsId < ptrFlashWdgt->totalNumSns; snsId++)
1057:Generated_Source\PSoC4/CapSense_Processing.c ****     {
1058:Generated_Source\PSoC4/CapSense_Processing.c ****         /* Run all enabled filter on specified widget's sensor */
1059:Generated_Source\PSoC4/CapSense_Processing.c ****         #if (CapSense_ENABLE == CapSense_RC_FILTER_EN)
1060:Generated_Source\PSoC4/CapSense_Processing.c ****             CapSense_FtRunEnabledFiltersInternal(fltrHistV, ptrSnsTmp, widgetType);
1061:Generated_Source\PSoC4/CapSense_Processing.c ****             #if (CapSense_ALP_FILTER_EN)
1062:Generated_Source\PSoC4/CapSense_Processing.c ****                 CapSense_ConfigRunALPInternal(fltrHistV, ptrRamWdgt, ptrSnsTmp, widgetType);
1063:Generated_Source\PSoC4/CapSense_Processing.c ****             #endif
1064:Generated_Source\PSoC4/CapSense_Processing.c ****         #endif /* #if (CapSense_ENABLE == CapSense_RC_FILTER_EN) */
1065:Generated_Source\PSoC4/CapSense_Processing.c **** 
ARM GAS  C:\Users\MIHAILO\AppData\Local\Temp\ccp4p2Le.s 			page 22


1066:Generated_Source\PSoC4/CapSense_Processing.c ****         /* Run auto-tuning activities */
1067:Generated_Source\PSoC4/CapSense_Processing.c ****         #if (0u != (CapSense_CSD_AUTOTUNE & CapSense_CSD_SS_TH_EN))
1068:Generated_Source\PSoC4/CapSense_Processing.c ****             SmartSense_RunNoiseEnvelope(ptrSnsTmp->raw[0u], ptrRamWdgt->sigPFC, ptrNoiseEnvelope);
1069:Generated_Source\PSoC4/CapSense_Processing.c ****             CapSense_DpUpdateThresholds(ptrRamWdgt, ptrNoiseEnvelope, snsId);
1070:Generated_Source\PSoC4/CapSense_Processing.c **** 
1071:Generated_Source\PSoC4/CapSense_Processing.c ****             /* Calculate Proximity Touch Threshold in SmartSense mode based on Finger Threshold and
1072:Generated_Source\PSoC4/CapSense_Processing.c ****             #if (CapSense_ENABLE == CapSense_PROXIMITY_WIDGET_EN)
1073:Generated_Source\PSoC4/CapSense_Processing.c ****                 if (CapSense_WD_PROXIMITY_E == CapSense_GET_WIDGET_TYPE(ptrFlashWdgt))
1074:Generated_Source\PSoC4/CapSense_Processing.c ****                 {
1075:Generated_Source\PSoC4/CapSense_Processing.c ****                     proximityThreshold = ((uint32)ptrRamWdgt->fingerTh * CapSense_PROX_TOUCH_COEFF)
1076:Generated_Source\PSoC4/CapSense_Processing.c ****                     if ((((1Lu) << CapSense_THRESHOLD_SIZE) - 1u) < proximityThreshold)
1077:Generated_Source\PSoC4/CapSense_Processing.c ****                     {
1078:Generated_Source\PSoC4/CapSense_Processing.c ****                         proximityThreshold = ((1Lu) << CapSense_THRESHOLD_SIZE) - 1u;
1079:Generated_Source\PSoC4/CapSense_Processing.c ****                     }
1080:Generated_Source\PSoC4/CapSense_Processing.c ****                     ((CapSense_RAM_WD_PROXIMITY_STRUCT *)ptrFlashWdgt->ptr2WdgtRam)->proxTouchTh =
1081:Generated_Source\PSoC4/CapSense_Processing.c ****                         (CapSense_THRESHOLD_TYPE)proximityThreshold;
1082:Generated_Source\PSoC4/CapSense_Processing.c ****                 }
1083:Generated_Source\PSoC4/CapSense_Processing.c ****             #endif /* (0 != CapSense_PROXIMITY_WIDGET_EN) */
1084:Generated_Source\PSoC4/CapSense_Processing.c **** 
1085:Generated_Source\PSoC4/CapSense_Processing.c ****             /* Move to next noise-envelope object */
1086:Generated_Source\PSoC4/CapSense_Processing.c ****             ptrNoiseEnvelope++;
1087:Generated_Source\PSoC4/CapSense_Processing.c ****         #endif /* (0u != (CapSense_CSD_AUTOTUNE & CapSense_CSD_SS_TH_EN)) */
1088:Generated_Source\PSoC4/CapSense_Processing.c **** 
1089:Generated_Source\PSoC4/CapSense_Processing.c ****         #if (CapSense_ENABLE == CapSense_TST_BSLN_DUPLICATION_EN)
1090:Generated_Source\PSoC4/CapSense_Processing.c ****             bslnTstResult = CapSense_FtUpdateBaseline(ptrRamWdgt, ptrSnsTmp, widgetType);
1091:Generated_Source\PSoC4/CapSense_Processing.c ****             if ((CYRET_SUCCESS != bslnTstResult) && (CYRET_SUCCESS == result))
1092:Generated_Source\PSoC4/CapSense_Processing.c ****             {
1093:Generated_Source\PSoC4/CapSense_Processing.c ****                 result = snsId | CapSense_PROCESS_BASELINE_FAILED;
1094:Generated_Source\PSoC4/CapSense_Processing.c ****             }
1095:Generated_Source\PSoC4/CapSense_Processing.c ****         #else /* (CapSense_ENABLE == CapSense_TST_BSLN_DUPLICATION_EN) */
1096:Generated_Source\PSoC4/CapSense_Processing.c ****             result = CapSense_FtUpdateBaseline(ptrRamWdgt, ptrSnsTmp, widgetType);
1097:Generated_Source\PSoC4/CapSense_Processing.c ****         #endif /* (CapSense_ENABLE == CapSense_TST_BSLN_DUPLICATION_EN) */
1098:Generated_Source\PSoC4/CapSense_Processing.c **** 
1099:Generated_Source\PSoC4/CapSense_Processing.c ****         CapSense_DpUpdateDifferences(ptrRamWdgt, ptrSnsTmp);
1100:Generated_Source\PSoC4/CapSense_Processing.c **** 
1101:Generated_Source\PSoC4/CapSense_Processing.c ****         /* Move to next sensor object */
1102:Generated_Source\PSoC4/CapSense_Processing.c ****         ptrSnsTmp++;
1103:Generated_Source\PSoC4/CapSense_Processing.c **** 
1104:Generated_Source\PSoC4/CapSense_Processing.c ****         #if (CapSense_ENABLE == CapSense_RC_FILTER_EN)
1105:Generated_Source\PSoC4/CapSense_Processing.c ****             /* Move to the next filter history object */
1106:Generated_Source\PSoC4/CapSense_Processing.c ****             CapSense_INC_FLTR_OBJ_VARIANT(isProxWdgt, fltrHistV);
1107:Generated_Source\PSoC4/CapSense_Processing.c ****         #endif /* #if (CapSense_ENABLE == CapSense_RC_FILTER_EN) */
1108:Generated_Source\PSoC4/CapSense_Processing.c ****     }
1109:Generated_Source\PSoC4/CapSense_Processing.c ****     return result;
1110:Generated_Source\PSoC4/CapSense_Processing.c **** }
1111:Generated_Source\PSoC4/CapSense_Processing.c **** 
1112:Generated_Source\PSoC4/CapSense_Processing.c **** 
1113:Generated_Source\PSoC4/CapSense_Processing.c **** /*******************************************************************************
1114:Generated_Source\PSoC4/CapSense_Processing.c **** * Function Name: CapSense_DpProcessCsdSensorRawCountsExt
1115:Generated_Source\PSoC4/CapSense_Processing.c **** ****************************************************************************//**
1116:Generated_Source\PSoC4/CapSense_Processing.c **** *
1117:Generated_Source\PSoC4/CapSense_Processing.c **** * \brief
1118:Generated_Source\PSoC4/CapSense_Processing.c **** *   Performs customized processing of the CSD sensor raw counts.
1119:Generated_Source\PSoC4/CapSense_Processing.c **** *
1120:Generated_Source\PSoC4/CapSense_Processing.c **** * \details
1121:Generated_Source\PSoC4/CapSense_Processing.c **** *   Performs customized processing of the CSD sensor raw counts.
1122:Generated_Source\PSoC4/CapSense_Processing.c **** *
ARM GAS  C:\Users\MIHAILO\AppData\Local\Temp\ccp4p2Le.s 			page 23


1123:Generated_Source\PSoC4/CapSense_Processing.c **** *   Note that this API updates data associated only with the sensor. It cannot be used to update
1124:Generated_Source\PSoC4/CapSense_Processing.c **** *   widget status.
1125:Generated_Source\PSoC4/CapSense_Processing.c **** *
1126:Generated_Source\PSoC4/CapSense_Processing.c **** * \param ptrFlashWdgt The pointer to the Flash widget structure.
1127:Generated_Source\PSoC4/CapSense_Processing.c **** * \param curSnsPtr    The pointer to the sensor object in RAM.
1128:Generated_Source\PSoC4/CapSense_Processing.c **** * \param fltrHistV    The pointer to the Filter History Object in RAM.
1129:Generated_Source\PSoC4/CapSense_Processing.c **** * \param mode         The bit-mask with the data processing tasks to be executed.
1130:Generated_Source\PSoC4/CapSense_Processing.c **** *   The mode parameters can take the following values:
1131:Generated_Source\PSoC4/CapSense_Processing.c **** *    - CapSense_PROCESS_FILTER     (0x01) Run Firmware Filter
1132:Generated_Source\PSoC4/CapSense_Processing.c **** *    - CapSense_PROCESS_BASELINE   (0x02) Update Baselines
1133:Generated_Source\PSoC4/CapSense_Processing.c **** *    - CapSense_PROCESS_DIFFCOUNTS (0x04) Update Difference Counts
1134:Generated_Source\PSoC4/CapSense_Processing.c **** *    - CapSense_PROCESS_CALC_NOISE (0x08) Calculate Noise (only if FW Tuning is enabled)
1135:Generated_Source\PSoC4/CapSense_Processing.c **** *    - CapSense_PROCESS_THRESHOLDS (0x10) Update Thresholds (only if FW Tuning is enabled)
1136:Generated_Source\PSoC4/CapSense_Processing.c **** *    - CapSense_PROCESS_ALL               Execute all tasks
1137:Generated_Source\PSoC4/CapSense_Processing.c **** *
1138:Generated_Source\PSoC4/CapSense_Processing.c **** * \return
1139:Generated_Source\PSoC4/CapSense_Processing.c **** *  Returns the status of the specified sensor processing operation:
1140:Generated_Source\PSoC4/CapSense_Processing.c **** *  - CYRET_SUCCESS if operation was successfully completed.
1141:Generated_Source\PSoC4/CapSense_Processing.c **** *  - CapSense_PROCESS_BASELINE_FAILED if baseline processing of any
1142:Generated_Source\PSoC4/CapSense_Processing.c **** *    sensor of the specified widget failed. The result is concatenated with the index
1143:Generated_Source\PSoC4/CapSense_Processing.c **** *    of failed sensor.
1144:Generated_Source\PSoC4/CapSense_Processing.c **** *
1145:Generated_Source\PSoC4/CapSense_Processing.c **** *******************************************************************************/
1146:Generated_Source\PSoC4/CapSense_Processing.c **** uint32 CapSense_DpProcessCsdSensorRawCountsExt(
1147:Generated_Source\PSoC4/CapSense_Processing.c ****                 CapSense_FLASH_WD_STRUCT const *ptrFlashWdgt,
1148:Generated_Source\PSoC4/CapSense_Processing.c ****                 CapSense_RAM_SNS_STRUCT *curSnsPtr,
1149:Generated_Source\PSoC4/CapSense_Processing.c ****                 CapSense_PTR_FILTER_VARIANT fltrHistV,
1150:Generated_Source\PSoC4/CapSense_Processing.c ****                  uint32 mode)
1151:Generated_Source\PSoC4/CapSense_Processing.c **** {
1152:Generated_Source\PSoC4/CapSense_Processing.c ****     uint32 result = CYRET_SUCCESS;
1153:Generated_Source\PSoC4/CapSense_Processing.c ****     uint32  widgetType;
1154:Generated_Source\PSoC4/CapSense_Processing.c ****     CapSense_RAM_WD_BASE_STRUCT *ptrRamWdgt;
1155:Generated_Source\PSoC4/CapSense_Processing.c **** 
1156:Generated_Source\PSoC4/CapSense_Processing.c ****     #if (0u != (CapSense_CSD_AUTOTUNE & CapSense_CSD_SS_TH_EN))
1157:Generated_Source\PSoC4/CapSense_Processing.c ****         SMARTSENSE_CSD_NOISE_ENVELOPE_STRUCT *ptrNoiseEnvelope;
1158:Generated_Source\PSoC4/CapSense_Processing.c ****         #if (CapSense_ENABLE == CapSense_PROXIMITY_WIDGET_EN)
1159:Generated_Source\PSoC4/CapSense_Processing.c ****             uint32  proximityThreshold;
1160:Generated_Source\PSoC4/CapSense_Processing.c ****         #endif /* (0 != CapSense_PROXIMITY_WIDGET_EN) */
1161:Generated_Source\PSoC4/CapSense_Processing.c **** 
1162:Generated_Source\PSoC4/CapSense_Processing.c ****         /* Need to specify pointer to corresponding sensor's noise-envelope object.*/
1163:Generated_Source\PSoC4/CapSense_Processing.c ****         ptrNoiseEnvelope = ptrFlashWdgt->ptr2NoiseEnvlp;
1164:Generated_Source\PSoC4/CapSense_Processing.c ****     #endif /* (0u != (CapSense_CSD_AUTOTUNE & CapSense_CSD_SS_TH_EN)) */
1165:Generated_Source\PSoC4/CapSense_Processing.c **** 
1166:Generated_Source\PSoC4/CapSense_Processing.c ****     widgetType = ptrFlashWdgt->wdgtType;
1167:Generated_Source\PSoC4/CapSense_Processing.c ****     ptrRamWdgt = (CapSense_RAM_WD_BASE_STRUCT *)ptrFlashWdgt->ptr2WdgtRam;
1168:Generated_Source\PSoC4/CapSense_Processing.c **** 
1169:Generated_Source\PSoC4/CapSense_Processing.c ****     #if (CapSense_ENABLE == CapSense_RC_FILTER_EN)
1170:Generated_Source\PSoC4/CapSense_Processing.c ****         if (0u != (mode & CapSense_PROCESS_FILTER))
1171:Generated_Source\PSoC4/CapSense_Processing.c ****         {
1172:Generated_Source\PSoC4/CapSense_Processing.c ****             CapSense_FtRunEnabledFiltersInternal(fltrHistV, curSnsPtr, widgetType);
1173:Generated_Source\PSoC4/CapSense_Processing.c ****             #if (CapSense_ALP_FILTER_EN)
1174:Generated_Source\PSoC4/CapSense_Processing.c ****                 CapSense_ConfigRunALPInternal(fltrHistV, ptrRamWdgt, curSnsPtr, widgetType);
1175:Generated_Source\PSoC4/CapSense_Processing.c ****             #endif
1176:Generated_Source\PSoC4/CapSense_Processing.c ****         }
1177:Generated_Source\PSoC4/CapSense_Processing.c ****     #else
1178:Generated_Source\PSoC4/CapSense_Processing.c ****         (void)fltrHistV; /* This parameter is unused in such configurations */
1179:Generated_Source\PSoC4/CapSense_Processing.c ****     #endif /* #if (CapSense_ENABLE == CapSense_RC_FILTER_EN) */
ARM GAS  C:\Users\MIHAILO\AppData\Local\Temp\ccp4p2Le.s 			page 24


1180:Generated_Source\PSoC4/CapSense_Processing.c **** 
1181:Generated_Source\PSoC4/CapSense_Processing.c ****     #if (0u != (CapSense_CSD_AUTOTUNE & CapSense_CSD_SS_TH_EN))
1182:Generated_Source\PSoC4/CapSense_Processing.c ****         if (0u != (mode & CapSense_PROCESS_CALC_NOISE))
1183:Generated_Source\PSoC4/CapSense_Processing.c ****         {
1184:Generated_Source\PSoC4/CapSense_Processing.c ****             SmartSense_RunNoiseEnvelope(curSnsPtr->raw[0u], ptrRamWdgt->sigPFC, ptrNoiseEnvelope);
1185:Generated_Source\PSoC4/CapSense_Processing.c ****         }
1186:Generated_Source\PSoC4/CapSense_Processing.c **** 
1187:Generated_Source\PSoC4/CapSense_Processing.c ****         if (0u != (mode & CapSense_PROCESS_THRESHOLDS))
1188:Generated_Source\PSoC4/CapSense_Processing.c ****         {
1189:Generated_Source\PSoC4/CapSense_Processing.c ****             CapSense_DpUpdateThresholds(ptrRamWdgt, ptrNoiseEnvelope, 0u);
1190:Generated_Source\PSoC4/CapSense_Processing.c **** 
1191:Generated_Source\PSoC4/CapSense_Processing.c ****             /* Calculate Proximity Touch Threshold in SmartSense mode based on Finger Threshold and
1192:Generated_Source\PSoC4/CapSense_Processing.c ****             #if (CapSense_ENABLE == CapSense_PROXIMITY_WIDGET_EN)
1193:Generated_Source\PSoC4/CapSense_Processing.c ****                 if (CapSense_WD_PROXIMITY_E == CapSense_GET_WIDGET_TYPE(ptrFlashWdgt))
1194:Generated_Source\PSoC4/CapSense_Processing.c ****                 {
1195:Generated_Source\PSoC4/CapSense_Processing.c ****                     proximityThreshold = ((uint32)ptrRamWdgt->fingerTh * CapSense_PROX_TOUCH_COEFF)
1196:Generated_Source\PSoC4/CapSense_Processing.c ****                     if ((((1Lu) << CapSense_THRESHOLD_SIZE) - 1u) < proximityThreshold)
1197:Generated_Source\PSoC4/CapSense_Processing.c ****                     {
1198:Generated_Source\PSoC4/CapSense_Processing.c ****                         proximityThreshold = ((1Lu) << CapSense_THRESHOLD_SIZE) - 1u;
1199:Generated_Source\PSoC4/CapSense_Processing.c ****                     }
1200:Generated_Source\PSoC4/CapSense_Processing.c ****                     ((CapSense_RAM_WD_PROXIMITY_STRUCT *)ptrFlashWdgt->ptr2WdgtRam)->proxTouchTh =
1201:Generated_Source\PSoC4/CapSense_Processing.c ****                         (CapSense_THRESHOLD_TYPE)proximityThreshold;
1202:Generated_Source\PSoC4/CapSense_Processing.c ****                 }
1203:Generated_Source\PSoC4/CapSense_Processing.c ****             #endif /* (0 != CapSense_PROXIMITY_WIDGET_EN) */
1204:Generated_Source\PSoC4/CapSense_Processing.c ****         }
1205:Generated_Source\PSoC4/CapSense_Processing.c ****     #endif /* #if (0u != (CapSense_CSD_AUTOTUNE & CapSense_CSD_SS_TH_EN)) */
1206:Generated_Source\PSoC4/CapSense_Processing.c **** 
1207:Generated_Source\PSoC4/CapSense_Processing.c ****     if (0u != (mode & CapSense_PROCESS_BASELINE))
1208:Generated_Source\PSoC4/CapSense_Processing.c ****     {
1209:Generated_Source\PSoC4/CapSense_Processing.c ****         result = CapSense_FtUpdateBaseline(ptrRamWdgt, curSnsPtr, widgetType);
1210:Generated_Source\PSoC4/CapSense_Processing.c ****     }
1211:Generated_Source\PSoC4/CapSense_Processing.c **** 
1212:Generated_Source\PSoC4/CapSense_Processing.c ****     if (0u != (mode & CapSense_PROCESS_DIFFCOUNTS))
1213:Generated_Source\PSoC4/CapSense_Processing.c ****     {
1214:Generated_Source\PSoC4/CapSense_Processing.c ****         CapSense_DpUpdateDifferences(ptrRamWdgt, curSnsPtr);
1215:Generated_Source\PSoC4/CapSense_Processing.c ****     }
1216:Generated_Source\PSoC4/CapSense_Processing.c ****     return result;
1217:Generated_Source\PSoC4/CapSense_Processing.c **** }
1218:Generated_Source\PSoC4/CapSense_Processing.c **** 
1219:Generated_Source\PSoC4/CapSense_Processing.c **** /*******************************************************************************
1220:Generated_Source\PSoC4/CapSense_Processing.c **** * Function Name: CapSense_DpProcessCsdWidgetStatus
1221:Generated_Source\PSoC4/CapSense_Processing.c **** ****************************************************************************//**
1222:Generated_Source\PSoC4/CapSense_Processing.c **** *
1223:Generated_Source\PSoC4/CapSense_Processing.c **** * \brief
1224:Generated_Source\PSoC4/CapSense_Processing.c **** *  Runs the status processing of the CSD widget and updates it in the Data Structure.
1225:Generated_Source\PSoC4/CapSense_Processing.c **** *
1226:Generated_Source\PSoC4/CapSense_Processing.c **** * \details
1227:Generated_Source\PSoC4/CapSense_Processing.c **** *  This API determines the widget type and calls the appropriate low-level processing
1228:Generated_Source\PSoC4/CapSense_Processing.c **** *  function. Based on the returned results it updates the widget and sensor
1229:Generated_Source\PSoC4/CapSense_Processing.c **** *  status in the data structure. Any widget specific registers like the centroid
1230:Generated_Source\PSoC4/CapSense_Processing.c **** *  position are updated directly in the low-level processing function.
1231:Generated_Source\PSoC4/CapSense_Processing.c **** *
1232:Generated_Source\PSoC4/CapSense_Processing.c **** *  When the widget-specific processing completes this API updates the snsStatus
1233:Generated_Source\PSoC4/CapSense_Processing.c **** *  and wdgtStatus registers in the data structure. The wdgtStatus register
1234:Generated_Source\PSoC4/CapSense_Processing.c **** *  is a bitmask were each bit corresponds to the specific widget identified by
1235:Generated_Source\PSoC4/CapSense_Processing.c **** *  the widget index. When the bit is set the widget is active (touched);
1236:Generated_Source\PSoC4/CapSense_Processing.c **** *
ARM GAS  C:\Users\MIHAILO\AppData\Local\Temp\ccp4p2Le.s 			page 25


1237:Generated_Source\PSoC4/CapSense_Processing.c **** *  The snsStatus register for CSD widgets contains status of each widget sensor
1238:Generated_Source\PSoC4/CapSense_Processing.c **** *  (active/non-active). Each bit corresponds to one sensor. In case of the
1239:Generated_Source\PSoC4/CapSense_Processing.c **** *  Proximity widget two bits are used per sensor: one for proximity status and
1240:Generated_Source\PSoC4/CapSense_Processing.c **** *  second for the touch status.
1241:Generated_Source\PSoC4/CapSense_Processing.c **** *
1242:Generated_Source\PSoC4/CapSense_Processing.c **** * \param widgetId      The widget index number.
1243:Generated_Source\PSoC4/CapSense_Processing.c **** * \param ptrFlashWdgt  The pointer to the Flash widget structure.
1244:Generated_Source\PSoC4/CapSense_Processing.c **** *
1245:Generated_Source\PSoC4/CapSense_Processing.c **** *******************************************************************************/
1246:Generated_Source\PSoC4/CapSense_Processing.c **** void CapSense_DpProcessCsdWidgetStatus(uint32 widgetId, CapSense_FLASH_WD_STRUCT const *ptrFlashWdg
1247:Generated_Source\PSoC4/CapSense_Processing.c **** {
1248:Generated_Source\PSoC4/CapSense_Processing.c ****     uint32 sensorStatus;
1249:Generated_Source\PSoC4/CapSense_Processing.c ****     uint32 wdStatusIndex;
1250:Generated_Source\PSoC4/CapSense_Processing.c ****     uint32 wdStatusMask;
1251:Generated_Source\PSoC4/CapSense_Processing.c ****     CapSense_WD_TYPE_ENUM widgetType;
1252:Generated_Source\PSoC4/CapSense_Processing.c **** 
1253:Generated_Source\PSoC4/CapSense_Processing.c ****     widgetType = (CapSense_WD_TYPE_ENUM)ptrFlashWdgt->wdgtType;
1254:Generated_Source\PSoC4/CapSense_Processing.c ****     sensorStatus = CapSense_dsRam.snsStatus[widgetId];
1255:Generated_Source\PSoC4/CapSense_Processing.c **** 
1256:Generated_Source\PSoC4/CapSense_Processing.c ****     switch (widgetType)
1257:Generated_Source\PSoC4/CapSense_Processing.c ****     {
1258:Generated_Source\PSoC4/CapSense_Processing.c ****     #if (0u != CapSense_BUTTON_WIDGET_EN)
1259:Generated_Source\PSoC4/CapSense_Processing.c ****         case CapSense_WD_BUTTON_E:
1260:Generated_Source\PSoC4/CapSense_Processing.c ****             sensorStatus = CapSense_DpProcessButton(sensorStatus, ptrFlashWdgt);
1261:Generated_Source\PSoC4/CapSense_Processing.c ****             break;
1262:Generated_Source\PSoC4/CapSense_Processing.c ****     #endif /* #if (0u != CapSense_BUTTON_WIDGET_EN) */
1263:Generated_Source\PSoC4/CapSense_Processing.c **** 
1264:Generated_Source\PSoC4/CapSense_Processing.c ****     #if (0u != CapSense_SLIDER_WIDGET_EN)
1265:Generated_Source\PSoC4/CapSense_Processing.c ****         case CapSense_WD_LINEAR_SLIDER_E:
1266:Generated_Source\PSoC4/CapSense_Processing.c ****         case CapSense_WD_RADIAL_SLIDER_E:
1267:Generated_Source\PSoC4/CapSense_Processing.c ****             sensorStatus = CapSense_DpProcessSlider(sensorStatus, ptrFlashWdgt);
1268:Generated_Source\PSoC4/CapSense_Processing.c ****             break;
1269:Generated_Source\PSoC4/CapSense_Processing.c ****     #endif /* #if (0u != CapSense_SLIDER_WIDGET_EN) */
1270:Generated_Source\PSoC4/CapSense_Processing.c **** 
1271:Generated_Source\PSoC4/CapSense_Processing.c ****     #if (0u != CapSense_CSD_MATRIX_WIDGET_EN)
1272:Generated_Source\PSoC4/CapSense_Processing.c ****         case CapSense_WD_MATRIX_BUTTON_E:
1273:Generated_Source\PSoC4/CapSense_Processing.c ****             sensorStatus = CapSense_DpProcessCsdMatrix(sensorStatus, ptrFlashWdgt);
1274:Generated_Source\PSoC4/CapSense_Processing.c ****             break;
1275:Generated_Source\PSoC4/CapSense_Processing.c ****     #endif /* #if (0u != CapSense_CSD_MATRIX_WIDGET_EN) */
1276:Generated_Source\PSoC4/CapSense_Processing.c **** 
1277:Generated_Source\PSoC4/CapSense_Processing.c ****     #if (0u != CapSense_CSD_TOUCHPAD_WIDGET_EN)
1278:Generated_Source\PSoC4/CapSense_Processing.c ****         case CapSense_WD_TOUCHPAD_E:
1279:Generated_Source\PSoC4/CapSense_Processing.c ****             sensorStatus = CapSense_DpProcessCsdTouchpad(sensorStatus, ptrFlashWdgt);
1280:Generated_Source\PSoC4/CapSense_Processing.c ****             #if (0u != CapSense_BALLISTIC_MULTIPLIER_EN)
1281:Generated_Source\PSoC4/CapSense_Processing.c ****                 CapSense_RunBallisticMultiplier(widgetId);
1282:Generated_Source\PSoC4/CapSense_Processing.c ****             #endif /* (0u != CapSense_BALLISTIC_MULTIPLIER_EN) */
1283:Generated_Source\PSoC4/CapSense_Processing.c ****             break;
1284:Generated_Source\PSoC4/CapSense_Processing.c ****     #endif /* #if (0u != CapSense_CSD_TOUCHPAD_WIDGET_EN) */
1285:Generated_Source\PSoC4/CapSense_Processing.c **** 
1286:Generated_Source\PSoC4/CapSense_Processing.c ****     #if (0u != CapSense_PROXIMITY_WIDGET_EN)
1287:Generated_Source\PSoC4/CapSense_Processing.c ****         case CapSense_WD_PROXIMITY_E:
1288:Generated_Source\PSoC4/CapSense_Processing.c ****             sensorStatus = CapSense_DpProcessProximity(sensorStatus, ptrFlashWdgt);
1289:Generated_Source\PSoC4/CapSense_Processing.c ****             break;
1290:Generated_Source\PSoC4/CapSense_Processing.c ****     #endif /* #if (0u != CapSense_PROXIMITY_WIDGET_EN) */
1291:Generated_Source\PSoC4/CapSense_Processing.c **** 
1292:Generated_Source\PSoC4/CapSense_Processing.c ****     default:
1293:Generated_Source\PSoC4/CapSense_Processing.c ****         CYASSERT(0u);
ARM GAS  C:\Users\MIHAILO\AppData\Local\Temp\ccp4p2Le.s 			page 26


1294:Generated_Source\PSoC4/CapSense_Processing.c ****         break;
1295:Generated_Source\PSoC4/CapSense_Processing.c ****     }
1296:Generated_Source\PSoC4/CapSense_Processing.c **** 
1297:Generated_Source\PSoC4/CapSense_Processing.c ****     CapSense_dsRam.snsStatus[widgetId] = (CapSense_SNS_STS_TYPE)sensorStatus;
1298:Generated_Source\PSoC4/CapSense_Processing.c **** 
1299:Generated_Source\PSoC4/CapSense_Processing.c ****     /* The next two lines calculate index and bitmask of the widget status bit in the wdgtStatus ar
1300:Generated_Source\PSoC4/CapSense_Processing.c ****     wdStatusIndex = CapSense_GET_WDGT_STATUS_INDEX(widgetId);
1301:Generated_Source\PSoC4/CapSense_Processing.c ****     wdStatusMask = CapSense_GET_WDGT_STATUS_MASK(widgetId);
1302:Generated_Source\PSoC4/CapSense_Processing.c **** 
1303:Generated_Source\PSoC4/CapSense_Processing.c ****     /* Check if there are active sensors and update widget status accordingly */
1304:Generated_Source\PSoC4/CapSense_Processing.c ****     if (0u == sensorStatus)
1305:Generated_Source\PSoC4/CapSense_Processing.c ****     {
1306:Generated_Source\PSoC4/CapSense_Processing.c ****         CapSense_dsRam.wdgtStatus[wdStatusIndex] &= ~wdStatusMask;
1307:Generated_Source\PSoC4/CapSense_Processing.c ****     }
1308:Generated_Source\PSoC4/CapSense_Processing.c ****     else
1309:Generated_Source\PSoC4/CapSense_Processing.c ****     {
1310:Generated_Source\PSoC4/CapSense_Processing.c ****         CapSense_dsRam.wdgtStatus[wdStatusIndex] |= wdStatusMask;
1311:Generated_Source\PSoC4/CapSense_Processing.c ****     }
1312:Generated_Source\PSoC4/CapSense_Processing.c **** }
1313:Generated_Source\PSoC4/CapSense_Processing.c **** #endif /* #if (0u != CapSense_TOTAL_CSD_WIDGETS) */
1314:Generated_Source\PSoC4/CapSense_Processing.c **** 
1315:Generated_Source\PSoC4/CapSense_Processing.c **** 
1316:Generated_Source\PSoC4/CapSense_Processing.c **** #if (0 != (CapSense_CSD_AUTOTUNE & CapSense_CSD_SS_TH_EN))
1317:Generated_Source\PSoC4/CapSense_Processing.c **** /*******************************************************************************
1318:Generated_Source\PSoC4/CapSense_Processing.c **** * Function Name: CapSense_DpUpdateThresholds
1319:Generated_Source\PSoC4/CapSense_Processing.c **** ****************************************************************************//**
1320:Generated_Source\PSoC4/CapSense_Processing.c **** *
1321:Generated_Source\PSoC4/CapSense_Processing.c **** * \brief
1322:Generated_Source\PSoC4/CapSense_Processing.c **** *   Updates noise and finger thresholds for a specified widget.
1323:Generated_Source\PSoC4/CapSense_Processing.c **** *
1324:Generated_Source\PSoC4/CapSense_Processing.c **** * \details
1325:Generated_Source\PSoC4/CapSense_Processing.c **** *   Updates noise and finger thresholds for a specified widget.
1326:Generated_Source\PSoC4/CapSense_Processing.c **** *   This algorithm is a part of Auto-tuning feature.
1327:Generated_Source\PSoC4/CapSense_Processing.c **** *
1328:Generated_Source\PSoC4/CapSense_Processing.c **** * \param ptrRamWdgt       The pointer to the RAM widget object.
1329:Generated_Source\PSoC4/CapSense_Processing.c **** * \param ptrNoiseEnvelope The pointer to the noise-envelope object in RAM.
1330:Generated_Source\PSoC4/CapSense_Processing.c **** * \param startFlag        The flag indicates when new widget is processed.
1331:Generated_Source\PSoC4/CapSense_Processing.c **** *
1332:Generated_Source\PSoC4/CapSense_Processing.c **** *******************************************************************************/
1333:Generated_Source\PSoC4/CapSense_Processing.c **** void CapSense_DpUpdateThresholds(CapSense_RAM_WD_BASE_STRUCT *ptrRamWdgt,
1334:Generated_Source\PSoC4/CapSense_Processing.c ****                                          SMARTSENSE_CSD_NOISE_ENVELOPE_STRUCT *ptrNoiseEnvelope,
1335:Generated_Source\PSoC4/CapSense_Processing.c ****                                          uint32 startFlag)
1336:Generated_Source\PSoC4/CapSense_Processing.c **** {
 128              		.loc 1 1336 0
 129              		.cfi_startproc
 130              		@ args = 0, pretend = 0, frame = 8
 131              		@ frame_needed = 0, uses_anonymous_args = 0
 132              	.LVL14:
 133 0000 10B5     		push	{r4, lr}
 134              		.cfi_def_cfa_offset 8
 135              		.cfi_offset 4, -8
 136              		.cfi_offset 14, -4
 137 0002 82B0     		sub	sp, sp, #8
 138              		.cfi_def_cfa_offset 16
 139 0004 0400     		movs	r4, r0
 140 0006 0800     		movs	r0, r1
 141              	.LVL15:
ARM GAS  C:\Users\MIHAILO\AppData\Local\Temp\ccp4p2Le.s 			page 27


 142 0008 1300     		movs	r3, r2
 143              	.LVL16:
1337:Generated_Source\PSoC4/CapSense_Processing.c ****     SMARTSENSE_UPDATE_THRESHOLDS_STRUCT thresholds;
1338:Generated_Source\PSoC4/CapSense_Processing.c ****     SMARTSENSE_UPDATE_THRESHOLDS_STRUCT *ptrThresholds = &thresholds;
1339:Generated_Source\PSoC4/CapSense_Processing.c ****     ptrThresholds->fingerTh = ptrRamWdgt->fingerTh;
 144              		.loc 1 1339 0
 145 000a 6288     		ldrh	r2, [r4, #2]
 146              	.LVL17:
 147 000c 6946     		mov	r1, sp
 148              	.LVL18:
 149 000e 0A80     		strh	r2, [r1]
1340:Generated_Source\PSoC4/CapSense_Processing.c **** 
1341:Generated_Source\PSoC4/CapSense_Processing.c ****     SmartSense_UpdateThresholds(ptrNoiseEnvelope, ptrThresholds, ptrRamWdgt->sigPFC, startFlag);
 150              		.loc 1 1341 0
 151 0010 628A     		ldrh	r2, [r4, #18]
 152 0012 FFF7FEFF 		bl	SmartSense_UpdateThresholds
 153              	.LVL19:
1342:Generated_Source\PSoC4/CapSense_Processing.c **** 
1343:Generated_Source\PSoC4/CapSense_Processing.c ****     ptrRamWdgt->fingerTh = ptrThresholds->fingerTh;
 154              		.loc 1 1343 0
 155 0016 6B46     		mov	r3, sp
 156 0018 1B88     		ldrh	r3, [r3]
 157 001a 6380     		strh	r3, [r4, #2]
1344:Generated_Source\PSoC4/CapSense_Processing.c ****     ptrRamWdgt->noiseTh = ptrThresholds->noiseTh;
 158              		.loc 1 1344 0
 159 001c 6B46     		mov	r3, sp
 160 001e 9B78     		ldrb	r3, [r3, #2]
 161 0020 2371     		strb	r3, [r4, #4]
1345:Generated_Source\PSoC4/CapSense_Processing.c ****     ptrRamWdgt->nNoiseTh = ptrThresholds->nNoiseTh;
 162              		.loc 1 1345 0
 163 0022 6B46     		mov	r3, sp
 164 0024 DB78     		ldrb	r3, [r3, #3]
 165 0026 6371     		strb	r3, [r4, #5]
1346:Generated_Source\PSoC4/CapSense_Processing.c ****     ptrRamWdgt->hysteresis = ptrThresholds->hysteresis;
 166              		.loc 1 1346 0
 167 0028 6B46     		mov	r3, sp
 168 002a 1B79     		ldrb	r3, [r3, #4]
 169 002c A371     		strb	r3, [r4, #6]
1347:Generated_Source\PSoC4/CapSense_Processing.c **** }
 170              		.loc 1 1347 0
 171 002e 02B0     		add	sp, sp, #8
 172              	.LVL20:
 173              		@ sp needed
 174              	.LVL21:
 175 0030 10BD     		pop	{r4, pc}
 176              		.cfi_endproc
 177              	.LFE4:
 178              		.size	CapSense_DpUpdateThresholds, .-CapSense_DpUpdateThresholds
 179 0032 C046     		.section	.text.CapSense_DpUpdateDifferences,"ax",%progbits
 180              		.align	2
 181              		.global	CapSense_DpUpdateDifferences
 182              		.code	16
 183              		.thumb_func
 184              		.type	CapSense_DpUpdateDifferences, %function
 185              	CapSense_DpUpdateDifferences:
 186              	.LFB5:
1348:Generated_Source\PSoC4/CapSense_Processing.c **** #endif /* #if (0u != (CapSense_CSD_AUTOTUNE & CapSense_CSD_SS_TH_EN)) */
ARM GAS  C:\Users\MIHAILO\AppData\Local\Temp\ccp4p2Le.s 			page 28


1349:Generated_Source\PSoC4/CapSense_Processing.c **** 
1350:Generated_Source\PSoC4/CapSense_Processing.c **** 
1351:Generated_Source\PSoC4/CapSense_Processing.c **** /*******************************************************************************
1352:Generated_Source\PSoC4/CapSense_Processing.c **** * Function Name: CapSense_DpUpdateDifferences
1353:Generated_Source\PSoC4/CapSense_Processing.c **** ****************************************************************************//**
1354:Generated_Source\PSoC4/CapSense_Processing.c **** *
1355:Generated_Source\PSoC4/CapSense_Processing.c **** * \brief
1356:Generated_Source\PSoC4/CapSense_Processing.c **** *   Calculates new difference values.
1357:Generated_Source\PSoC4/CapSense_Processing.c **** *   Also, executes the multi-frequency scan algorithm if it is enabled.
1358:Generated_Source\PSoC4/CapSense_Processing.c **** *
1359:Generated_Source\PSoC4/CapSense_Processing.c **** * \details
1360:Generated_Source\PSoC4/CapSense_Processing.c **** *   This API calculates the difference between the baseline and raw counts.
1361:Generated_Source\PSoC4/CapSense_Processing.c **** *   If the difference is positive (raw > baseline), and higher than the widget
1362:Generated_Source\PSoC4/CapSense_Processing.c **** *   noise threshold, it is saved into the data structure for further processing.
1363:Generated_Source\PSoC4/CapSense_Processing.c **** *   Otherwise the difference is set to zero. The final difference value is saved
1364:Generated_Source\PSoC4/CapSense_Processing.c **** *   with the subtracted noise threshold value.
1365:Generated_Source\PSoC4/CapSense_Processing.c **** *
1366:Generated_Source\PSoC4/CapSense_Processing.c **** *   If the multi-frequency scan algorithm is enabled, the difference is calculated
1367:Generated_Source\PSoC4/CapSense_Processing.c **** *   for the three sets of data available for each sensor. Then
1368:Generated_Source\PSoC4/CapSense_Processing.c **** *   the median filter selects the final difference value.
1369:Generated_Source\PSoC4/CapSense_Processing.c **** *
1370:Generated_Source\PSoC4/CapSense_Processing.c **** * \param ptrRamWdgt The pointer to the RAR Widget Object.
1371:Generated_Source\PSoC4/CapSense_Processing.c **** * \param curSnsPtr  The pointer to the sensor object in RAM.
1372:Generated_Source\PSoC4/CapSense_Processing.c **** *
1373:Generated_Source\PSoC4/CapSense_Processing.c **** *******************************************************************************/
1374:Generated_Source\PSoC4/CapSense_Processing.c **** void CapSense_DpUpdateDifferences(
1375:Generated_Source\PSoC4/CapSense_Processing.c ****                         CapSense_RAM_WD_BASE_STRUCT *ptrRamWdgt,
1376:Generated_Source\PSoC4/CapSense_Processing.c ****                         CapSense_RAM_SNS_STRUCT *curSnsPtr)
1377:Generated_Source\PSoC4/CapSense_Processing.c **** {
 187              		.loc 1 1377 0
 188              		.cfi_startproc
 189              		@ args = 0, pretend = 0, frame = 0
 190              		@ frame_needed = 0, uses_anonymous_args = 0
 191              	.LVL22:
 192 0000 30B5     		push	{r4, r5, lr}
 193              		.cfi_def_cfa_offset 12
 194              		.cfi_offset 4, -12
 195              		.cfi_offset 5, -8
 196              		.cfi_offset 14, -4
 197              	.LVL23:
1378:Generated_Source\PSoC4/CapSense_Processing.c ****     register int32 diffValue = 0;
1379:Generated_Source\PSoC4/CapSense_Processing.c **** 
1380:Generated_Source\PSoC4/CapSense_Processing.c ****     #if (0u != CapSense_MULTI_FREQ_SCAN_EN)
1381:Generated_Source\PSoC4/CapSense_Processing.c ****         register int32 diffValue_0 = 0;
1382:Generated_Source\PSoC4/CapSense_Processing.c ****         register int32 diffValue_2 = 0;
1383:Generated_Source\PSoC4/CapSense_Processing.c ****     #endif /* #if (0u != CapSense_MULTI_FREQ_SCAN_EN) */
1384:Generated_Source\PSoC4/CapSense_Processing.c **** 
1385:Generated_Source\PSoC4/CapSense_Processing.c ****     /* Calculate difference */
1386:Generated_Source\PSoC4/CapSense_Processing.c ****     diffValue = (int32)curSnsPtr->raw[0u] - (int32)curSnsPtr->bsln[0u];
 198              		.loc 1 1386 0
 199 0002 0B88     		ldrh	r3, [r1]
 200 0004 4A88     		ldrh	r2, [r1, #2]
 201 0006 9C1A     		subs	r4, r3, r2
 202              	.LVL24:
1387:Generated_Source\PSoC4/CapSense_Processing.c **** 
1388:Generated_Source\PSoC4/CapSense_Processing.c ****     #if (0u != CapSense_MULTI_FREQ_SCAN_EN)
1389:Generated_Source\PSoC4/CapSense_Processing.c ****         diffValue_0 = (int32)curSnsPtr->raw[1u] - (int32)curSnsPtr->bsln[1u];
ARM GAS  C:\Users\MIHAILO\AppData\Local\Temp\ccp4p2Le.s 			page 29


1390:Generated_Source\PSoC4/CapSense_Processing.c ****         diffValue_2 = (int32)curSnsPtr->raw[2u] - (int32)curSnsPtr->bsln[2u];
1391:Generated_Source\PSoC4/CapSense_Processing.c **** 
1392:Generated_Source\PSoC4/CapSense_Processing.c ****         /* Find median and put it into [0u] element */
1393:Generated_Source\PSoC4/CapSense_Processing.c ****         if (diffValue_0 > diffValue)
1394:Generated_Source\PSoC4/CapSense_Processing.c ****         {
1395:Generated_Source\PSoC4/CapSense_Processing.c ****             register int32 swapv = diffValue_0;
1396:Generated_Source\PSoC4/CapSense_Processing.c ****             diffValue_0 = diffValue;
1397:Generated_Source\PSoC4/CapSense_Processing.c ****             diffValue = swapv;
1398:Generated_Source\PSoC4/CapSense_Processing.c ****         }
1399:Generated_Source\PSoC4/CapSense_Processing.c **** 
1400:Generated_Source\PSoC4/CapSense_Processing.c ****         if (diffValue > diffValue_2)
1401:Generated_Source\PSoC4/CapSense_Processing.c ****         {
1402:Generated_Source\PSoC4/CapSense_Processing.c ****             register int32 swapv = diffValue;
1403:Generated_Source\PSoC4/CapSense_Processing.c ****             diffValue = diffValue_2;
1404:Generated_Source\PSoC4/CapSense_Processing.c ****             diffValue_2 = swapv;
1405:Generated_Source\PSoC4/CapSense_Processing.c ****         }
1406:Generated_Source\PSoC4/CapSense_Processing.c **** 
1407:Generated_Source\PSoC4/CapSense_Processing.c ****         if (diffValue_0 > diffValue)
1408:Generated_Source\PSoC4/CapSense_Processing.c ****         {
1409:Generated_Source\PSoC4/CapSense_Processing.c ****             register int32 swapv = diffValue_0;
1410:Generated_Source\PSoC4/CapSense_Processing.c ****             diffValue_0 = diffValue;
1411:Generated_Source\PSoC4/CapSense_Processing.c ****             diffValue = swapv;
1412:Generated_Source\PSoC4/CapSense_Processing.c ****         }
1413:Generated_Source\PSoC4/CapSense_Processing.c ****     #endif /* #if (0u != CapSense_MULTI_FREQ_SCAN_EN) */
1414:Generated_Source\PSoC4/CapSense_Processing.c **** 
1415:Generated_Source\PSoC4/CapSense_Processing.c ****     curSnsPtr->diff = 0u;
 203              		.loc 1 1415 0
 204 0008 0025     		movs	r5, #0
 205 000a CD80     		strh	r5, [r1, #6]
1416:Generated_Source\PSoC4/CapSense_Processing.c **** 
1417:Generated_Source\PSoC4/CapSense_Processing.c ****     if (diffValue > (int32)ptrRamWdgt->noiseTh)
 206              		.loc 1 1417 0
 207 000c 0079     		ldrb	r0, [r0, #4]
 208              	.LVL25:
 209 000e 8442     		cmp	r4, r0
 210 0010 00DD     		ble	.L11
1418:Generated_Source\PSoC4/CapSense_Processing.c ****     {
1419:Generated_Source\PSoC4/CapSense_Processing.c ****         curSnsPtr->diff = (CapSense_THRESHOLD_TYPE) diffValue;
 211              		.loc 1 1419 0
 212 0012 CC80     		strh	r4, [r1, #6]
 213              	.L11:
1420:Generated_Source\PSoC4/CapSense_Processing.c ****     }
1421:Generated_Source\PSoC4/CapSense_Processing.c **** }
 214              		.loc 1 1421 0
 215              		@ sp needed
 216              	.LVL26:
 217 0014 30BD     		pop	{r4, r5, pc}
 218              		.cfi_endproc
 219              	.LFE5:
 220              		.size	CapSense_DpUpdateDifferences, .-CapSense_DpUpdateDifferences
 221 0016 C046     		.section	.text.CapSense_DpProcessCsdWidgetRawCounts,"ax",%progbits
 222              		.align	2
 223              		.global	CapSense_DpProcessCsdWidgetRawCounts
 224              		.code	16
 225              		.thumb_func
 226              		.type	CapSense_DpProcessCsdWidgetRawCounts, %function
 227              	CapSense_DpProcessCsdWidgetRawCounts:
ARM GAS  C:\Users\MIHAILO\AppData\Local\Temp\ccp4p2Le.s 			page 30


 228              	.LFB1:
1017:Generated_Source\PSoC4/CapSense_Processing.c ****     uint32  result = CYRET_SUCCESS;
 229              		.loc 1 1017 0
 230              		.cfi_startproc
 231              		@ args = 0, pretend = 0, frame = 8
 232              		@ frame_needed = 0, uses_anonymous_args = 0
 233              	.LVL27:
 234 0000 F0B5     		push	{r4, r5, r6, r7, lr}
 235              		.cfi_def_cfa_offset 20
 236              		.cfi_offset 4, -20
 237              		.cfi_offset 5, -16
 238              		.cfi_offset 6, -12
 239              		.cfi_offset 7, -8
 240              		.cfi_offset 14, -4
 241 0002 5746     		mov	r7, r10
 242 0004 80B4     		push	{r7}
 243              		.cfi_def_cfa_offset 24
 244              		.cfi_offset 10, -24
 245 0006 82B0     		sub	sp, sp, #8
 246              		.cfi_def_cfa_offset 32
 247 0008 8246     		mov	r10, r0
 248              	.LVL28:
1047:Generated_Source\PSoC4/CapSense_Processing.c ****     ptrRamWdgt = (CapSense_RAM_WD_BASE_STRUCT *)ptrFlashWdgt->ptr2WdgtRam;
 249              		.loc 1 1047 0
 250 000a 8468     		ldr	r4, [r0, #8]
 251              	.LVL29:
1048:Generated_Source\PSoC4/CapSense_Processing.c ****     widgetType = ptrFlashWdgt->wdgtType;
 252              		.loc 1 1048 0
 253 000c 4568     		ldr	r5, [r0, #4]
 254              	.LVL30:
1049:Generated_Source\PSoC4/CapSense_Processing.c **** 
 255              		.loc 1 1049 0
 256 000e 837E     		ldrb	r3, [r0, #26]
 257 0010 0193     		str	r3, [sp, #4]
 258              	.LVL31:
1052:Generated_Source\PSoC4/CapSense_Processing.c ****     #endif /* #if (0u != (CapSense_CSD_AUTOTUNE & CapSense_CSD_SS_TH_EN)) */
 259              		.loc 1 1052 0
 260 0012 C769     		ldr	r7, [r0, #28]
 261              	.LVL32:
1056:Generated_Source\PSoC4/CapSense_Processing.c ****     {
 262              		.loc 1 1056 0
 263 0014 0026     		movs	r6, #0
1018:Generated_Source\PSoC4/CapSense_Processing.c **** 
 264              		.loc 1 1018 0
 265 0016 0023     		movs	r3, #0
 266              	.LVL33:
 267 0018 0093     		str	r3, [sp]
1056:Generated_Source\PSoC4/CapSense_Processing.c ****     {
 268              		.loc 1 1056 0
 269 001a 16E0     		b	.L14
 270              	.LVL34:
 271              	.L15:
1068:Generated_Source\PSoC4/CapSense_Processing.c ****             CapSense_DpUpdateThresholds(ptrRamWdgt, ptrNoiseEnvelope, snsId);
 272              		.loc 1 1068 0 discriminator 3
 273 001c 698A     		ldrh	r1, [r5, #18]
 274 001e 2088     		ldrh	r0, [r4]
 275 0020 3A00     		movs	r2, r7
ARM GAS  C:\Users\MIHAILO\AppData\Local\Temp\ccp4p2Le.s 			page 31


 276 0022 FFF7FEFF 		bl	SmartSense_RunNoiseEnvelope
 277              	.LVL35:
1069:Generated_Source\PSoC4/CapSense_Processing.c **** 
 278              		.loc 1 1069 0 discriminator 3
 279 0026 3200     		movs	r2, r6
 280 0028 3900     		movs	r1, r7
 281 002a 2800     		movs	r0, r5
 282 002c FFF7FEFF 		bl	CapSense_DpUpdateThresholds
 283              	.LVL36:
1086:Generated_Source\PSoC4/CapSense_Processing.c ****         #endif /* (0u != (CapSense_CSD_AUTOTUNE & CapSense_CSD_SS_TH_EN)) */
 284              		.loc 1 1086 0 discriminator 3
 285 0030 0C37     		adds	r7, r7, #12
 286              	.LVL37:
1096:Generated_Source\PSoC4/CapSense_Processing.c ****         #endif /* (CapSense_ENABLE == CapSense_TST_BSLN_DUPLICATION_EN) */
 287              		.loc 1 1096 0 discriminator 3
 288 0032 019A     		ldr	r2, [sp, #4]
 289 0034 2100     		movs	r1, r4
 290 0036 2800     		movs	r0, r5
 291 0038 FFF7FEFF 		bl	CapSense_FtUpdateBaseline
 292              	.LVL38:
 293 003c 0090     		str	r0, [sp]
 294              	.LVL39:
1099:Generated_Source\PSoC4/CapSense_Processing.c **** 
 295              		.loc 1 1099 0 discriminator 3
 296 003e 2100     		movs	r1, r4
 297 0040 2800     		movs	r0, r5
 298              	.LVL40:
 299 0042 FFF7FEFF 		bl	CapSense_DpUpdateDifferences
 300              	.LVL41:
1102:Generated_Source\PSoC4/CapSense_Processing.c **** 
 301              		.loc 1 1102 0 discriminator 3
 302 0046 0A34     		adds	r4, r4, #10
 303              	.LVL42:
1056:Generated_Source\PSoC4/CapSense_Processing.c ****     {
 304              		.loc 1 1056 0 discriminator 3
 305 0048 0136     		adds	r6, r6, #1
 306              	.LVL43:
 307              	.L14:
1056:Generated_Source\PSoC4/CapSense_Processing.c ****     {
 308              		.loc 1 1056 0 is_stmt 0 discriminator 1
 309 004a 5346     		mov	r3, r10
 310 004c 1B8B     		ldrh	r3, [r3, #24]
 311 004e 9E42     		cmp	r6, r3
 312 0050 E4D3     		bcc	.L15
1110:Generated_Source\PSoC4/CapSense_Processing.c **** 
 313              		.loc 1 1110 0 is_stmt 1
 314 0052 0098     		ldr	r0, [sp]
 315 0054 02B0     		add	sp, sp, #8
 316              	.LVL44:
 317              		@ sp needed
 318              	.LVL45:
 319              	.LVL46:
 320              	.LVL47:
 321              	.LVL48:
 322              	.LVL49:
 323 0056 04BC     		pop	{r2}
 324 0058 9246     		mov	r10, r2
ARM GAS  C:\Users\MIHAILO\AppData\Local\Temp\ccp4p2Le.s 			page 32


 325 005a F0BD     		pop	{r4, r5, r6, r7, pc}
 326              		.cfi_endproc
 327              	.LFE1:
 328              		.size	CapSense_DpProcessCsdWidgetRawCounts, .-CapSense_DpProcessCsdWidgetRawCounts
 329              		.section	.text.CapSense_DpProcessCsdSensorRawCountsExt,"ax",%progbits
 330              		.align	2
 331              		.global	CapSense_DpProcessCsdSensorRawCountsExt
 332              		.code	16
 333              		.thumb_func
 334              		.type	CapSense_DpProcessCsdSensorRawCountsExt, %function
 335              	CapSense_DpProcessCsdSensorRawCountsExt:
 336              	.LFB2:
1151:Generated_Source\PSoC4/CapSense_Processing.c ****     uint32 result = CYRET_SUCCESS;
 337              		.loc 1 1151 0
 338              		.cfi_startproc
 339              		@ args = 0, pretend = 0, frame = 8
 340              		@ frame_needed = 0, uses_anonymous_args = 0
 341              	.LVL50:
 342 0000 F0B5     		push	{r4, r5, r6, r7, lr}
 343              		.cfi_def_cfa_offset 20
 344              		.cfi_offset 4, -20
 345              		.cfi_offset 5, -16
 346              		.cfi_offset 6, -12
 347              		.cfi_offset 7, -8
 348              		.cfi_offset 14, -4
 349 0002 83B0     		sub	sp, sp, #12
 350              		.cfi_def_cfa_offset 32
 351 0004 0191     		str	r1, [sp, #4]
 352 0006 1C00     		movs	r4, r3
 353              	.LVL51:
1163:Generated_Source\PSoC4/CapSense_Processing.c ****     #endif /* (0u != (CapSense_CSD_AUTOTUNE & CapSense_CSD_SS_TH_EN)) */
 354              		.loc 1 1163 0
 355 0008 C769     		ldr	r7, [r0, #28]
 356              	.LVL52:
1166:Generated_Source\PSoC4/CapSense_Processing.c ****     ptrRamWdgt = (CapSense_RAM_WD_BASE_STRUCT *)ptrFlashWdgt->ptr2WdgtRam;
 357              		.loc 1 1166 0
 358 000a 867E     		ldrb	r6, [r0, #26]
 359              	.LVL53:
1167:Generated_Source\PSoC4/CapSense_Processing.c **** 
 360              		.loc 1 1167 0
 361 000c 4568     		ldr	r5, [r0, #4]
 362              	.LVL54:
1182:Generated_Source\PSoC4/CapSense_Processing.c ****         {
 363              		.loc 1 1182 0
 364 000e 2307     		lsls	r3, r4, #28
 365 0010 05D5     		bpl	.L17
 366              	.LVL55:
1184:Generated_Source\PSoC4/CapSense_Processing.c ****         }
 367              		.loc 1 1184 0
 368 0012 698A     		ldrh	r1, [r5, #18]
 369              	.LVL56:
 370 0014 019B     		ldr	r3, [sp, #4]
 371 0016 1888     		ldrh	r0, [r3]
 372              	.LVL57:
 373 0018 3A00     		movs	r2, r7
 374              	.LVL58:
 375 001a FFF7FEFF 		bl	SmartSense_RunNoiseEnvelope
ARM GAS  C:\Users\MIHAILO\AppData\Local\Temp\ccp4p2Le.s 			page 33


 376              	.LVL59:
 377              	.L17:
1187:Generated_Source\PSoC4/CapSense_Processing.c ****         {
 378              		.loc 1 1187 0
 379 001e E306     		lsls	r3, r4, #27
 380 0020 04D5     		bpl	.L18
1189:Generated_Source\PSoC4/CapSense_Processing.c **** 
 381              		.loc 1 1189 0
 382 0022 0022     		movs	r2, #0
 383              	.LVL60:
 384 0024 3900     		movs	r1, r7
 385 0026 2800     		movs	r0, r5
 386 0028 FFF7FEFF 		bl	CapSense_DpUpdateThresholds
 387              	.LVL61:
 388              	.L18:
1207:Generated_Source\PSoC4/CapSense_Processing.c ****     {
 389              		.loc 1 1207 0
 390 002c A307     		lsls	r3, r4, #30
 391 002e 06D5     		bpl	.L21
1209:Generated_Source\PSoC4/CapSense_Processing.c ****     }
 392              		.loc 1 1209 0
 393 0030 3200     		movs	r2, r6
 394              	.LVL62:
 395 0032 0199     		ldr	r1, [sp, #4]
 396 0034 2800     		movs	r0, r5
 397 0036 FFF7FEFF 		bl	CapSense_FtUpdateBaseline
 398              	.LVL63:
 399 003a 0700     		movs	r7, r0
 400              	.LVL64:
 401 003c 00E0     		b	.L19
 402              	.LVL65:
 403              	.L21:
1152:Generated_Source\PSoC4/CapSense_Processing.c ****     uint32  widgetType;
 404              		.loc 1 1152 0
 405 003e 0027     		movs	r7, #0
 406              	.LVL66:
 407              	.L19:
1212:Generated_Source\PSoC4/CapSense_Processing.c ****     {
 408              		.loc 1 1212 0
 409 0040 6307     		lsls	r3, r4, #29
 410 0042 03D5     		bpl	.L20
1214:Generated_Source\PSoC4/CapSense_Processing.c ****     }
 411              		.loc 1 1214 0
 412 0044 0199     		ldr	r1, [sp, #4]
 413 0046 2800     		movs	r0, r5
 414 0048 FFF7FEFF 		bl	CapSense_DpUpdateDifferences
 415              	.LVL67:
 416              	.L20:
1217:Generated_Source\PSoC4/CapSense_Processing.c **** 
 417              		.loc 1 1217 0
 418 004c 3800     		movs	r0, r7
 419 004e 03B0     		add	sp, sp, #12
 420              		@ sp needed
 421              	.LVL68:
 422              	.LVL69:
 423              	.LVL70:
 424              	.LVL71:
ARM GAS  C:\Users\MIHAILO\AppData\Local\Temp\ccp4p2Le.s 			page 34


 425 0050 F0BD     		pop	{r4, r5, r6, r7, pc}
 426              		.cfi_endproc
 427              	.LFE2:
 428              		.size	CapSense_DpProcessCsdSensorRawCountsExt, .-CapSense_DpProcessCsdSensorRawCountsExt
 429 0052 C046     		.section	.text.CapSense_DpProcessButton,"ax",%progbits
 430              		.align	2
 431              		.global	CapSense_DpProcessButton
 432              		.code	16
 433              		.thumb_func
 434              		.type	CapSense_DpProcessButton, %function
 435              	CapSense_DpProcessButton:
 436              	.LFB6:
1422:Generated_Source\PSoC4/CapSense_Processing.c **** 
1423:Generated_Source\PSoC4/CapSense_Processing.c **** 
1424:Generated_Source\PSoC4/CapSense_Processing.c **** #if ((0u != CapSense_BUTTON_WIDGET_EN) || (0u != CapSense_CSX_MATRIX_WIDGET_EN))
1425:Generated_Source\PSoC4/CapSense_Processing.c **** /*******************************************************************************
1426:Generated_Source\PSoC4/CapSense_Processing.c **** * Function Name: CapSense_DpProcessButton
1427:Generated_Source\PSoC4/CapSense_Processing.c **** ****************************************************************************//**
1428:Generated_Source\PSoC4/CapSense_Processing.c **** *
1429:Generated_Source\PSoC4/CapSense_Processing.c **** * \brief
1430:Generated_Source\PSoC4/CapSense_Processing.c **** *   Processes the status of the Button widget.
1431:Generated_Source\PSoC4/CapSense_Processing.c **** *
1432:Generated_Source\PSoC4/CapSense_Processing.c **** * \details
1433:Generated_Source\PSoC4/CapSense_Processing.c **** *   This API processes the status of the CSD/CSX Button widget and
1434:Generated_Source\PSoC4/CapSense_Processing.c **** *   CSX Matrix Button widget. It applies the hysteresis and de-bounce algorithm
1435:Generated_Source\PSoC4/CapSense_Processing.c **** *   to each sensor difference value. This API is expected to be called
1436:Generated_Source\PSoC4/CapSense_Processing.c **** *   after each new widget scan. If it is called multiple times for the same
1437:Generated_Source\PSoC4/CapSense_Processing.c **** *   scan data, the de-bounce algorithm will not work properly.
1438:Generated_Source\PSoC4/CapSense_Processing.c **** *
1439:Generated_Source\PSoC4/CapSense_Processing.c **** *   This API does not update any Data Structure registers
1440:Generated_Source\PSoC4/CapSense_Processing.c **** *   except the de-bounce counters.
1441:Generated_Source\PSoC4/CapSense_Processing.c **** *
1442:Generated_Source\PSoC4/CapSense_Processing.c **** * \param currStatus   The current status of the widget sensors.
1443:Generated_Source\PSoC4/CapSense_Processing.c **** * \param ptrFlashWdgt The pointer to the Flash Widget Object.
1444:Generated_Source\PSoC4/CapSense_Processing.c **** *
1445:Generated_Source\PSoC4/CapSense_Processing.c **** * \return Returns the status of the widget's sensors. Bit #0 - corresponds to Sensor #0.
1446:Generated_Source\PSoC4/CapSense_Processing.c **** *
1447:Generated_Source\PSoC4/CapSense_Processing.c **** *******************************************************************************/
1448:Generated_Source\PSoC4/CapSense_Processing.c **** uint32 CapSense_DpProcessButton(uint32 currStatus, CapSense_FLASH_WD_STRUCT const *ptrFlashWdgt)
1449:Generated_Source\PSoC4/CapSense_Processing.c **** {
 437              		.loc 1 1449 0
 438              		.cfi_startproc
 439              		@ args = 0, pretend = 0, frame = 0
 440              		@ frame_needed = 0, uses_anonymous_args = 0
 441              	.LVL72:
 442 0000 F0B5     		push	{r4, r5, r6, r7, lr}
 443              		.cfi_def_cfa_offset 20
 444              		.cfi_offset 4, -20
 445              		.cfi_offset 5, -16
 446              		.cfi_offset 6, -12
 447              		.cfi_offset 7, -8
 448              		.cfi_offset 14, -4
1450:Generated_Source\PSoC4/CapSense_Processing.c ****     uint32 snsCnt;
1451:Generated_Source\PSoC4/CapSense_Processing.c ****     uint32 snsMask;
1452:Generated_Source\PSoC4/CapSense_Processing.c ****     uint32 newStatus;
1453:Generated_Source\PSoC4/CapSense_Processing.c ****     uint32 touchTh;
1454:Generated_Source\PSoC4/CapSense_Processing.c ****     CapSense_RAM_SNS_STRUCT *ptrSnsTmp;
ARM GAS  C:\Users\MIHAILO\AppData\Local\Temp\ccp4p2Le.s 			page 35


1455:Generated_Source\PSoC4/CapSense_Processing.c ****     CapSense_RAM_WD_BASE_STRUCT *ptrRamWdgt;
1456:Generated_Source\PSoC4/CapSense_Processing.c ****     uint8 * ptrDebounceCnt;
1457:Generated_Source\PSoC4/CapSense_Processing.c **** 
1458:Generated_Source\PSoC4/CapSense_Processing.c ****     snsCnt = ptrFlashWdgt->totalNumSns;
 449              		.loc 1 1458 0
 450 0002 0A8B     		ldrh	r2, [r1, #24]
 451              	.LVL73:
1459:Generated_Source\PSoC4/CapSense_Processing.c ****     ptrSnsTmp = ptrFlashWdgt->ptr2SnsRam;
 452              		.loc 1 1459 0
 453 0004 8D68     		ldr	r5, [r1, #8]
 454              	.LVL74:
1460:Generated_Source\PSoC4/CapSense_Processing.c ****     ptrRamWdgt = (CapSense_RAM_WD_BASE_STRUCT *)ptrFlashWdgt->ptr2WdgtRam;
 455              		.loc 1 1460 0
 456 0006 4F68     		ldr	r7, [r1, #4]
 457              	.LVL75:
1461:Generated_Source\PSoC4/CapSense_Processing.c ****     ptrDebounceCnt = ptrFlashWdgt->ptr2DebounceArr;
 458              		.loc 1 1461 0
 459 0008 0B69     		ldr	r3, [r1, #16]
 460              	.LVL76:
1462:Generated_Source\PSoC4/CapSense_Processing.c **** 
1463:Generated_Source\PSoC4/CapSense_Processing.c ****     /* Go through all widget's sensors */
1464:Generated_Source\PSoC4/CapSense_Processing.c ****     snsMask = 1Lu;
 461              		.loc 1 1464 0
 462 000a 0121     		movs	r1, #1
 463              	.LVL77:
1465:Generated_Source\PSoC4/CapSense_Processing.c ****     for (; snsCnt-- > 0u; )
 464              		.loc 1 1465 0
 465 000c 25E0     		b	.L23
 466              	.LVL78:
 467              	.L31:
1466:Generated_Source\PSoC4/CapSense_Processing.c ****     {
1467:Generated_Source\PSoC4/CapSense_Processing.c ****         /* Calculate touch threshold taking into account hysteresis
1468:Generated_Source\PSoC4/CapSense_Processing.c ****            and current sensor state. */
1469:Generated_Source\PSoC4/CapSense_Processing.c ****         touchTh = (0u == (currStatus & snsMask)) ?
 468              		.loc 1 1469 0
 469 000e 0C00     		movs	r4, r1
 470              	.LVL79:
 471 0010 0440     		ands	r4, r0
1470:Generated_Source\PSoC4/CapSense_Processing.c ****                   ((uint32)ptrRamWdgt->fingerTh + ptrRamWdgt->hysteresis) :
 472              		.loc 1 1470 0
 473 0012 03D1     		bne	.L24
 474              		.loc 1 1470 0 is_stmt 0 discriminator 1
 475 0014 7E88     		ldrh	r6, [r7, #2]
 476 0016 BA79     		ldrb	r2, [r7, #6]
 477 0018 B218     		adds	r2, r6, r2
 478 001a 02E0     		b	.L25
 479              	.L24:
1471:Generated_Source\PSoC4/CapSense_Processing.c ****                   ((uint32)ptrRamWdgt->fingerTh - ptrRamWdgt->hysteresis);
 480              		.loc 1 1471 0 is_stmt 1 discriminator 2
 481 001c 7A88     		ldrh	r2, [r7, #2]
 482 001e BE79     		ldrb	r6, [r7, #6]
1470:Generated_Source\PSoC4/CapSense_Processing.c ****                   ((uint32)ptrRamWdgt->fingerTh + ptrRamWdgt->hysteresis) :
 483              		.loc 1 1470 0 discriminator 2
 484 0020 921B     		subs	r2, r2, r6
 485              	.L25:
 486              	.LVL80:
1472:Generated_Source\PSoC4/CapSense_Processing.c **** 
ARM GAS  C:\Users\MIHAILO\AppData\Local\Temp\ccp4p2Le.s 			page 36


1473:Generated_Source\PSoC4/CapSense_Processing.c ****         /* Determine new potential sensor state */
1474:Generated_Source\PSoC4/CapSense_Processing.c ****         newStatus = (ptrSnsTmp->diff > touchTh) ? snsMask : 0u;
 487              		.loc 1 1474 0
 488 0022 EE88     		ldrh	r6, [r5, #6]
 489 0024 B242     		cmp	r2, r6
 490 0026 01D3     		bcc	.L32
 491 0028 0022     		movs	r2, #0
 492              	.LVL81:
 493 002a 00E0     		b	.L26
 494              	.LVL82:
 495              	.L32:
 496 002c 0A00     		movs	r2, r1
 497              	.LVL83:
 498              	.L26:
1475:Generated_Source\PSoC4/CapSense_Processing.c **** 
1476:Generated_Source\PSoC4/CapSense_Processing.c ****         /* Sensor state changed ? */
1477:Generated_Source\PSoC4/CapSense_Processing.c ****         if (newStatus != (currStatus & snsMask))
 499              		.loc 1 1477 0 discriminator 4
 500 002e A242     		cmp	r2, r4
 501 0030 02D0     		beq	.L27
1478:Generated_Source\PSoC4/CapSense_Processing.c ****         {
1479:Generated_Source\PSoC4/CapSense_Processing.c ****             /* Decrement de-bounce counter */
1480:Generated_Source\PSoC4/CapSense_Processing.c ****             (*ptrDebounceCnt)--;
 502              		.loc 1 1480 0
 503 0032 1E78     		ldrb	r6, [r3]
 504 0034 013E     		subs	r6, r6, #1
 505 0036 1E70     		strb	r6, [r3]
 506              	.L27:
1481:Generated_Source\PSoC4/CapSense_Processing.c ****         }
1482:Generated_Source\PSoC4/CapSense_Processing.c **** 
1483:Generated_Source\PSoC4/CapSense_Processing.c ****         /*
1484:Generated_Source\PSoC4/CapSense_Processing.c ****         *  This piece of code has two objectives:
1485:Generated_Source\PSoC4/CapSense_Processing.c ****         *  1. Reset de-bounce counter if the sensor state did not change.
1486:Generated_Source\PSoC4/CapSense_Processing.c ****         *     (It is possible that during previous processing cycles sensor
1487:Generated_Source\PSoC4/CapSense_Processing.c ****         *     was active and de-bounce counter was decremented.)
1488:Generated_Source\PSoC4/CapSense_Processing.c ****         *  2. Set new sensor state after successful de-bounce.
1489:Generated_Source\PSoC4/CapSense_Processing.c ****         */
1490:Generated_Source\PSoC4/CapSense_Processing.c ****         if ((newStatus == (currStatus & snsMask)) || (0u == (*ptrDebounceCnt)))
 507              		.loc 1 1490 0
 508 0038 A242     		cmp	r2, r4
 509 003a 02D0     		beq	.L28
 510              		.loc 1 1490 0 is_stmt 0 discriminator 1
 511 003c 1C78     		ldrb	r4, [r3]
 512 003e 002C     		cmp	r4, #0
 513 0040 07D1     		bne	.L29
 514              	.L28:
1491:Generated_Source\PSoC4/CapSense_Processing.c ****         {
1492:Generated_Source\PSoC4/CapSense_Processing.c ****             /* Set new sensor status */
1493:Generated_Source\PSoC4/CapSense_Processing.c ****             currStatus &= ~snsMask;
 515              		.loc 1 1493 0 is_stmt 1
 516 0042 8843     		bics	r0, r1
 517              	.LVL84:
1494:Generated_Source\PSoC4/CapSense_Processing.c ****             currStatus |= newStatus;
 518              		.loc 1 1494 0
 519 0044 1043     		orrs	r0, r2
 520              	.LVL85:
1495:Generated_Source\PSoC4/CapSense_Processing.c **** 
ARM GAS  C:\Users\MIHAILO\AppData\Local\Temp\ccp4p2Le.s 			page 37


1496:Generated_Source\PSoC4/CapSense_Processing.c ****             /* Reset de-bounce counter */
1497:Generated_Source\PSoC4/CapSense_Processing.c ****             #if (0u != CapSense_OFF_DEBOUNCE_EN)
1498:Generated_Source\PSoC4/CapSense_Processing.c ****                 *ptrDebounceCnt = (0Lu == newStatus) ? ptrRamWdgt->onDebounce : ptrRamWdgt->offDebo
1499:Generated_Source\PSoC4/CapSense_Processing.c ****             #else
1500:Generated_Source\PSoC4/CapSense_Processing.c ****                 *ptrDebounceCnt = (0Lu == newStatus) ? ptrRamWdgt->onDebounce : DEFAULT_OFF_DEBOUNC
 521              		.loc 1 1500 0
 522 0046 002A     		cmp	r2, #0
 523 0048 01D1     		bne	.L33
 524              		.loc 1 1500 0 is_stmt 0 discriminator 1
 525 004a FA79     		ldrb	r2, [r7, #7]
 526              	.LVL86:
 527 004c 00E0     		b	.L30
 528              	.LVL87:
 529              	.L33:
 530              		.loc 1 1500 0
 531 004e 0122     		movs	r2, #1
 532              	.LVL88:
 533              	.L30:
 534              		.loc 1 1500 0 discriminator 4
 535 0050 1A70     		strb	r2, [r3]
 536              	.L29:
1501:Generated_Source\PSoC4/CapSense_Processing.c ****             #endif /* #if (0u != CapSense_OFF_DEBOUNCE_EN) */
1502:Generated_Source\PSoC4/CapSense_Processing.c ****         }
1503:Generated_Source\PSoC4/CapSense_Processing.c **** 
1504:Generated_Source\PSoC4/CapSense_Processing.c ****         /* Move mask to the next sensor */
1505:Generated_Source\PSoC4/CapSense_Processing.c ****         snsMask <<= 1u;
 537              		.loc 1 1505 0 is_stmt 1
 538 0052 4900     		lsls	r1, r1, #1
 539              	.LVL89:
1506:Generated_Source\PSoC4/CapSense_Processing.c **** 
1507:Generated_Source\PSoC4/CapSense_Processing.c ****         ptrSnsTmp++;
 540              		.loc 1 1507 0
 541 0054 0A35     		adds	r5, r5, #10
 542              	.LVL90:
1508:Generated_Source\PSoC4/CapSense_Processing.c ****         ptrDebounceCnt++;
 543              		.loc 1 1508 0
 544 0056 0133     		adds	r3, r3, #1
 545              	.LVL91:
1465:Generated_Source\PSoC4/CapSense_Processing.c ****     {
 546              		.loc 1 1465 0
 547 0058 6246     		mov	r2, ip
 548              	.LVL92:
 549              	.L23:
 550 005a 541E     		subs	r4, r2, #1
 551 005c A446     		mov	ip, r4
 552              	.LVL93:
 553 005e 002A     		cmp	r2, #0
 554 0060 D5D1     		bne	.L31
1509:Generated_Source\PSoC4/CapSense_Processing.c ****     }
1510:Generated_Source\PSoC4/CapSense_Processing.c **** 
1511:Generated_Source\PSoC4/CapSense_Processing.c ****     return currStatus;
1512:Generated_Source\PSoC4/CapSense_Processing.c **** }
 555              		.loc 1 1512 0
 556              		@ sp needed
 557              	.LVL94:
 558              	.LVL95:
 559              	.LVL96:
ARM GAS  C:\Users\MIHAILO\AppData\Local\Temp\ccp4p2Le.s 			page 38


 560 0062 F0BD     		pop	{r4, r5, r6, r7, pc}
 561              		.cfi_endproc
 562              	.LFE6:
 563              		.size	CapSense_DpProcessButton, .-CapSense_DpProcessButton
 564              		.section	.text.CapSense_DpProcessCsdWidgetStatus,"ax",%progbits
 565              		.align	2
 566              		.global	CapSense_DpProcessCsdWidgetStatus
 567              		.code	16
 568              		.thumb_func
 569              		.type	CapSense_DpProcessCsdWidgetStatus, %function
 570              	CapSense_DpProcessCsdWidgetStatus:
 571              	.LFB3:
1247:Generated_Source\PSoC4/CapSense_Processing.c ****     uint32 sensorStatus;
 572              		.loc 1 1247 0
 573              		.cfi_startproc
 574              		@ args = 0, pretend = 0, frame = 0
 575              		@ frame_needed = 0, uses_anonymous_args = 0
 576              	.LVL97:
 577 0000 70B5     		push	{r4, r5, r6, lr}
 578              		.cfi_def_cfa_offset 16
 579              		.cfi_offset 4, -16
 580              		.cfi_offset 5, -12
 581              		.cfi_offset 6, -8
 582              		.cfi_offset 14, -4
 583 0002 0400     		movs	r4, r0
1253:Generated_Source\PSoC4/CapSense_Processing.c ****     sensorStatus = CapSense_dsRam.snsStatus[widgetId];
 584              		.loc 1 1253 0
 585 0004 8A7E     		ldrb	r2, [r1, #26]
 586              	.LVL98:
1254:Generated_Source\PSoC4/CapSense_Processing.c **** 
 587              		.loc 1 1254 0
 588 0006 134B     		ldr	r3, .L41
 589 0008 1B18     		adds	r3, r3, r0
 590 000a 1D7E     		ldrb	r5, [r3, #24]
 591              	.LVL99:
1256:Generated_Source\PSoC4/CapSense_Processing.c ****     {
 592              		.loc 1 1256 0
 593 000c 012A     		cmp	r2, #1
 594 000e 04D1     		bne	.L40
1260:Generated_Source\PSoC4/CapSense_Processing.c ****             break;
 595              		.loc 1 1260 0
 596 0010 2800     		movs	r0, r5
 597              	.LVL100:
 598 0012 FFF7FEFF 		bl	CapSense_DpProcessButton
 599              	.LVL101:
 600 0016 0500     		movs	r5, r0
 601              	.LVL102:
1261:Generated_Source\PSoC4/CapSense_Processing.c ****     #endif /* #if (0u != CapSense_BUTTON_WIDGET_EN) */
 602              		.loc 1 1261 0
 603 0018 02E0     		b	.L37
 604              	.LVL103:
 605              	.L40:
1293:Generated_Source\PSoC4/CapSense_Processing.c ****         break;
 606              		.loc 1 1293 0 discriminator 1
 607 001a 0020     		movs	r0, #0
 608              	.LVL104:
 609 001c FFF7FEFF 		bl	CyHalt
ARM GAS  C:\Users\MIHAILO\AppData\Local\Temp\ccp4p2Le.s 			page 39


 610              	.LVL105:
 611              	.L37:
1297:Generated_Source\PSoC4/CapSense_Processing.c **** 
 612              		.loc 1 1297 0
 613 0020 0C4B     		ldr	r3, .L41
 614 0022 1B19     		adds	r3, r3, r4
 615 0024 1D76     		strb	r5, [r3, #24]
1300:Generated_Source\PSoC4/CapSense_Processing.c ****     wdStatusMask = CapSense_GET_WDGT_STATUS_MASK(widgetId);
 616              		.loc 1 1300 0
 617 0026 6309     		lsrs	r3, r4, #5
 618              	.LVL106:
1301:Generated_Source\PSoC4/CapSense_Processing.c **** 
 619              		.loc 1 1301 0
 620 0028 1F22     		movs	r2, #31
 621 002a 1440     		ands	r4, r2
 622              	.LVL107:
 623 002c 1E3A     		subs	r2, r2, #30
 624 002e A240     		lsls	r2, r2, r4
 625              	.LVL108:
1304:Generated_Source\PSoC4/CapSense_Processing.c ****     {
 626              		.loc 1 1304 0
 627 0030 002D     		cmp	r5, #0
 628 0032 07D1     		bne	.L38
1306:Generated_Source\PSoC4/CapSense_Processing.c ****     }
 629              		.loc 1 1306 0
 630 0034 0433     		adds	r3, r3, #4
 631              	.LVL109:
 632 0036 9B00     		lsls	r3, r3, #2
 633              	.LVL110:
 634 0038 0649     		ldr	r1, .L41
 635 003a CB18     		adds	r3, r1, r3
 636 003c 5968     		ldr	r1, [r3, #4]
 637 003e 9143     		bics	r1, r2
 638 0040 5960     		str	r1, [r3, #4]
 639 0042 06E0     		b	.L34
 640              	.LVL111:
 641              	.L38:
1310:Generated_Source\PSoC4/CapSense_Processing.c ****     }
 642              		.loc 1 1310 0
 643 0044 0433     		adds	r3, r3, #4
 644              	.LVL112:
 645 0046 9B00     		lsls	r3, r3, #2
 646              	.LVL113:
 647 0048 0249     		ldr	r1, .L41
 648 004a CB18     		adds	r3, r1, r3
 649 004c 5968     		ldr	r1, [r3, #4]
 650 004e 0A43     		orrs	r2, r1
 651              	.LVL114:
 652 0050 5A60     		str	r2, [r3, #4]
 653              	.L34:
1312:Generated_Source\PSoC4/CapSense_Processing.c **** #endif /* #if (0u != CapSense_TOTAL_CSD_WIDGETS) */
 654              		.loc 1 1312 0
 655              		@ sp needed
 656              	.LVL115:
 657              	.LVL116:
 658 0052 70BD     		pop	{r4, r5, r6, pc}
 659              	.L42:
ARM GAS  C:\Users\MIHAILO\AppData\Local\Temp\ccp4p2Le.s 			page 40


 660              		.align	2
 661              	.L41:
 662 0054 00000000 		.word	CapSense_dsRam
 663              		.cfi_endproc
 664              	.LFE3:
 665              		.size	CapSense_DpProcessCsdWidgetStatus, .-CapSense_DpProcessCsdWidgetStatus
 666              		.text
 667              	.Letext0:
 668              		.file 2 "Generated_Source\\PSoC4\\cytypes.h"
 669              		.file 3 "c:\\program files (x86)\\cypress\\psoc creator\\4.4\\psoc creator\\import\\gnu\\arm\\5.4.
 670              		.file 4 "Generated_Source\\PSoC4\\CapSense_Configuration.h"
 671              		.file 5 "Generated_Source\\PSoC4\\CapSense_SmartSense_LL.h"
 672              		.file 6 "Generated_Source\\PSoC4\\CapSense_Structure.h"
 673              		.file 7 "c:\\program files (x86)\\cypress\\psoc creator\\4.4\\psoc creator\\import\\gnu\\arm\\5.4.
 674              		.file 8 "Generated_Source\\PSoC4\\CapSense_Filter.h"
 675              		.file 9 "Generated_Source\\PSoC4\\CyLib.h"
 676              		.section	.debug_info,"",%progbits
 677              	.Ldebug_info0:
 678 0000 900B0000 		.4byte	0xb90
 679 0004 0400     		.2byte	0x4
 680 0006 00000000 		.4byte	.Ldebug_abbrev0
 681 000a 04       		.byte	0x4
 682 000b 01       		.uleb128 0x1
 683 000c BA020000 		.4byte	.LASF140
 684 0010 0C       		.byte	0xc
 685 0011 6A040000 		.4byte	.LASF141
 686 0015 14010000 		.4byte	.LASF142
 687 0019 00000000 		.4byte	.Ldebug_ranges0+0
 688 001d 00000000 		.4byte	0
 689 0021 00000000 		.4byte	.Ldebug_line0
 690 0025 02       		.uleb128 0x2
 691 0026 01       		.byte	0x1
 692 0027 06       		.byte	0x6
 693 0028 2B080000 		.4byte	.LASF0
 694 002c 02       		.uleb128 0x2
 695 002d 01       		.byte	0x1
 696 002e 08       		.byte	0x8
 697 002f B1070000 		.4byte	.LASF1
 698 0033 02       		.uleb128 0x2
 699 0034 02       		.byte	0x2
 700 0035 05       		.byte	0x5
 701 0036 57060000 		.4byte	.LASF2
 702 003a 02       		.uleb128 0x2
 703 003b 02       		.byte	0x2
 704 003c 07       		.byte	0x7
 705 003d 3C080000 		.4byte	.LASF3
 706 0041 02       		.uleb128 0x2
 707 0042 04       		.byte	0x4
 708 0043 05       		.byte	0x5
 709 0044 92060000 		.4byte	.LASF4
 710 0048 02       		.uleb128 0x2
 711 0049 04       		.byte	0x4
 712 004a 07       		.byte	0x7
 713 004b 58070000 		.4byte	.LASF5
 714 004f 02       		.uleb128 0x2
 715 0050 08       		.byte	0x8
 716 0051 05       		.byte	0x5
ARM GAS  C:\Users\MIHAILO\AppData\Local\Temp\ccp4p2Le.s 			page 41


 717 0052 D4040000 		.4byte	.LASF6
 718 0056 02       		.uleb128 0x2
 719 0057 08       		.byte	0x8
 720 0058 07       		.byte	0x7
 721 0059 38020000 		.4byte	.LASF7
 722 005d 03       		.uleb128 0x3
 723 005e 04       		.byte	0x4
 724 005f 05       		.byte	0x5
 725 0060 696E7400 		.ascii	"int\000"
 726 0064 02       		.uleb128 0x2
 727 0065 04       		.byte	0x4
 728 0066 07       		.byte	0x7
 729 0067 D6000000 		.4byte	.LASF8
 730 006b 04       		.uleb128 0x4
 731 006c 64080000 		.4byte	.LASF9
 732 0070 02       		.byte	0x2
 733 0071 FB01     		.2byte	0x1fb
 734 0073 2C000000 		.4byte	0x2c
 735 0077 04       		.uleb128 0x4
 736 0078 51040000 		.4byte	.LASF10
 737 007c 02       		.byte	0x2
 738 007d FC01     		.2byte	0x1fc
 739 007f 3A000000 		.4byte	0x3a
 740 0083 04       		.uleb128 0x4
 741 0084 97050000 		.4byte	.LASF11
 742 0088 02       		.byte	0x2
 743 0089 FD01     		.2byte	0x1fd
 744 008b 48000000 		.4byte	0x48
 745 008f 04       		.uleb128 0x4
 746 0090 F3010000 		.4byte	.LASF12
 747 0094 02       		.byte	0x2
 748 0095 0002     		.2byte	0x200
 749 0097 41000000 		.4byte	0x41
 750 009b 02       		.uleb128 0x2
 751 009c 04       		.byte	0x4
 752 009d 04       		.byte	0x4
 753 009e ED010000 		.4byte	.LASF13
 754 00a2 02       		.uleb128 0x2
 755 00a3 08       		.byte	0x8
 756 00a4 04       		.byte	0x4
 757 00a5 6A080000 		.4byte	.LASF14
 758 00a9 02       		.uleb128 0x2
 759 00aa 01       		.byte	0x1
 760 00ab 08       		.byte	0x8
 761 00ac 0B040000 		.4byte	.LASF15
 762 00b0 05       		.uleb128 0x5
 763 00b1 83000000 		.4byte	0x83
 764 00b5 06       		.uleb128 0x6
 765 00b6 79030000 		.4byte	.LASF16
 766 00ba 03       		.byte	0x3
 767 00bb D8       		.byte	0xd8
 768 00bc 64000000 		.4byte	0x64
 769 00c0 02       		.uleb128 0x2
 770 00c1 08       		.byte	0x8
 771 00c2 04       		.byte	0x4
 772 00c3 E0050000 		.4byte	.LASF17
 773 00c7 02       		.uleb128 0x2
ARM GAS  C:\Users\MIHAILO\AppData\Local\Temp\ccp4p2Le.s 			page 42


 774 00c8 04       		.byte	0x4
 775 00c9 07       		.byte	0x7
 776 00ca 4F070000 		.4byte	.LASF18
 777 00ce 07       		.uleb128 0x7
 778 00cf 04       		.byte	0x4
 779 00d0 04       		.uleb128 0x4
 780 00d1 01080000 		.4byte	.LASF19
 781 00d5 04       		.byte	0x4
 782 00d6 1E01     		.2byte	0x11e
 783 00d8 77000000 		.4byte	0x77
 784 00dc 04       		.uleb128 0x4
 785 00dd 97040000 		.4byte	.LASF20
 786 00e1 04       		.byte	0x4
 787 00e2 2201     		.2byte	0x122
 788 00e4 6B000000 		.4byte	0x6b
 789 00e8 08       		.uleb128 0x8
 790 00e9 0C       		.byte	0xc
 791 00ea 05       		.byte	0x5
 792 00eb 75       		.byte	0x75
 793 00ec 45010000 		.4byte	0x145
 794 00f0 09       		.uleb128 0x9
 795 00f1 8A080000 		.4byte	.LASF21
 796 00f5 05       		.byte	0x5
 797 00f6 7A       		.byte	0x7a
 798 00f7 77000000 		.4byte	0x77
 799 00fb 00       		.byte	0
 800 00fc 09       		.uleb128 0x9
 801 00fd 91080000 		.4byte	.LASF22
 802 0101 05       		.byte	0x5
 803 0102 7E       		.byte	0x7e
 804 0103 77000000 		.4byte	0x77
 805 0107 02       		.byte	0x2
 806 0108 09       		.uleb128 0x9
 807 0109 98080000 		.4byte	.LASF23
 808 010d 05       		.byte	0x5
 809 010e 82       		.byte	0x82
 810 010f 77000000 		.4byte	0x77
 811 0113 04       		.byte	0x4
 812 0114 09       		.uleb128 0x9
 813 0115 9F080000 		.4byte	.LASF24
 814 0119 05       		.byte	0x5
 815 011a 86       		.byte	0x86
 816 011b 77000000 		.4byte	0x77
 817 011f 06       		.byte	0x6
 818 0120 09       		.uleb128 0x9
 819 0121 A6080000 		.4byte	.LASF25
 820 0125 05       		.byte	0x5
 821 0126 8A       		.byte	0x8a
 822 0127 77000000 		.4byte	0x77
 823 012b 08       		.byte	0x8
 824 012c 09       		.uleb128 0x9
 825 012d AD080000 		.4byte	.LASF26
 826 0131 05       		.byte	0x5
 827 0132 8E       		.byte	0x8e
 828 0133 6B000000 		.4byte	0x6b
 829 0137 0A       		.byte	0xa
 830 0138 09       		.uleb128 0x9
ARM GAS  C:\Users\MIHAILO\AppData\Local\Temp\ccp4p2Le.s 			page 43


 831 0139 B4080000 		.4byte	.LASF27
 832 013d 05       		.byte	0x5
 833 013e 92       		.byte	0x92
 834 013f 6B000000 		.4byte	0x6b
 835 0143 0B       		.byte	0xb
 836 0144 00       		.byte	0
 837 0145 06       		.uleb128 0x6
 838 0146 DE030000 		.4byte	.LASF28
 839 014a 05       		.byte	0x5
 840 014b 93       		.byte	0x93
 841 014c E8000000 		.4byte	0xe8
 842 0150 08       		.uleb128 0x8
 843 0151 06       		.byte	0x6
 844 0152 05       		.byte	0x5
 845 0153 9B       		.byte	0x9b
 846 0154 89010000 		.4byte	0x189
 847 0158 09       		.uleb128 0x9
 848 0159 82070000 		.4byte	.LASF29
 849 015d 05       		.byte	0x5
 850 015e A0       		.byte	0xa0
 851 015f 77000000 		.4byte	0x77
 852 0163 00       		.byte	0
 853 0164 09       		.uleb128 0x9
 854 0165 03040000 		.4byte	.LASF30
 855 0169 05       		.byte	0x5
 856 016a A5       		.byte	0xa5
 857 016b 6B000000 		.4byte	0x6b
 858 016f 02       		.byte	0x2
 859 0170 09       		.uleb128 0x9
 860 0171 44050000 		.4byte	.LASF31
 861 0175 05       		.byte	0x5
 862 0176 AA       		.byte	0xaa
 863 0177 6B000000 		.4byte	0x6b
 864 017b 03       		.byte	0x3
 865 017c 09       		.uleb128 0x9
 866 017d 87030000 		.4byte	.LASF32
 867 0181 05       		.byte	0x5
 868 0182 AF       		.byte	0xaf
 869 0183 6B000000 		.4byte	0x6b
 870 0187 04       		.byte	0x4
 871 0188 00       		.byte	0
 872 0189 06       		.uleb128 0x6
 873 018a 9B060000 		.4byte	.LASF33
 874 018e 05       		.byte	0x5
 875 018f B0       		.byte	0xb0
 876 0190 50010000 		.4byte	0x150
 877 0194 0A       		.uleb128 0xa
 878 0195 01       		.byte	0x1
 879 0196 2C000000 		.4byte	0x2c
 880 019a 06       		.byte	0x6
 881 019b 61       		.byte	0x61
 882 019c CB010000 		.4byte	0x1cb
 883 01a0 0B       		.uleb128 0xb
 884 01a1 E6060000 		.4byte	.LASF34
 885 01a5 01       		.byte	0x1
 886 01a6 0B       		.uleb128 0xb
 887 01a7 B6050000 		.4byte	.LASF35
ARM GAS  C:\Users\MIHAILO\AppData\Local\Temp\ccp4p2Le.s 			page 44


 888 01ab 02       		.byte	0x2
 889 01ac 0B       		.uleb128 0xb
 890 01ad 92030000 		.4byte	.LASF36
 891 01b1 03       		.byte	0x3
 892 01b2 0B       		.uleb128 0xb
 893 01b3 4F020000 		.4byte	.LASF37
 894 01b7 04       		.byte	0x4
 895 01b8 0B       		.uleb128 0xb
 896 01b9 7C010000 		.4byte	.LASF38
 897 01bd 05       		.byte	0x5
 898 01be 0B       		.uleb128 0xb
 899 01bf 11000000 		.4byte	.LASF39
 900 01c3 06       		.byte	0x6
 901 01c4 0B       		.uleb128 0xb
 902 01c5 30060000 		.4byte	.LASF40
 903 01c9 07       		.byte	0x7
 904 01ca 00       		.byte	0
 905 01cb 06       		.uleb128 0x6
 906 01cc 74050000 		.4byte	.LASF41
 907 01d0 06       		.byte	0x6
 908 01d1 69       		.byte	0x69
 909 01d2 94010000 		.4byte	0x194
 910 01d6 08       		.uleb128 0x8
 911 01d7 14       		.byte	0x14
 912 01d8 06       		.byte	0x6
 913 01d9 AD       		.byte	0xad
 914 01da 7B020000 		.4byte	0x27b
 915 01de 09       		.uleb128 0x9
 916 01df 58040000 		.4byte	.LASF42
 917 01e3 06       		.byte	0x6
 918 01e4 B2       		.byte	0xb2
 919 01e5 77000000 		.4byte	0x77
 920 01e9 00       		.byte	0
 921 01ea 09       		.uleb128 0x9
 922 01eb 82070000 		.4byte	.LASF29
 923 01ef 06       		.byte	0x6
 924 01f0 B7       		.byte	0xb7
 925 01f1 D0000000 		.4byte	0xd0
 926 01f5 02       		.byte	0x2
 927 01f6 09       		.uleb128 0x9
 928 01f7 03040000 		.4byte	.LASF30
 929 01fb 06       		.byte	0x6
 930 01fc BC       		.byte	0xbc
 931 01fd 6B000000 		.4byte	0x6b
 932 0201 04       		.byte	0x4
 933 0202 09       		.uleb128 0x9
 934 0203 44050000 		.4byte	.LASF31
 935 0207 06       		.byte	0x6
 936 0208 C1       		.byte	0xc1
 937 0209 6B000000 		.4byte	0x6b
 938 020d 05       		.byte	0x5
 939 020e 09       		.uleb128 0x9
 940 020f 87030000 		.4byte	.LASF32
 941 0213 06       		.byte	0x6
 942 0214 C7       		.byte	0xc7
 943 0215 6B000000 		.4byte	0x6b
 944 0219 06       		.byte	0x6
ARM GAS  C:\Users\MIHAILO\AppData\Local\Temp\ccp4p2Le.s 			page 45


 945 021a 09       		.uleb128 0x9
 946 021b EA040000 		.4byte	.LASF43
 947 021f 06       		.byte	0x6
 948 0220 CD       		.byte	0xcd
 949 0221 6B000000 		.4byte	0x6b
 950 0225 07       		.byte	0x7
 951 0226 09       		.uleb128 0x9
 952 0227 C7030000 		.4byte	.LASF44
 953 022b 06       		.byte	0x6
 954 022c D4       		.byte	0xd4
 955 022d DC000000 		.4byte	0xdc
 956 0231 08       		.byte	0x8
 957 0232 09       		.uleb128 0x9
 958 0233 6A070000 		.4byte	.LASF45
 959 0237 06       		.byte	0x6
 960 0238 DB       		.byte	0xdb
 961 0239 7B020000 		.4byte	0x27b
 962 023d 09       		.byte	0x9
 963 023e 09       		.uleb128 0x9
 964 023f D5010000 		.4byte	.LASF46
 965 0243 06       		.byte	0x6
 966 0244 E0       		.byte	0xe0
 967 0245 6B000000 		.4byte	0x6b
 968 0249 0A       		.byte	0xa
 969 024a 09       		.uleb128 0x9
 970 024b 24080000 		.4byte	.LASF47
 971 024f 06       		.byte	0x6
 972 0250 E8       		.byte	0xe8
 973 0251 77000000 		.4byte	0x77
 974 0255 0C       		.byte	0xc
 975 0256 09       		.uleb128 0x9
 976 0257 4A060000 		.4byte	.LASF48
 977 025b 06       		.byte	0x6
 978 025c ED       		.byte	0xed
 979 025d 6B000000 		.4byte	0x6b
 980 0261 0E       		.byte	0xe
 981 0262 09       		.uleb128 0x9
 982 0263 3A070000 		.4byte	.LASF49
 983 0267 06       		.byte	0x6
 984 0268 F3       		.byte	0xf3
 985 0269 77000000 		.4byte	0x77
 986 026d 10       		.byte	0x10
 987 026e 09       		.uleb128 0x9
 988 026f 80030000 		.4byte	.LASF50
 989 0273 06       		.byte	0x6
 990 0274 F8       		.byte	0xf8
 991 0275 77000000 		.4byte	0x77
 992 0279 12       		.byte	0x12
 993 027a 00       		.byte	0
 994 027b 0C       		.uleb128 0xc
 995 027c 6B000000 		.4byte	0x6b
 996 0280 8B020000 		.4byte	0x28b
 997 0284 0D       		.uleb128 0xd
 998 0285 C7000000 		.4byte	0xc7
 999 0289 00       		.byte	0
 1000 028a 00       		.byte	0
 1001 028b 06       		.uleb128 0x6
ARM GAS  C:\Users\MIHAILO\AppData\Local\Temp\ccp4p2Le.s 			page 46


 1002 028c 58050000 		.4byte	.LASF51
 1003 0290 06       		.byte	0x6
 1004 0291 F9       		.byte	0xf9
 1005 0292 D6010000 		.4byte	0x1d6
 1006 0296 08       		.uleb128 0x8
 1007 0297 14       		.byte	0x14
 1008 0298 06       		.byte	0x6
 1009 0299 FE       		.byte	0xfe
 1010 029a 48030000 		.4byte	0x348
 1011 029e 0E       		.uleb128 0xe
 1012 029f 58040000 		.4byte	.LASF42
 1013 02a3 06       		.byte	0x6
 1014 02a4 0301     		.2byte	0x103
 1015 02a6 77000000 		.4byte	0x77
 1016 02aa 00       		.byte	0
 1017 02ab 0E       		.uleb128 0xe
 1018 02ac 82070000 		.4byte	.LASF29
 1019 02b0 06       		.byte	0x6
 1020 02b1 0801     		.2byte	0x108
 1021 02b3 D0000000 		.4byte	0xd0
 1022 02b7 02       		.byte	0x2
 1023 02b8 0E       		.uleb128 0xe
 1024 02b9 03040000 		.4byte	.LASF30
 1025 02bd 06       		.byte	0x6
 1026 02be 0D01     		.2byte	0x10d
 1027 02c0 6B000000 		.4byte	0x6b
 1028 02c4 04       		.byte	0x4
 1029 02c5 0E       		.uleb128 0xe
 1030 02c6 44050000 		.4byte	.LASF31
 1031 02ca 06       		.byte	0x6
 1032 02cb 1201     		.2byte	0x112
 1033 02cd 6B000000 		.4byte	0x6b
 1034 02d1 05       		.byte	0x5
 1035 02d2 0E       		.uleb128 0xe
 1036 02d3 87030000 		.4byte	.LASF32
 1037 02d7 06       		.byte	0x6
 1038 02d8 1801     		.2byte	0x118
 1039 02da 6B000000 		.4byte	0x6b
 1040 02de 06       		.byte	0x6
 1041 02df 0E       		.uleb128 0xe
 1042 02e0 EA040000 		.4byte	.LASF43
 1043 02e4 06       		.byte	0x6
 1044 02e5 1E01     		.2byte	0x11e
 1045 02e7 6B000000 		.4byte	0x6b
 1046 02eb 07       		.byte	0x7
 1047 02ec 0E       		.uleb128 0xe
 1048 02ed C7030000 		.4byte	.LASF44
 1049 02f1 06       		.byte	0x6
 1050 02f2 2501     		.2byte	0x125
 1051 02f4 DC000000 		.4byte	0xdc
 1052 02f8 08       		.byte	0x8
 1053 02f9 0E       		.uleb128 0xe
 1054 02fa 6A070000 		.4byte	.LASF45
 1055 02fe 06       		.byte	0x6
 1056 02ff 2C01     		.2byte	0x12c
 1057 0301 7B020000 		.4byte	0x27b
 1058 0305 09       		.byte	0x9
ARM GAS  C:\Users\MIHAILO\AppData\Local\Temp\ccp4p2Le.s 			page 47


 1059 0306 0E       		.uleb128 0xe
 1060 0307 D5010000 		.4byte	.LASF46
 1061 030b 06       		.byte	0x6
 1062 030c 3101     		.2byte	0x131
 1063 030e 6B000000 		.4byte	0x6b
 1064 0312 0A       		.byte	0xa
 1065 0313 0E       		.uleb128 0xe
 1066 0314 24080000 		.4byte	.LASF47
 1067 0318 06       		.byte	0x6
 1068 0319 3901     		.2byte	0x139
 1069 031b 77000000 		.4byte	0x77
 1070 031f 0C       		.byte	0xc
 1071 0320 0E       		.uleb128 0xe
 1072 0321 4A060000 		.4byte	.LASF48
 1073 0325 06       		.byte	0x6
 1074 0326 3E01     		.2byte	0x13e
 1075 0328 6B000000 		.4byte	0x6b
 1076 032c 0E       		.byte	0xe
 1077 032d 0E       		.uleb128 0xe
 1078 032e 3A070000 		.4byte	.LASF49
 1079 0332 06       		.byte	0x6
 1080 0333 4401     		.2byte	0x144
 1081 0335 77000000 		.4byte	0x77
 1082 0339 10       		.byte	0x10
 1083 033a 0E       		.uleb128 0xe
 1084 033b 80030000 		.4byte	.LASF50
 1085 033f 06       		.byte	0x6
 1086 0340 4901     		.2byte	0x149
 1087 0342 77000000 		.4byte	0x77
 1088 0346 12       		.byte	0x12
 1089 0347 00       		.byte	0
 1090 0348 04       		.uleb128 0x4
 1091 0349 93070000 		.4byte	.LASF52
 1092 034d 06       		.byte	0x6
 1093 034e 4A01     		.2byte	0x14a
 1094 0350 96020000 		.4byte	0x296
 1095 0354 0F       		.uleb128 0xf
 1096 0355 14       		.byte	0x14
 1097 0356 06       		.byte	0x6
 1098 0357 5001     		.2byte	0x150
 1099 0359 6B030000 		.4byte	0x36b
 1100 035d 0E       		.uleb128 0xe
 1101 035e D8060000 		.4byte	.LASF53
 1102 0362 06       		.byte	0x6
 1103 0363 5501     		.2byte	0x155
 1104 0365 48030000 		.4byte	0x348
 1105 0369 00       		.byte	0
 1106 036a 00       		.byte	0
 1107 036b 04       		.uleb128 0x4
 1108 036c 93010000 		.4byte	.LASF54
 1109 0370 06       		.byte	0x6
 1110 0371 5601     		.2byte	0x156
 1111 0373 54030000 		.4byte	0x354
 1112 0377 0F       		.uleb128 0xf
 1113 0378 0A       		.byte	0xa
 1114 0379 06       		.byte	0x6
 1115 037a 5C01     		.2byte	0x15c
ARM GAS  C:\Users\MIHAILO\AppData\Local\Temp\ccp4p2Le.s 			page 48


 1116 037c CF030000 		.4byte	0x3cf
 1117 0380 10       		.uleb128 0x10
 1118 0381 72617700 		.ascii	"raw\000"
 1119 0385 06       		.byte	0x6
 1120 0386 6101     		.2byte	0x161
 1121 0388 CF030000 		.4byte	0x3cf
 1122 038c 00       		.byte	0
 1123 038d 0E       		.uleb128 0xe
 1124 038e 37080000 		.4byte	.LASF55
 1125 0392 06       		.byte	0x6
 1126 0393 6601     		.2byte	0x166
 1127 0395 CF030000 		.4byte	0x3cf
 1128 0399 02       		.byte	0x2
 1129 039a 0E       		.uleb128 0xe
 1130 039b 8B070000 		.4byte	.LASF56
 1131 039f 06       		.byte	0x6
 1132 03a0 6C01     		.2byte	0x16c
 1133 03a2 7B020000 		.4byte	0x27b
 1134 03a6 04       		.byte	0x4
 1135 03a7 0E       		.uleb128 0xe
 1136 03a8 CA060000 		.4byte	.LASF57
 1137 03ac 06       		.byte	0x6
 1138 03ad 7101     		.2byte	0x171
 1139 03af D0000000 		.4byte	0xd0
 1140 03b3 06       		.byte	0x6
 1141 03b4 0E       		.uleb128 0xe
 1142 03b5 71080000 		.4byte	.LASF58
 1143 03b9 06       		.byte	0x6
 1144 03ba 7601     		.2byte	0x176
 1145 03bc DF030000 		.4byte	0x3df
 1146 03c0 08       		.byte	0x8
 1147 03c1 0E       		.uleb128 0xe
 1148 03c2 CB040000 		.4byte	.LASF59
 1149 03c6 06       		.byte	0x6
 1150 03c7 7B01     		.2byte	0x17b
 1151 03c9 7B020000 		.4byte	0x27b
 1152 03cd 09       		.byte	0x9
 1153 03ce 00       		.byte	0
 1154 03cf 0C       		.uleb128 0xc
 1155 03d0 77000000 		.4byte	0x77
 1156 03d4 DF030000 		.4byte	0x3df
 1157 03d8 0D       		.uleb128 0xd
 1158 03d9 C7000000 		.4byte	0xc7
 1159 03dd 00       		.byte	0
 1160 03de 00       		.byte	0
 1161 03df 0C       		.uleb128 0xc
 1162 03e0 DC000000 		.4byte	0xdc
 1163 03e4 EF030000 		.4byte	0x3ef
 1164 03e8 0D       		.uleb128 0xd
 1165 03e9 C7000000 		.4byte	0xc7
 1166 03ed 00       		.byte	0
 1167 03ee 00       		.byte	0
 1168 03ef 04       		.uleb128 0x4
 1169 03f0 61030000 		.4byte	.LASF60
 1170 03f4 06       		.byte	0x6
 1171 03f5 7C01     		.2byte	0x17c
 1172 03f7 77030000 		.4byte	0x377
ARM GAS  C:\Users\MIHAILO\AppData\Local\Temp\ccp4p2Le.s 			page 49


 1173 03fb 0F       		.uleb128 0xf
 1174 03fc 0A       		.byte	0xa
 1175 03fd 06       		.byte	0x6
 1176 03fe 8201     		.2byte	0x182
 1177 0400 12040000 		.4byte	0x412
 1178 0404 0E       		.uleb128 0xe
 1179 0405 D8060000 		.4byte	.LASF53
 1180 0409 06       		.byte	0x6
 1181 040a 8701     		.2byte	0x187
 1182 040c 12040000 		.4byte	0x412
 1183 0410 00       		.byte	0
 1184 0411 00       		.byte	0
 1185 0412 0C       		.uleb128 0xc
 1186 0413 EF030000 		.4byte	0x3ef
 1187 0417 22040000 		.4byte	0x422
 1188 041b 0D       		.uleb128 0xd
 1189 041c C7000000 		.4byte	0xc7
 1190 0420 00       		.byte	0
 1191 0421 00       		.byte	0
 1192 0422 04       		.uleb128 0x4
 1193 0423 CD080000 		.4byte	.LASF61
 1194 0427 06       		.byte	0x6
 1195 0428 8801     		.2byte	0x188
 1196 042a FB030000 		.4byte	0x3fb
 1197 042e 0F       		.uleb128 0xf
 1198 042f 44       		.byte	0x44
 1199 0430 06       		.byte	0x6
 1200 0431 8E01     		.2byte	0x18e
 1201 0433 2F050000 		.4byte	0x52f
 1202 0437 0E       		.uleb128 0xe
 1203 0438 12060000 		.4byte	.LASF62
 1204 043c 06       		.byte	0x6
 1205 043d 9501     		.2byte	0x195
 1206 043f 77000000 		.4byte	0x77
 1207 0443 00       		.byte	0
 1208 0444 0E       		.uleb128 0xe
 1209 0445 BB080000 		.4byte	.LASF63
 1210 0449 06       		.byte	0x6
 1211 044a 9A01     		.2byte	0x19a
 1212 044c 77000000 		.4byte	0x77
 1213 0450 02       		.byte	0x2
 1214 0451 0E       		.uleb128 0xe
 1215 0452 0C010000 		.4byte	.LASF64
 1216 0456 06       		.byte	0x6
 1217 0457 9F01     		.2byte	0x19f
 1218 0459 77000000 		.4byte	0x77
 1219 045d 04       		.byte	0x4
 1220 045e 0E       		.uleb128 0xe
 1221 045f CF060000 		.4byte	.LASF65
 1222 0463 06       		.byte	0x6
 1223 0464 A501     		.2byte	0x1a5
 1224 0466 77000000 		.4byte	0x77
 1225 046a 06       		.byte	0x6
 1226 046b 0E       		.uleb128 0xe
 1227 046c E3000000 		.4byte	.LASF66
 1228 0470 06       		.byte	0x6
 1229 0471 AA01     		.2byte	0x1aa
ARM GAS  C:\Users\MIHAILO\AppData\Local\Temp\ccp4p2Le.s 			page 50


 1230 0473 77000000 		.4byte	0x77
 1231 0477 08       		.byte	0x8
 1232 0478 0E       		.uleb128 0xe
 1233 0479 63040000 		.4byte	.LASF67
 1234 047d 06       		.byte	0x6
 1235 047e AF01     		.2byte	0x1af
 1236 0480 B0000000 		.4byte	0xb0
 1237 0484 0C       		.byte	0xc
 1238 0485 0E       		.uleb128 0xe
 1239 0486 BF060000 		.4byte	.LASF68
 1240 048a 06       		.byte	0x6
 1241 048b B501     		.2byte	0x1b5
 1242 048d 2F050000 		.4byte	0x52f
 1243 0491 10       		.byte	0x10
 1244 0492 0E       		.uleb128 0xe
 1245 0493 44070000 		.4byte	.LASF69
 1246 0497 06       		.byte	0x6
 1247 0498 BC01     		.2byte	0x1bc
 1248 049a 2F050000 		.4byte	0x52f
 1249 049e 14       		.byte	0x14
 1250 049f 0E       		.uleb128 0xe
 1251 04a0 26060000 		.4byte	.LASF70
 1252 04a4 06       		.byte	0x6
 1253 04a5 CC01     		.2byte	0x1cc
 1254 04a7 7B020000 		.4byte	0x27b
 1255 04ab 18       		.byte	0x18
 1256 04ac 0E       		.uleb128 0xe
 1257 04ad 4D050000 		.4byte	.LASF71
 1258 04b1 06       		.byte	0x6
 1259 04b2 D201     		.2byte	0x1d2
 1260 04b4 77000000 		.4byte	0x77
 1261 04b8 1A       		.byte	0x1a
 1262 04b9 0E       		.uleb128 0xe
 1263 04ba 57030000 		.4byte	.LASF72
 1264 04be 06       		.byte	0x6
 1265 04bf D701     		.2byte	0x1d7
 1266 04c1 6B000000 		.4byte	0x6b
 1267 04c5 1C       		.byte	0x1c
 1268 04c6 0E       		.uleb128 0xe
 1269 04c7 FF040000 		.4byte	.LASF73
 1270 04cb 06       		.byte	0x6
 1271 04cc DC01     		.2byte	0x1dc
 1272 04ce 6B030000 		.4byte	0x36b
 1273 04d2 1E       		.byte	0x1e
 1274 04d3 0E       		.uleb128 0xe
 1275 04d4 29020000 		.4byte	.LASF74
 1276 04d8 06       		.byte	0x6
 1277 04d9 E101     		.2byte	0x1e1
 1278 04db 22040000 		.4byte	0x422
 1279 04df 32       		.byte	0x32
 1280 04e0 0E       		.uleb128 0xe
 1281 04e1 85000000 		.4byte	.LASF75
 1282 04e5 06       		.byte	0x6
 1283 04e6 E601     		.2byte	0x1e6
 1284 04e8 6B000000 		.4byte	0x6b
 1285 04ec 3C       		.byte	0x3c
 1286 04ed 0E       		.uleb128 0xe
ARM GAS  C:\Users\MIHAILO\AppData\Local\Temp\ccp4p2Le.s 			page 51


 1287 04ee 76020000 		.4byte	.LASF76
 1288 04f2 06       		.byte	0x6
 1289 04f3 EB01     		.2byte	0x1eb
 1290 04f5 6B000000 		.4byte	0x6b
 1291 04f9 3D       		.byte	0x3d
 1292 04fa 0E       		.uleb128 0xe
 1293 04fb FF050000 		.4byte	.LASF77
 1294 04ff 06       		.byte	0x6
 1295 0500 F001     		.2byte	0x1f0
 1296 0502 77000000 		.4byte	0x77
 1297 0506 3E       		.byte	0x3e
 1298 0507 0E       		.uleb128 0xe
 1299 0508 2D050000 		.4byte	.LASF78
 1300 050c 06       		.byte	0x6
 1301 050d F501     		.2byte	0x1f5
 1302 050f CF030000 		.4byte	0x3cf
 1303 0513 40       		.byte	0x40
 1304 0514 0E       		.uleb128 0xe
 1305 0515 51010000 		.4byte	.LASF79
 1306 0519 06       		.byte	0x6
 1307 051a FA01     		.2byte	0x1fa
 1308 051c 6B000000 		.4byte	0x6b
 1309 0520 42       		.byte	0x42
 1310 0521 0E       		.uleb128 0xe
 1311 0522 E6070000 		.4byte	.LASF80
 1312 0526 06       		.byte	0x6
 1313 0527 FF01     		.2byte	0x1ff
 1314 0529 6B000000 		.4byte	0x6b
 1315 052d 43       		.byte	0x43
 1316 052e 00       		.byte	0
 1317 052f 0C       		.uleb128 0xc
 1318 0530 83000000 		.4byte	0x83
 1319 0534 3F050000 		.4byte	0x53f
 1320 0538 0D       		.uleb128 0xd
 1321 0539 C7000000 		.4byte	0xc7
 1322 053d 00       		.byte	0
 1323 053e 00       		.byte	0
 1324 053f 04       		.uleb128 0x4
 1325 0540 61060000 		.4byte	.LASF81
 1326 0544 06       		.byte	0x6
 1327 0545 0002     		.2byte	0x200
 1328 0547 2E040000 		.4byte	0x42e
 1329 054b 0F       		.uleb128 0xf
 1330 054c 20       		.byte	0x20
 1331 054d 06       		.byte	0x6
 1332 054e 6702     		.2byte	0x267
 1333 0550 D7050000 		.4byte	0x5d7
 1334 0554 0E       		.uleb128 0xe
 1335 0555 4F080000 		.4byte	.LASF82
 1336 0559 06       		.byte	0x6
 1337 055a 7002     		.2byte	0x270
 1338 055c D7050000 		.4byte	0x5d7
 1339 0560 00       		.byte	0
 1340 0561 0E       		.uleb128 0xe
 1341 0562 F5070000 		.4byte	.LASF83
 1342 0566 06       		.byte	0x6
 1343 0567 7702     		.2byte	0x277
ARM GAS  C:\Users\MIHAILO\AppData\Local\Temp\ccp4p2Le.s 			page 52


 1344 0569 CE000000 		.4byte	0xce
 1345 056d 04       		.byte	0x4
 1346 056e 0E       		.uleb128 0xe
 1347 056f 1B060000 		.4byte	.LASF84
 1348 0573 06       		.byte	0x6
 1349 0574 7D02     		.2byte	0x27d
 1350 0576 DE050000 		.4byte	0x5de
 1351 057a 08       		.byte	0x8
 1352 057b 0E       		.uleb128 0xe
 1353 057c A6050000 		.4byte	.LASF85
 1354 0580 06       		.byte	0x6
 1355 0581 8302     		.2byte	0x283
 1356 0583 CE000000 		.4byte	0xce
 1357 0587 0C       		.byte	0xc
 1358 0588 0E       		.uleb128 0xe
 1359 0589 72070000 		.4byte	.LASF86
 1360 058d 06       		.byte	0x6
 1361 058e 8A02     		.2byte	0x28a
 1362 0590 E4050000 		.4byte	0x5e4
 1363 0594 10       		.byte	0x10
 1364 0595 0E       		.uleb128 0xe
 1365 0596 D9070000 		.4byte	.LASF87
 1366 059a 06       		.byte	0x6
 1367 059b 8F02     		.2byte	0x28f
 1368 059d 83000000 		.4byte	0x83
 1369 05a1 14       		.byte	0x14
 1370 05a2 0E       		.uleb128 0xe
 1371 05a3 D2030000 		.4byte	.LASF88
 1372 05a7 06       		.byte	0x6
 1373 05a8 9602     		.2byte	0x296
 1374 05aa 77000000 		.4byte	0x77
 1375 05ae 18       		.byte	0x18
 1376 05af 0E       		.uleb128 0xe
 1377 05b0 95020000 		.4byte	.LASF89
 1378 05b4 06       		.byte	0x6
 1379 05b5 9D02     		.2byte	0x29d
 1380 05b7 6B000000 		.4byte	0x6b
 1381 05bb 1A       		.byte	0x1a
 1382 05bc 0E       		.uleb128 0xe
 1383 05bd E2040000 		.4byte	.LASF90
 1384 05c1 06       		.byte	0x6
 1385 05c2 A702     		.2byte	0x2a7
 1386 05c4 6B000000 		.4byte	0x6b
 1387 05c8 1B       		.byte	0x1b
 1388 05c9 0E       		.uleb128 0xe
 1389 05ca 86020000 		.4byte	.LASF91
 1390 05ce 06       		.byte	0x6
 1391 05cf AF02     		.2byte	0x2af
 1392 05d1 EA050000 		.4byte	0x5ea
 1393 05d5 1C       		.byte	0x1c
 1394 05d6 00       		.byte	0
 1395 05d7 11       		.uleb128 0x11
 1396 05d8 04       		.byte	0x4
 1397 05d9 DD050000 		.4byte	0x5dd
 1398 05dd 12       		.uleb128 0x12
 1399 05de 11       		.uleb128 0x11
 1400 05df 04       		.byte	0x4
ARM GAS  C:\Users\MIHAILO\AppData\Local\Temp\ccp4p2Le.s 			page 53


 1401 05e0 EF030000 		.4byte	0x3ef
 1402 05e4 11       		.uleb128 0x11
 1403 05e5 04       		.byte	0x4
 1404 05e6 6B000000 		.4byte	0x6b
 1405 05ea 11       		.uleb128 0x11
 1406 05eb 04       		.byte	0x4
 1407 05ec 45010000 		.4byte	0x145
 1408 05f0 04       		.uleb128 0x4
 1409 05f1 AE030000 		.4byte	.LASF92
 1410 05f5 06       		.byte	0x6
 1411 05f6 B002     		.2byte	0x2b0
 1412 05f8 4B050000 		.4byte	0x54b
 1413 05fc 0F       		.uleb128 0xf
 1414 05fd 20       		.byte	0x20
 1415 05fe 06       		.byte	0x6
 1416 05ff B602     		.2byte	0x2b6
 1417 0601 13060000 		.4byte	0x613
 1418 0605 0E       		.uleb128 0xe
 1419 0606 EA080000 		.4byte	.LASF93
 1420 060a 06       		.byte	0x6
 1421 060b BB02     		.2byte	0x2bb
 1422 060d 13060000 		.4byte	0x613
 1423 0611 00       		.byte	0
 1424 0612 00       		.byte	0
 1425 0613 0C       		.uleb128 0xc
 1426 0614 F0050000 		.4byte	0x5f0
 1427 0618 23060000 		.4byte	0x623
 1428 061c 0D       		.uleb128 0xd
 1429 061d C7000000 		.4byte	0xc7
 1430 0621 00       		.byte	0
 1431 0622 00       		.byte	0
 1432 0623 04       		.uleb128 0x4
 1433 0624 08050000 		.4byte	.LASF94
 1434 0628 06       		.byte	0x6
 1435 0629 BC02     		.2byte	0x2bc
 1436 062b FC050000 		.4byte	0x5fc
 1437 062f 0F       		.uleb128 0xf
 1438 0630 02       		.byte	0x2
 1439 0631 06       		.byte	0x6
 1440 0632 F102     		.2byte	0x2f1
 1441 0634 46060000 		.4byte	0x646
 1442 0638 0E       		.uleb128 0xe
 1443 0639 5C080000 		.4byte	.LASF95
 1444 063d 06       		.byte	0x6
 1445 063e F302     		.2byte	0x2f3
 1446 0640 77000000 		.4byte	0x77
 1447 0644 00       		.byte	0
 1448 0645 00       		.byte	0
 1449 0646 04       		.uleb128 0x4
 1450 0647 FB060000 		.4byte	.LASF96
 1451 064b 06       		.byte	0x6
 1452 064c F402     		.2byte	0x2f4
 1453 064e 2F060000 		.4byte	0x62f
 1454 0652 0F       		.uleb128 0xf
 1455 0653 02       		.byte	0x2
 1456 0654 06       		.byte	0x6
 1457 0655 F902     		.2byte	0x2f9
ARM GAS  C:\Users\MIHAILO\AppData\Local\Temp\ccp4p2Le.s 			page 54


 1458 0657 69060000 		.4byte	0x669
 1459 065b 0E       		.uleb128 0xe
 1460 065c 48030000 		.4byte	.LASF97
 1461 0660 06       		.byte	0x6
 1462 0661 FE02     		.2byte	0x2fe
 1463 0663 69060000 		.4byte	0x669
 1464 0667 00       		.byte	0
 1465 0668 00       		.byte	0
 1466 0669 0C       		.uleb128 0xc
 1467 066a 46060000 		.4byte	0x646
 1468 066e 79060000 		.4byte	0x679
 1469 0672 0D       		.uleb128 0xd
 1470 0673 C7000000 		.4byte	0xc7
 1471 0677 00       		.byte	0
 1472 0678 00       		.byte	0
 1473 0679 04       		.uleb128 0x4
 1474 067a 75060000 		.4byte	.LASF98
 1475 067e 06       		.byte	0x6
 1476 067f FF02     		.2byte	0x2ff
 1477 0681 52060000 		.4byte	0x652
 1478 0685 13       		.uleb128 0x13
 1479 0686 04       		.byte	0x4
 1480 0687 06       		.byte	0x6
 1481 0688 0403     		.2byte	0x304
 1482 068a A7060000 		.4byte	0x6a7
 1483 068e 14       		.uleb128 0x14
 1484 068f 70747200 		.ascii	"ptr\000"
 1485 0693 06       		.byte	0x6
 1486 0694 0903     		.2byte	0x309
 1487 0696 CE000000 		.4byte	0xce
 1488 069a 15       		.uleb128 0x15
 1489 069b 6B020000 		.4byte	.LASF99
 1490 069f 06       		.byte	0x6
 1491 06a0 0E03     		.2byte	0x30e
 1492 06a2 A7060000 		.4byte	0x6a7
 1493 06a6 00       		.byte	0
 1494 06a7 11       		.uleb128 0x11
 1495 06a8 04       		.byte	0x4
 1496 06a9 79060000 		.4byte	0x679
 1497 06ad 04       		.uleb128 0x4
 1498 06ae 9E020000 		.4byte	.LASF100
 1499 06b2 06       		.byte	0x6
 1500 06b3 0F03     		.2byte	0x30f
 1501 06b5 85060000 		.4byte	0x685
 1502 06b9 16       		.uleb128 0x16
 1503 06ba F9010000 		.4byte	.LASF105
 1504 06be 01       		.byte	0x1
 1505 06bf 9001     		.2byte	0x190
 1506 06c1 00000000 		.4byte	.LFB0
 1507 06c5 58000000 		.4byte	.LFE0-.LFB0
 1508 06c9 01       		.uleb128 0x1
 1509 06ca 9C       		.byte	0x9c
 1510 06cb 19070000 		.4byte	0x719
 1511 06cf 17       		.uleb128 0x17
 1512 06d0 74000000 		.4byte	.LASF101
 1513 06d4 01       		.byte	0x1
 1514 06d5 9201     		.2byte	0x192
ARM GAS  C:\Users\MIHAILO\AppData\Local\Temp\ccp4p2Le.s 			page 55


 1515 06d7 83000000 		.4byte	0x83
 1516 06db 00000000 		.4byte	.LLST0
 1517 06df 17       		.uleb128 0x17
 1518 06e0 7F080000 		.4byte	.LASF102
 1519 06e4 01       		.byte	0x1
 1520 06e5 9301     		.2byte	0x193
 1521 06e7 CB010000 		.4byte	0x1cb
 1522 06eb 4D000000 		.4byte	.LLST1
 1523 06ef 17       		.uleb128 0x17
 1524 06f0 EC050000 		.4byte	.LASF103
 1525 06f4 01       		.byte	0x1
 1526 06f5 9401     		.2byte	0x194
 1527 06f7 19070000 		.4byte	0x719
 1528 06fb 60000000 		.4byte	.LLST2
 1529 06ff 17       		.uleb128 0x17
 1530 0700 CC070000 		.4byte	.LASF104
 1531 0704 01       		.byte	0x1
 1532 0705 9501     		.2byte	0x195
 1533 0707 1F070000 		.4byte	0x71f
 1534 070b 73000000 		.4byte	.LLST3
 1535 070f 18       		.uleb128 0x18
 1536 0710 42000000 		.4byte	.LVL8
 1537 0714 5C0B0000 		.4byte	0xb5c
 1538 0718 00       		.byte	0
 1539 0719 11       		.uleb128 0x11
 1540 071a 04       		.byte	0x4
 1541 071b 8B020000 		.4byte	0x28b
 1542 071f 11       		.uleb128 0x11
 1543 0720 04       		.byte	0x4
 1544 0721 25070000 		.4byte	0x725
 1545 0725 19       		.uleb128 0x19
 1546 0726 F0050000 		.4byte	0x5f0
 1547 072a 16       		.uleb128 0x16
 1548 072b 51000000 		.4byte	.LASF106
 1549 072f 01       		.byte	0x1
 1550 0730 3505     		.2byte	0x535
 1551 0732 00000000 		.4byte	.LFB4
 1552 0736 32000000 		.4byte	.LFE4-.LFB4
 1553 073a 01       		.uleb128 0x1
 1554 073b 9C       		.byte	0x9c
 1555 073c AE070000 		.4byte	0x7ae
 1556 0740 1A       		.uleb128 0x1a
 1557 0741 EC050000 		.4byte	.LASF103
 1558 0745 01       		.byte	0x1
 1559 0746 3505     		.2byte	0x535
 1560 0748 19070000 		.4byte	0x719
 1561 074c 86000000 		.4byte	.LLST4
 1562 0750 1A       		.uleb128 0x1a
 1563 0751 00000000 		.4byte	.LASF107
 1564 0755 01       		.byte	0x1
 1565 0756 3605     		.2byte	0x536
 1566 0758 EA050000 		.4byte	0x5ea
 1567 075c B2000000 		.4byte	.LLST5
 1568 0760 1A       		.uleb128 0x1a
 1569 0761 F5040000 		.4byte	.LASF108
 1570 0765 01       		.byte	0x1
 1571 0766 3705     		.2byte	0x537
ARM GAS  C:\Users\MIHAILO\AppData\Local\Temp\ccp4p2Le.s 			page 56


 1572 0768 83000000 		.4byte	0x83
 1573 076c DE000000 		.4byte	.LLST6
 1574 0770 1B       		.uleb128 0x1b
 1575 0771 20070000 		.4byte	.LASF109
 1576 0775 01       		.byte	0x1
 1577 0776 3905     		.2byte	0x539
 1578 0778 89010000 		.4byte	0x189
 1579 077c 02       		.uleb128 0x2
 1580 077d 91       		.byte	0x91
 1581 077e 70       		.sleb128 -16
 1582 077f 17       		.uleb128 0x17
 1583 0780 C8000000 		.4byte	.LASF110
 1584 0784 01       		.byte	0x1
 1585 0785 3A05     		.2byte	0x53a
 1586 0787 AE070000 		.4byte	0x7ae
 1587 078b 0A010000 		.4byte	.LLST7
 1588 078f 1C       		.uleb128 0x1c
 1589 0790 16000000 		.4byte	.LVL19
 1590 0794 670B0000 		.4byte	0xb67
 1591 0798 1D       		.uleb128 0x1d
 1592 0799 01       		.uleb128 0x1
 1593 079a 50       		.byte	0x50
 1594 079b 03       		.uleb128 0x3
 1595 079c F3       		.byte	0xf3
 1596 079d 01       		.uleb128 0x1
 1597 079e 51       		.byte	0x51
 1598 079f 1D       		.uleb128 0x1d
 1599 07a0 01       		.uleb128 0x1
 1600 07a1 51       		.byte	0x51
 1601 07a2 02       		.uleb128 0x2
 1602 07a3 7D       		.byte	0x7d
 1603 07a4 00       		.sleb128 0
 1604 07a5 1D       		.uleb128 0x1d
 1605 07a6 01       		.uleb128 0x1
 1606 07a7 53       		.byte	0x53
 1607 07a8 03       		.uleb128 0x3
 1608 07a9 F3       		.byte	0xf3
 1609 07aa 01       		.uleb128 0x1
 1610 07ab 52       		.byte	0x52
 1611 07ac 00       		.byte	0
 1612 07ad 00       		.byte	0
 1613 07ae 11       		.uleb128 0x11
 1614 07af 04       		.byte	0x4
 1615 07b0 89010000 		.4byte	0x189
 1616 07b4 16       		.uleb128 0x16
 1617 07b5 EF000000 		.4byte	.LASF111
 1618 07b9 01       		.byte	0x1
 1619 07ba 5E05     		.2byte	0x55e
 1620 07bc 00000000 		.4byte	.LFB5
 1621 07c0 16000000 		.4byte	.LFE5-.LFB5
 1622 07c4 01       		.uleb128 0x1
 1623 07c5 9C       		.byte	0x9c
 1624 07c6 F9070000 		.4byte	0x7f9
 1625 07ca 1A       		.uleb128 0x1a
 1626 07cb EC050000 		.4byte	.LASF103
 1627 07cf 01       		.byte	0x1
 1628 07d0 5F05     		.2byte	0x55f
ARM GAS  C:\Users\MIHAILO\AppData\Local\Temp\ccp4p2Le.s 			page 57


 1629 07d2 19070000 		.4byte	0x719
 1630 07d6 2A010000 		.4byte	.LLST8
 1631 07da 1E       		.uleb128 0x1e
 1632 07db 72010000 		.4byte	.LASF112
 1633 07df 01       		.byte	0x1
 1634 07e0 6005     		.2byte	0x560
 1635 07e2 DE050000 		.4byte	0x5de
 1636 07e6 01       		.uleb128 0x1
 1637 07e7 51       		.byte	0x51
 1638 07e8 17       		.uleb128 0x17
 1639 07e9 63010000 		.4byte	.LASF113
 1640 07ed 01       		.byte	0x1
 1641 07ee 6205     		.2byte	0x562
 1642 07f0 8F000000 		.4byte	0x8f
 1643 07f4 4B010000 		.4byte	.LLST9
 1644 07f8 00       		.byte	0
 1645 07f9 1F       		.uleb128 0x1f
 1646 07fa 10040000 		.4byte	.LASF117
 1647 07fe 01       		.byte	0x1
 1648 07ff F803     		.2byte	0x3f8
 1649 0801 83000000 		.4byte	0x83
 1650 0805 00000000 		.4byte	.LFB1
 1651 0809 5C000000 		.4byte	.LFE1-.LFB1
 1652 080d 01       		.uleb128 0x1
 1653 080e 9C       		.byte	0x9c
 1654 080f EF080000 		.4byte	0x8ef
 1655 0813 1A       		.uleb128 0x1a
 1656 0814 CC070000 		.4byte	.LASF104
 1657 0818 01       		.byte	0x1
 1658 0819 F803     		.2byte	0x3f8
 1659 081b 1F070000 		.4byte	0x71f
 1660 081f 7A010000 		.4byte	.LLST10
 1661 0823 17       		.uleb128 0x17
 1662 0824 31020000 		.4byte	.LASF114
 1663 0828 01       		.byte	0x1
 1664 0829 FA03     		.2byte	0x3fa
 1665 082b 83000000 		.4byte	0x83
 1666 082f A6010000 		.4byte	.LLST11
 1667 0833 17       		.uleb128 0x17
 1668 0834 7F080000 		.4byte	.LASF102
 1669 0838 01       		.byte	0x1
 1670 0839 0004     		.2byte	0x400
 1671 083b 83000000 		.4byte	0x83
 1672 083f E8010000 		.4byte	.LLST12
 1673 0843 17       		.uleb128 0x17
 1674 0844 E0060000 		.4byte	.LASF115
 1675 0848 01       		.byte	0x1
 1676 0849 0104     		.2byte	0x401
 1677 084b 83000000 		.4byte	0x83
 1678 084f 07020000 		.4byte	.LLST13
 1679 0853 17       		.uleb128 0x17
 1680 0854 CB010000 		.4byte	.LASF116
 1681 0858 01       		.byte	0x1
 1682 0859 0204     		.2byte	0x402
 1683 085b DE050000 		.4byte	0x5de
 1684 085f 26020000 		.4byte	.LLST14
 1685 0863 17       		.uleb128 0x17
ARM GAS  C:\Users\MIHAILO\AppData\Local\Temp\ccp4p2Le.s 			page 58


 1686 0864 EC050000 		.4byte	.LASF103
 1687 0868 01       		.byte	0x1
 1688 0869 0304     		.2byte	0x403
 1689 086b 19070000 		.4byte	0x719
 1690 086f 39020000 		.4byte	.LLST15
 1691 0873 17       		.uleb128 0x17
 1692 0874 00000000 		.4byte	.LASF107
 1693 0878 01       		.byte	0x1
 1694 0879 0704     		.2byte	0x407
 1695 087b EA050000 		.4byte	0x5ea
 1696 087f 4C020000 		.4byte	.LLST16
 1697 0883 20       		.uleb128 0x20
 1698 0884 26000000 		.4byte	.LVL35
 1699 0888 720B0000 		.4byte	0xb72
 1700 088c 97080000 		.4byte	0x897
 1701 0890 1D       		.uleb128 0x1d
 1702 0891 01       		.uleb128 0x1
 1703 0892 52       		.byte	0x52
 1704 0893 02       		.uleb128 0x2
 1705 0894 77       		.byte	0x77
 1706 0895 00       		.sleb128 0
 1707 0896 00       		.byte	0
 1708 0897 20       		.uleb128 0x20
 1709 0898 30000000 		.4byte	.LVL36
 1710 089c 2A070000 		.4byte	0x72a
 1711 08a0 B7080000 		.4byte	0x8b7
 1712 08a4 1D       		.uleb128 0x1d
 1713 08a5 01       		.uleb128 0x1
 1714 08a6 50       		.byte	0x50
 1715 08a7 02       		.uleb128 0x2
 1716 08a8 75       		.byte	0x75
 1717 08a9 00       		.sleb128 0
 1718 08aa 1D       		.uleb128 0x1d
 1719 08ab 01       		.uleb128 0x1
 1720 08ac 51       		.byte	0x51
 1721 08ad 02       		.uleb128 0x2
 1722 08ae 77       		.byte	0x77
 1723 08af 00       		.sleb128 0
 1724 08b0 1D       		.uleb128 0x1d
 1725 08b1 01       		.uleb128 0x1
 1726 08b2 52       		.byte	0x52
 1727 08b3 02       		.uleb128 0x2
 1728 08b4 76       		.byte	0x76
 1729 08b5 00       		.sleb128 0
 1730 08b6 00       		.byte	0
 1731 08b7 20       		.uleb128 0x20
 1732 08b8 3C000000 		.4byte	.LVL38
 1733 08bc 7D0B0000 		.4byte	0xb7d
 1734 08c0 D8080000 		.4byte	0x8d8
 1735 08c4 1D       		.uleb128 0x1d
 1736 08c5 01       		.uleb128 0x1
 1737 08c6 50       		.byte	0x50
 1738 08c7 02       		.uleb128 0x2
 1739 08c8 75       		.byte	0x75
 1740 08c9 00       		.sleb128 0
 1741 08ca 1D       		.uleb128 0x1d
 1742 08cb 01       		.uleb128 0x1
ARM GAS  C:\Users\MIHAILO\AppData\Local\Temp\ccp4p2Le.s 			page 59


 1743 08cc 51       		.byte	0x51
 1744 08cd 02       		.uleb128 0x2
 1745 08ce 74       		.byte	0x74
 1746 08cf 00       		.sleb128 0
 1747 08d0 1D       		.uleb128 0x1d
 1748 08d1 01       		.uleb128 0x1
 1749 08d2 52       		.byte	0x52
 1750 08d3 03       		.uleb128 0x3
 1751 08d4 91       		.byte	0x91
 1752 08d5 64       		.sleb128 -28
 1753 08d6 06       		.byte	0x6
 1754 08d7 00       		.byte	0
 1755 08d8 1C       		.uleb128 0x1c
 1756 08d9 46000000 		.4byte	.LVL41
 1757 08dd B4070000 		.4byte	0x7b4
 1758 08e1 1D       		.uleb128 0x1d
 1759 08e2 01       		.uleb128 0x1
 1760 08e3 50       		.byte	0x50
 1761 08e4 02       		.uleb128 0x2
 1762 08e5 75       		.byte	0x75
 1763 08e6 00       		.sleb128 0
 1764 08e7 1D       		.uleb128 0x1d
 1765 08e8 01       		.uleb128 0x1
 1766 08e9 51       		.byte	0x51
 1767 08ea 02       		.uleb128 0x2
 1768 08eb 74       		.byte	0x74
 1769 08ec 00       		.sleb128 0
 1770 08ed 00       		.byte	0
 1771 08ee 00       		.byte	0
 1772 08ef 1F       		.uleb128 0x1f
 1773 08f0 29000000 		.4byte	.LASF118
 1774 08f4 01       		.byte	0x1
 1775 08f5 7A04     		.2byte	0x47a
 1776 08f7 83000000 		.4byte	0x83
 1777 08fb 00000000 		.4byte	.LFB2
 1778 08ff 52000000 		.4byte	.LFE2-.LFB2
 1779 0903 01       		.uleb128 0x1
 1780 0904 9C       		.byte	0x9c
 1781 0905 F5090000 		.4byte	0x9f5
 1782 0909 1A       		.uleb128 0x1a
 1783 090a CC070000 		.4byte	.LASF104
 1784 090e 01       		.byte	0x1
 1785 090f 7B04     		.2byte	0x47b
 1786 0911 1F070000 		.4byte	0x71f
 1787 0915 5F020000 		.4byte	.LLST17
 1788 0919 1A       		.uleb128 0x1a
 1789 091a 72010000 		.4byte	.LASF112
 1790 091e 01       		.byte	0x1
 1791 091f 7C04     		.2byte	0x47c
 1792 0921 DE050000 		.4byte	0x5de
 1793 0925 80020000 		.4byte	.LLST18
 1794 0929 1A       		.uleb128 0x1a
 1795 092a 7B000000 		.4byte	.LASF119
 1796 092e 01       		.byte	0x1
 1797 092f 7D04     		.2byte	0x47d
 1798 0931 AD060000 		.4byte	0x6ad
 1799 0935 9F020000 		.4byte	.LLST19
ARM GAS  C:\Users\MIHAILO\AppData\Local\Temp\ccp4p2Le.s 			page 60


 1800 0939 1A       		.uleb128 0x1a
 1801 093a 6D010000 		.4byte	.LASF120
 1802 093e 01       		.byte	0x1
 1803 093f 7E04     		.2byte	0x47e
 1804 0941 83000000 		.4byte	0x83
 1805 0945 DE020000 		.4byte	.LLST20
 1806 0949 17       		.uleb128 0x17
 1807 094a 31020000 		.4byte	.LASF114
 1808 094e 01       		.byte	0x1
 1809 094f 8004     		.2byte	0x480
 1810 0951 83000000 		.4byte	0x83
 1811 0955 0A030000 		.4byte	.LLST21
 1812 0959 17       		.uleb128 0x17
 1813 095a 7F080000 		.4byte	.LASF102
 1814 095e 01       		.byte	0x1
 1815 095f 8104     		.2byte	0x481
 1816 0961 83000000 		.4byte	0x83
 1817 0965 4B030000 		.4byte	.LLST22
 1818 0969 17       		.uleb128 0x17
 1819 096a EC050000 		.4byte	.LASF103
 1820 096e 01       		.byte	0x1
 1821 096f 8204     		.2byte	0x482
 1822 0971 19070000 		.4byte	0x719
 1823 0975 5E030000 		.4byte	.LLST23
 1824 0979 17       		.uleb128 0x17
 1825 097a 00000000 		.4byte	.LASF107
 1826 097e 01       		.byte	0x1
 1827 097f 8504     		.2byte	0x485
 1828 0981 EA050000 		.4byte	0x5ea
 1829 0985 71030000 		.4byte	.LLST24
 1830 0989 20       		.uleb128 0x20
 1831 098a 1E000000 		.4byte	.LVL59
 1832 098e 720B0000 		.4byte	0xb72
 1833 0992 9D090000 		.4byte	0x99d
 1834 0996 1D       		.uleb128 0x1d
 1835 0997 01       		.uleb128 0x1
 1836 0998 52       		.byte	0x52
 1837 0999 02       		.uleb128 0x2
 1838 099a 77       		.byte	0x77
 1839 099b 00       		.sleb128 0
 1840 099c 00       		.byte	0
 1841 099d 20       		.uleb128 0x20
 1842 099e 2C000000 		.4byte	.LVL61
 1843 09a2 2A070000 		.4byte	0x72a
 1844 09a6 BC090000 		.4byte	0x9bc
 1845 09aa 1D       		.uleb128 0x1d
 1846 09ab 01       		.uleb128 0x1
 1847 09ac 50       		.byte	0x50
 1848 09ad 02       		.uleb128 0x2
 1849 09ae 75       		.byte	0x75
 1850 09af 00       		.sleb128 0
 1851 09b0 1D       		.uleb128 0x1d
 1852 09b1 01       		.uleb128 0x1
 1853 09b2 51       		.byte	0x51
 1854 09b3 02       		.uleb128 0x2
 1855 09b4 77       		.byte	0x77
 1856 09b5 00       		.sleb128 0
ARM GAS  C:\Users\MIHAILO\AppData\Local\Temp\ccp4p2Le.s 			page 61


 1857 09b6 1D       		.uleb128 0x1d
 1858 09b7 01       		.uleb128 0x1
 1859 09b8 52       		.byte	0x52
 1860 09b9 01       		.uleb128 0x1
 1861 09ba 30       		.byte	0x30
 1862 09bb 00       		.byte	0
 1863 09bc 20       		.uleb128 0x20
 1864 09bd 3A000000 		.4byte	.LVL63
 1865 09c1 7D0B0000 		.4byte	0xb7d
 1866 09c5 DD090000 		.4byte	0x9dd
 1867 09c9 1D       		.uleb128 0x1d
 1868 09ca 01       		.uleb128 0x1
 1869 09cb 50       		.byte	0x50
 1870 09cc 02       		.uleb128 0x2
 1871 09cd 75       		.byte	0x75
 1872 09ce 00       		.sleb128 0
 1873 09cf 1D       		.uleb128 0x1d
 1874 09d0 01       		.uleb128 0x1
 1875 09d1 51       		.byte	0x51
 1876 09d2 03       		.uleb128 0x3
 1877 09d3 91       		.byte	0x91
 1878 09d4 64       		.sleb128 -28
 1879 09d5 06       		.byte	0x6
 1880 09d6 1D       		.uleb128 0x1d
 1881 09d7 01       		.uleb128 0x1
 1882 09d8 52       		.byte	0x52
 1883 09d9 02       		.uleb128 0x2
 1884 09da 76       		.byte	0x76
 1885 09db 00       		.sleb128 0
 1886 09dc 00       		.byte	0
 1887 09dd 1C       		.uleb128 0x1c
 1888 09de 4C000000 		.4byte	.LVL67
 1889 09e2 B4070000 		.4byte	0x7b4
 1890 09e6 1D       		.uleb128 0x1d
 1891 09e7 01       		.uleb128 0x1
 1892 09e8 50       		.byte	0x50
 1893 09e9 02       		.uleb128 0x2
 1894 09ea 75       		.byte	0x75
 1895 09eb 00       		.sleb128 0
 1896 09ec 1D       		.uleb128 0x1d
 1897 09ed 01       		.uleb128 0x1
 1898 09ee 51       		.byte	0x51
 1899 09ef 03       		.uleb128 0x3
 1900 09f0 91       		.byte	0x91
 1901 09f1 64       		.sleb128 -28
 1902 09f2 06       		.byte	0x6
 1903 09f3 00       		.byte	0
 1904 09f4 00       		.byte	0
 1905 09f5 1F       		.uleb128 0x1f
 1906 09f6 B2040000 		.4byte	.LASF121
 1907 09fa 01       		.byte	0x1
 1908 09fb A805     		.2byte	0x5a8
 1909 09fd 83000000 		.4byte	0x83
 1910 0a01 00000000 		.4byte	.LFB6
 1911 0a05 64000000 		.4byte	.LFE6-.LFB6
 1912 0a09 01       		.uleb128 0x1
 1913 0a0a 9C       		.byte	0x9c
ARM GAS  C:\Users\MIHAILO\AppData\Local\Temp\ccp4p2Le.s 			page 62


 1914 0a0b 9E0A0000 		.4byte	0xa9e
 1915 0a0f 1A       		.uleb128 0x1a
 1916 0a10 19080000 		.4byte	.LASF122
 1917 0a14 01       		.byte	0x1
 1918 0a15 A805     		.2byte	0x5a8
 1919 0a17 83000000 		.4byte	0x83
 1920 0a1b 8F030000 		.4byte	.LLST25
 1921 0a1f 1A       		.uleb128 0x1a
 1922 0a20 CC070000 		.4byte	.LASF104
 1923 0a24 01       		.byte	0x1
 1924 0a25 A805     		.2byte	0x5a8
 1925 0a27 1F070000 		.4byte	0x71f
 1926 0a2b AD030000 		.4byte	.LLST26
 1927 0a2f 17       		.uleb128 0x17
 1928 0a30 6D000000 		.4byte	.LASF123
 1929 0a34 01       		.byte	0x1
 1930 0a35 AA05     		.2byte	0x5aa
 1931 0a37 83000000 		.4byte	0x83
 1932 0a3b CE030000 		.4byte	.LLST27
 1933 0a3f 17       		.uleb128 0x17
 1934 0a40 F7050000 		.4byte	.LASF124
 1935 0a44 01       		.byte	0x1
 1936 0a45 AB05     		.2byte	0x5ab
 1937 0a47 83000000 		.4byte	0x83
 1938 0a4b 18040000 		.4byte	.LLST28
 1939 0a4f 17       		.uleb128 0x17
 1940 0a50 E3010000 		.4byte	.LASF125
 1941 0a54 01       		.byte	0x1
 1942 0a55 AC05     		.2byte	0x5ac
 1943 0a57 83000000 		.4byte	0x83
 1944 0a5b 37040000 		.4byte	.LLST29
 1945 0a5f 17       		.uleb128 0x17
 1946 0a60 9E050000 		.4byte	.LASF126
 1947 0a64 01       		.byte	0x1
 1948 0a65 AD05     		.2byte	0x5ad
 1949 0a67 83000000 		.4byte	0x83
 1950 0a6b 55040000 		.4byte	.LLST30
 1951 0a6f 17       		.uleb128 0x17
 1952 0a70 CB010000 		.4byte	.LASF116
 1953 0a74 01       		.byte	0x1
 1954 0a75 AE05     		.2byte	0x5ae
 1955 0a77 DE050000 		.4byte	0x5de
 1956 0a7b 73040000 		.4byte	.LLST31
 1957 0a7f 17       		.uleb128 0x17
 1958 0a80 EC050000 		.4byte	.LASF103
 1959 0a84 01       		.byte	0x1
 1960 0a85 AF05     		.2byte	0x5af
 1961 0a87 19070000 		.4byte	0x719
 1962 0a8b 86040000 		.4byte	.LLST32
 1963 0a8f 1B       		.uleb128 0x1b
 1964 0a90 2B070000 		.4byte	.LASF127
 1965 0a94 01       		.byte	0x1
 1966 0a95 B005     		.2byte	0x5b0
 1967 0a97 E4050000 		.4byte	0x5e4
 1968 0a9b 01       		.uleb128 0x1
 1969 0a9c 53       		.byte	0x53
 1970 0a9d 00       		.byte	0
ARM GAS  C:\Users\MIHAILO\AppData\Local\Temp\ccp4p2Le.s 			page 63


 1971 0a9e 16       		.uleb128 0x16
 1972 0a9f A6000000 		.4byte	.LASF128
 1973 0aa3 01       		.byte	0x1
 1974 0aa4 DE04     		.2byte	0x4de
 1975 0aa6 00000000 		.4byte	.LFB3
 1976 0aaa 58000000 		.4byte	.LFE3-.LFB3
 1977 0aae 01       		.uleb128 0x1
 1978 0aaf 9C       		.byte	0x9c
 1979 0ab0 3F0B0000 		.4byte	0xb3f
 1980 0ab4 1A       		.uleb128 0x1a
 1981 0ab5 C4080000 		.4byte	.LASF129
 1982 0ab9 01       		.byte	0x1
 1983 0aba DE04     		.2byte	0x4de
 1984 0abc 83000000 		.4byte	0x83
 1985 0ac0 99040000 		.4byte	.LLST33
 1986 0ac4 1A       		.uleb128 0x1a
 1987 0ac5 CC070000 		.4byte	.LASF104
 1988 0ac9 01       		.byte	0x1
 1989 0aca DE04     		.2byte	0x4de
 1990 0acc 1F070000 		.4byte	0x71f
 1991 0ad0 DB040000 		.4byte	.LLST34
 1992 0ad4 17       		.uleb128 0x17
 1993 0ad5 8A050000 		.4byte	.LASF130
 1994 0ad9 01       		.byte	0x1
 1995 0ada E004     		.2byte	0x4e0
 1996 0adc 83000000 		.4byte	0x83
 1997 0ae0 15050000 		.4byte	.LLST35
 1998 0ae4 17       		.uleb128 0x17
 1999 0ae5 D2050000 		.4byte	.LASF131
 2000 0ae9 01       		.byte	0x1
 2001 0aea E104     		.2byte	0x4e1
 2002 0aec 83000000 		.4byte	0x83
 2003 0af0 3E050000 		.4byte	.LLST36
 2004 0af4 17       		.uleb128 0x17
 2005 0af5 BF070000 		.4byte	.LASF132
 2006 0af9 01       		.byte	0x1
 2007 0afa E204     		.2byte	0x4e2
 2008 0afc 83000000 		.4byte	0x83
 2009 0b00 96050000 		.4byte	.LLST37
 2010 0b04 17       		.uleb128 0x17
 2011 0b05 7F080000 		.4byte	.LASF102
 2012 0b09 01       		.byte	0x1
 2013 0b0a E304     		.2byte	0x4e3
 2014 0b0c CB010000 		.4byte	0x1cb
 2015 0b10 CA050000 		.4byte	.LLST38
 2016 0b14 20       		.uleb128 0x20
 2017 0b15 16000000 		.4byte	.LVL101
 2018 0b19 F5090000 		.4byte	0x9f5
 2019 0b1d 2F0B0000 		.4byte	0xb2f
 2020 0b21 1D       		.uleb128 0x1d
 2021 0b22 01       		.uleb128 0x1
 2022 0b23 50       		.byte	0x50
 2023 0b24 02       		.uleb128 0x2
 2024 0b25 75       		.byte	0x75
 2025 0b26 00       		.sleb128 0
 2026 0b27 1D       		.uleb128 0x1d
 2027 0b28 01       		.uleb128 0x1
ARM GAS  C:\Users\MIHAILO\AppData\Local\Temp\ccp4p2Le.s 			page 64


 2028 0b29 51       		.byte	0x51
 2029 0b2a 03       		.uleb128 0x3
 2030 0b2b F3       		.byte	0xf3
 2031 0b2c 01       		.uleb128 0x1
 2032 0b2d 51       		.byte	0x51
 2033 0b2e 00       		.byte	0
 2034 0b2f 1C       		.uleb128 0x1c
 2035 0b30 20000000 		.4byte	.LVL105
 2036 0b34 880B0000 		.4byte	0xb88
 2037 0b38 1D       		.uleb128 0x1d
 2038 0b39 01       		.uleb128 0x1
 2039 0b3a 50       		.byte	0x50
 2040 0b3b 01       		.uleb128 0x1
 2041 0b3c 30       		.byte	0x30
 2042 0b3d 00       		.byte	0
 2043 0b3e 00       		.byte	0
 2044 0b3f 21       		.uleb128 0x21
 2045 0b40 1E050000 		.4byte	.LASF133
 2046 0b44 06       		.byte	0x6
 2047 0b45 5004     		.2byte	0x450
 2048 0b47 3F050000 		.4byte	0x53f
 2049 0b4b 21       		.uleb128 0x21
 2050 0b4c 95000000 		.4byte	.LASF134
 2051 0b50 06       		.byte	0x6
 2052 0b51 5104     		.2byte	0x451
 2053 0b53 570B0000 		.4byte	0xb57
 2054 0b57 19       		.uleb128 0x19
 2055 0b58 23060000 		.4byte	0x623
 2056 0b5c 22       		.uleb128 0x22
 2057 0b5d 3D050000 		.4byte	.LASF135
 2058 0b61 3D050000 		.4byte	.LASF135
 2059 0b65 07       		.byte	0x7
 2060 0b66 19       		.byte	0x19
 2061 0b67 22       		.uleb128 0x22
 2062 0b68 AF010000 		.4byte	.LASF136
 2063 0b6c AF010000 		.4byte	.LASF136
 2064 0b70 05       		.byte	0x5
 2065 0b71 BA       		.byte	0xba
 2066 0b72 22       		.uleb128 0x22
 2067 0b73 35040000 		.4byte	.LASF137
 2068 0b77 35040000 		.4byte	.LASF137
 2069 0b7b 05       		.byte	0x5
 2070 0b7c C3       		.byte	0xc3
 2071 0b7d 22       		.uleb128 0x22
 2072 0b7e 0F020000 		.4byte	.LASF138
 2073 0b82 0F020000 		.4byte	.LASF138
 2074 0b86 08       		.byte	0x8
 2075 0b87 72       		.byte	0x72
 2076 0b88 22       		.uleb128 0x22
 2077 0b89 5C010000 		.4byte	.LASF139
 2078 0b8d 5C010000 		.4byte	.LASF139
 2079 0b91 09       		.byte	0x9
 2080 0b92 FA       		.byte	0xfa
 2081 0b93 00       		.byte	0
 2082              		.section	.debug_abbrev,"",%progbits
 2083              	.Ldebug_abbrev0:
 2084 0000 01       		.uleb128 0x1
ARM GAS  C:\Users\MIHAILO\AppData\Local\Temp\ccp4p2Le.s 			page 65


 2085 0001 11       		.uleb128 0x11
 2086 0002 01       		.byte	0x1
 2087 0003 25       		.uleb128 0x25
 2088 0004 0E       		.uleb128 0xe
 2089 0005 13       		.uleb128 0x13
 2090 0006 0B       		.uleb128 0xb
 2091 0007 03       		.uleb128 0x3
 2092 0008 0E       		.uleb128 0xe
 2093 0009 1B       		.uleb128 0x1b
 2094 000a 0E       		.uleb128 0xe
 2095 000b 55       		.uleb128 0x55
 2096 000c 17       		.uleb128 0x17
 2097 000d 11       		.uleb128 0x11
 2098 000e 01       		.uleb128 0x1
 2099 000f 10       		.uleb128 0x10
 2100 0010 17       		.uleb128 0x17
 2101 0011 00       		.byte	0
 2102 0012 00       		.byte	0
 2103 0013 02       		.uleb128 0x2
 2104 0014 24       		.uleb128 0x24
 2105 0015 00       		.byte	0
 2106 0016 0B       		.uleb128 0xb
 2107 0017 0B       		.uleb128 0xb
 2108 0018 3E       		.uleb128 0x3e
 2109 0019 0B       		.uleb128 0xb
 2110 001a 03       		.uleb128 0x3
 2111 001b 0E       		.uleb128 0xe
 2112 001c 00       		.byte	0
 2113 001d 00       		.byte	0
 2114 001e 03       		.uleb128 0x3
 2115 001f 24       		.uleb128 0x24
 2116 0020 00       		.byte	0
 2117 0021 0B       		.uleb128 0xb
 2118 0022 0B       		.uleb128 0xb
 2119 0023 3E       		.uleb128 0x3e
 2120 0024 0B       		.uleb128 0xb
 2121 0025 03       		.uleb128 0x3
 2122 0026 08       		.uleb128 0x8
 2123 0027 00       		.byte	0
 2124 0028 00       		.byte	0
 2125 0029 04       		.uleb128 0x4
 2126 002a 16       		.uleb128 0x16
 2127 002b 00       		.byte	0
 2128 002c 03       		.uleb128 0x3
 2129 002d 0E       		.uleb128 0xe
 2130 002e 3A       		.uleb128 0x3a
 2131 002f 0B       		.uleb128 0xb
 2132 0030 3B       		.uleb128 0x3b
 2133 0031 05       		.uleb128 0x5
 2134 0032 49       		.uleb128 0x49
 2135 0033 13       		.uleb128 0x13
 2136 0034 00       		.byte	0
 2137 0035 00       		.byte	0
 2138 0036 05       		.uleb128 0x5
 2139 0037 35       		.uleb128 0x35
 2140 0038 00       		.byte	0
 2141 0039 49       		.uleb128 0x49
ARM GAS  C:\Users\MIHAILO\AppData\Local\Temp\ccp4p2Le.s 			page 66


 2142 003a 13       		.uleb128 0x13
 2143 003b 00       		.byte	0
 2144 003c 00       		.byte	0
 2145 003d 06       		.uleb128 0x6
 2146 003e 16       		.uleb128 0x16
 2147 003f 00       		.byte	0
 2148 0040 03       		.uleb128 0x3
 2149 0041 0E       		.uleb128 0xe
 2150 0042 3A       		.uleb128 0x3a
 2151 0043 0B       		.uleb128 0xb
 2152 0044 3B       		.uleb128 0x3b
 2153 0045 0B       		.uleb128 0xb
 2154 0046 49       		.uleb128 0x49
 2155 0047 13       		.uleb128 0x13
 2156 0048 00       		.byte	0
 2157 0049 00       		.byte	0
 2158 004a 07       		.uleb128 0x7
 2159 004b 0F       		.uleb128 0xf
 2160 004c 00       		.byte	0
 2161 004d 0B       		.uleb128 0xb
 2162 004e 0B       		.uleb128 0xb
 2163 004f 00       		.byte	0
 2164 0050 00       		.byte	0
 2165 0051 08       		.uleb128 0x8
 2166 0052 13       		.uleb128 0x13
 2167 0053 01       		.byte	0x1
 2168 0054 0B       		.uleb128 0xb
 2169 0055 0B       		.uleb128 0xb
 2170 0056 3A       		.uleb128 0x3a
 2171 0057 0B       		.uleb128 0xb
 2172 0058 3B       		.uleb128 0x3b
 2173 0059 0B       		.uleb128 0xb
 2174 005a 01       		.uleb128 0x1
 2175 005b 13       		.uleb128 0x13
 2176 005c 00       		.byte	0
 2177 005d 00       		.byte	0
 2178 005e 09       		.uleb128 0x9
 2179 005f 0D       		.uleb128 0xd
 2180 0060 00       		.byte	0
 2181 0061 03       		.uleb128 0x3
 2182 0062 0E       		.uleb128 0xe
 2183 0063 3A       		.uleb128 0x3a
 2184 0064 0B       		.uleb128 0xb
 2185 0065 3B       		.uleb128 0x3b
 2186 0066 0B       		.uleb128 0xb
 2187 0067 49       		.uleb128 0x49
 2188 0068 13       		.uleb128 0x13
 2189 0069 38       		.uleb128 0x38
 2190 006a 0B       		.uleb128 0xb
 2191 006b 00       		.byte	0
 2192 006c 00       		.byte	0
 2193 006d 0A       		.uleb128 0xa
 2194 006e 04       		.uleb128 0x4
 2195 006f 01       		.byte	0x1
 2196 0070 0B       		.uleb128 0xb
 2197 0071 0B       		.uleb128 0xb
 2198 0072 49       		.uleb128 0x49
ARM GAS  C:\Users\MIHAILO\AppData\Local\Temp\ccp4p2Le.s 			page 67


 2199 0073 13       		.uleb128 0x13
 2200 0074 3A       		.uleb128 0x3a
 2201 0075 0B       		.uleb128 0xb
 2202 0076 3B       		.uleb128 0x3b
 2203 0077 0B       		.uleb128 0xb
 2204 0078 01       		.uleb128 0x1
 2205 0079 13       		.uleb128 0x13
 2206 007a 00       		.byte	0
 2207 007b 00       		.byte	0
 2208 007c 0B       		.uleb128 0xb
 2209 007d 28       		.uleb128 0x28
 2210 007e 00       		.byte	0
 2211 007f 03       		.uleb128 0x3
 2212 0080 0E       		.uleb128 0xe
 2213 0081 1C       		.uleb128 0x1c
 2214 0082 0B       		.uleb128 0xb
 2215 0083 00       		.byte	0
 2216 0084 00       		.byte	0
 2217 0085 0C       		.uleb128 0xc
 2218 0086 01       		.uleb128 0x1
 2219 0087 01       		.byte	0x1
 2220 0088 49       		.uleb128 0x49
 2221 0089 13       		.uleb128 0x13
 2222 008a 01       		.uleb128 0x1
 2223 008b 13       		.uleb128 0x13
 2224 008c 00       		.byte	0
 2225 008d 00       		.byte	0
 2226 008e 0D       		.uleb128 0xd
 2227 008f 21       		.uleb128 0x21
 2228 0090 00       		.byte	0
 2229 0091 49       		.uleb128 0x49
 2230 0092 13       		.uleb128 0x13
 2231 0093 2F       		.uleb128 0x2f
 2232 0094 0B       		.uleb128 0xb
 2233 0095 00       		.byte	0
 2234 0096 00       		.byte	0
 2235 0097 0E       		.uleb128 0xe
 2236 0098 0D       		.uleb128 0xd
 2237 0099 00       		.byte	0
 2238 009a 03       		.uleb128 0x3
 2239 009b 0E       		.uleb128 0xe
 2240 009c 3A       		.uleb128 0x3a
 2241 009d 0B       		.uleb128 0xb
 2242 009e 3B       		.uleb128 0x3b
 2243 009f 05       		.uleb128 0x5
 2244 00a0 49       		.uleb128 0x49
 2245 00a1 13       		.uleb128 0x13
 2246 00a2 38       		.uleb128 0x38
 2247 00a3 0B       		.uleb128 0xb
 2248 00a4 00       		.byte	0
 2249 00a5 00       		.byte	0
 2250 00a6 0F       		.uleb128 0xf
 2251 00a7 13       		.uleb128 0x13
 2252 00a8 01       		.byte	0x1
 2253 00a9 0B       		.uleb128 0xb
 2254 00aa 0B       		.uleb128 0xb
 2255 00ab 3A       		.uleb128 0x3a
ARM GAS  C:\Users\MIHAILO\AppData\Local\Temp\ccp4p2Le.s 			page 68


 2256 00ac 0B       		.uleb128 0xb
 2257 00ad 3B       		.uleb128 0x3b
 2258 00ae 05       		.uleb128 0x5
 2259 00af 01       		.uleb128 0x1
 2260 00b0 13       		.uleb128 0x13
 2261 00b1 00       		.byte	0
 2262 00b2 00       		.byte	0
 2263 00b3 10       		.uleb128 0x10
 2264 00b4 0D       		.uleb128 0xd
 2265 00b5 00       		.byte	0
 2266 00b6 03       		.uleb128 0x3
 2267 00b7 08       		.uleb128 0x8
 2268 00b8 3A       		.uleb128 0x3a
 2269 00b9 0B       		.uleb128 0xb
 2270 00ba 3B       		.uleb128 0x3b
 2271 00bb 05       		.uleb128 0x5
 2272 00bc 49       		.uleb128 0x49
 2273 00bd 13       		.uleb128 0x13
 2274 00be 38       		.uleb128 0x38
 2275 00bf 0B       		.uleb128 0xb
 2276 00c0 00       		.byte	0
 2277 00c1 00       		.byte	0
 2278 00c2 11       		.uleb128 0x11
 2279 00c3 0F       		.uleb128 0xf
 2280 00c4 00       		.byte	0
 2281 00c5 0B       		.uleb128 0xb
 2282 00c6 0B       		.uleb128 0xb
 2283 00c7 49       		.uleb128 0x49
 2284 00c8 13       		.uleb128 0x13
 2285 00c9 00       		.byte	0
 2286 00ca 00       		.byte	0
 2287 00cb 12       		.uleb128 0x12
 2288 00cc 26       		.uleb128 0x26
 2289 00cd 00       		.byte	0
 2290 00ce 00       		.byte	0
 2291 00cf 00       		.byte	0
 2292 00d0 13       		.uleb128 0x13
 2293 00d1 17       		.uleb128 0x17
 2294 00d2 01       		.byte	0x1
 2295 00d3 0B       		.uleb128 0xb
 2296 00d4 0B       		.uleb128 0xb
 2297 00d5 3A       		.uleb128 0x3a
 2298 00d6 0B       		.uleb128 0xb
 2299 00d7 3B       		.uleb128 0x3b
 2300 00d8 05       		.uleb128 0x5
 2301 00d9 01       		.uleb128 0x1
 2302 00da 13       		.uleb128 0x13
 2303 00db 00       		.byte	0
 2304 00dc 00       		.byte	0
 2305 00dd 14       		.uleb128 0x14
 2306 00de 0D       		.uleb128 0xd
 2307 00df 00       		.byte	0
 2308 00e0 03       		.uleb128 0x3
 2309 00e1 08       		.uleb128 0x8
 2310 00e2 3A       		.uleb128 0x3a
 2311 00e3 0B       		.uleb128 0xb
 2312 00e4 3B       		.uleb128 0x3b
ARM GAS  C:\Users\MIHAILO\AppData\Local\Temp\ccp4p2Le.s 			page 69


 2313 00e5 05       		.uleb128 0x5
 2314 00e6 49       		.uleb128 0x49
 2315 00e7 13       		.uleb128 0x13
 2316 00e8 00       		.byte	0
 2317 00e9 00       		.byte	0
 2318 00ea 15       		.uleb128 0x15
 2319 00eb 0D       		.uleb128 0xd
 2320 00ec 00       		.byte	0
 2321 00ed 03       		.uleb128 0x3
 2322 00ee 0E       		.uleb128 0xe
 2323 00ef 3A       		.uleb128 0x3a
 2324 00f0 0B       		.uleb128 0xb
 2325 00f1 3B       		.uleb128 0x3b
 2326 00f2 05       		.uleb128 0x5
 2327 00f3 49       		.uleb128 0x49
 2328 00f4 13       		.uleb128 0x13
 2329 00f5 00       		.byte	0
 2330 00f6 00       		.byte	0
 2331 00f7 16       		.uleb128 0x16
 2332 00f8 2E       		.uleb128 0x2e
 2333 00f9 01       		.byte	0x1
 2334 00fa 3F       		.uleb128 0x3f
 2335 00fb 19       		.uleb128 0x19
 2336 00fc 03       		.uleb128 0x3
 2337 00fd 0E       		.uleb128 0xe
 2338 00fe 3A       		.uleb128 0x3a
 2339 00ff 0B       		.uleb128 0xb
 2340 0100 3B       		.uleb128 0x3b
 2341 0101 05       		.uleb128 0x5
 2342 0102 27       		.uleb128 0x27
 2343 0103 19       		.uleb128 0x19
 2344 0104 11       		.uleb128 0x11
 2345 0105 01       		.uleb128 0x1
 2346 0106 12       		.uleb128 0x12
 2347 0107 06       		.uleb128 0x6
 2348 0108 40       		.uleb128 0x40
 2349 0109 18       		.uleb128 0x18
 2350 010a 9742     		.uleb128 0x2117
 2351 010c 19       		.uleb128 0x19
 2352 010d 01       		.uleb128 0x1
 2353 010e 13       		.uleb128 0x13
 2354 010f 00       		.byte	0
 2355 0110 00       		.byte	0
 2356 0111 17       		.uleb128 0x17
 2357 0112 34       		.uleb128 0x34
 2358 0113 00       		.byte	0
 2359 0114 03       		.uleb128 0x3
 2360 0115 0E       		.uleb128 0xe
 2361 0116 3A       		.uleb128 0x3a
 2362 0117 0B       		.uleb128 0xb
 2363 0118 3B       		.uleb128 0x3b
 2364 0119 05       		.uleb128 0x5
 2365 011a 49       		.uleb128 0x49
 2366 011b 13       		.uleb128 0x13
 2367 011c 02       		.uleb128 0x2
 2368 011d 17       		.uleb128 0x17
 2369 011e 00       		.byte	0
ARM GAS  C:\Users\MIHAILO\AppData\Local\Temp\ccp4p2Le.s 			page 70


 2370 011f 00       		.byte	0
 2371 0120 18       		.uleb128 0x18
 2372 0121 898201   		.uleb128 0x4109
 2373 0124 00       		.byte	0
 2374 0125 11       		.uleb128 0x11
 2375 0126 01       		.uleb128 0x1
 2376 0127 31       		.uleb128 0x31
 2377 0128 13       		.uleb128 0x13
 2378 0129 00       		.byte	0
 2379 012a 00       		.byte	0
 2380 012b 19       		.uleb128 0x19
 2381 012c 26       		.uleb128 0x26
 2382 012d 00       		.byte	0
 2383 012e 49       		.uleb128 0x49
 2384 012f 13       		.uleb128 0x13
 2385 0130 00       		.byte	0
 2386 0131 00       		.byte	0
 2387 0132 1A       		.uleb128 0x1a
 2388 0133 05       		.uleb128 0x5
 2389 0134 00       		.byte	0
 2390 0135 03       		.uleb128 0x3
 2391 0136 0E       		.uleb128 0xe
 2392 0137 3A       		.uleb128 0x3a
 2393 0138 0B       		.uleb128 0xb
 2394 0139 3B       		.uleb128 0x3b
 2395 013a 05       		.uleb128 0x5
 2396 013b 49       		.uleb128 0x49
 2397 013c 13       		.uleb128 0x13
 2398 013d 02       		.uleb128 0x2
 2399 013e 17       		.uleb128 0x17
 2400 013f 00       		.byte	0
 2401 0140 00       		.byte	0
 2402 0141 1B       		.uleb128 0x1b
 2403 0142 34       		.uleb128 0x34
 2404 0143 00       		.byte	0
 2405 0144 03       		.uleb128 0x3
 2406 0145 0E       		.uleb128 0xe
 2407 0146 3A       		.uleb128 0x3a
 2408 0147 0B       		.uleb128 0xb
 2409 0148 3B       		.uleb128 0x3b
 2410 0149 05       		.uleb128 0x5
 2411 014a 49       		.uleb128 0x49
 2412 014b 13       		.uleb128 0x13
 2413 014c 02       		.uleb128 0x2
 2414 014d 18       		.uleb128 0x18
 2415 014e 00       		.byte	0
 2416 014f 00       		.byte	0
 2417 0150 1C       		.uleb128 0x1c
 2418 0151 898201   		.uleb128 0x4109
 2419 0154 01       		.byte	0x1
 2420 0155 11       		.uleb128 0x11
 2421 0156 01       		.uleb128 0x1
 2422 0157 31       		.uleb128 0x31
 2423 0158 13       		.uleb128 0x13
 2424 0159 00       		.byte	0
 2425 015a 00       		.byte	0
 2426 015b 1D       		.uleb128 0x1d
ARM GAS  C:\Users\MIHAILO\AppData\Local\Temp\ccp4p2Le.s 			page 71


 2427 015c 8A8201   		.uleb128 0x410a
 2428 015f 00       		.byte	0
 2429 0160 02       		.uleb128 0x2
 2430 0161 18       		.uleb128 0x18
 2431 0162 9142     		.uleb128 0x2111
 2432 0164 18       		.uleb128 0x18
 2433 0165 00       		.byte	0
 2434 0166 00       		.byte	0
 2435 0167 1E       		.uleb128 0x1e
 2436 0168 05       		.uleb128 0x5
 2437 0169 00       		.byte	0
 2438 016a 03       		.uleb128 0x3
 2439 016b 0E       		.uleb128 0xe
 2440 016c 3A       		.uleb128 0x3a
 2441 016d 0B       		.uleb128 0xb
 2442 016e 3B       		.uleb128 0x3b
 2443 016f 05       		.uleb128 0x5
 2444 0170 49       		.uleb128 0x49
 2445 0171 13       		.uleb128 0x13
 2446 0172 02       		.uleb128 0x2
 2447 0173 18       		.uleb128 0x18
 2448 0174 00       		.byte	0
 2449 0175 00       		.byte	0
 2450 0176 1F       		.uleb128 0x1f
 2451 0177 2E       		.uleb128 0x2e
 2452 0178 01       		.byte	0x1
 2453 0179 3F       		.uleb128 0x3f
 2454 017a 19       		.uleb128 0x19
 2455 017b 03       		.uleb128 0x3
 2456 017c 0E       		.uleb128 0xe
 2457 017d 3A       		.uleb128 0x3a
 2458 017e 0B       		.uleb128 0xb
 2459 017f 3B       		.uleb128 0x3b
 2460 0180 05       		.uleb128 0x5
 2461 0181 27       		.uleb128 0x27
 2462 0182 19       		.uleb128 0x19
 2463 0183 49       		.uleb128 0x49
 2464 0184 13       		.uleb128 0x13
 2465 0185 11       		.uleb128 0x11
 2466 0186 01       		.uleb128 0x1
 2467 0187 12       		.uleb128 0x12
 2468 0188 06       		.uleb128 0x6
 2469 0189 40       		.uleb128 0x40
 2470 018a 18       		.uleb128 0x18
 2471 018b 9742     		.uleb128 0x2117
 2472 018d 19       		.uleb128 0x19
 2473 018e 01       		.uleb128 0x1
 2474 018f 13       		.uleb128 0x13
 2475 0190 00       		.byte	0
 2476 0191 00       		.byte	0
 2477 0192 20       		.uleb128 0x20
 2478 0193 898201   		.uleb128 0x4109
 2479 0196 01       		.byte	0x1
 2480 0197 11       		.uleb128 0x11
 2481 0198 01       		.uleb128 0x1
 2482 0199 31       		.uleb128 0x31
 2483 019a 13       		.uleb128 0x13
ARM GAS  C:\Users\MIHAILO\AppData\Local\Temp\ccp4p2Le.s 			page 72


 2484 019b 01       		.uleb128 0x1
 2485 019c 13       		.uleb128 0x13
 2486 019d 00       		.byte	0
 2487 019e 00       		.byte	0
 2488 019f 21       		.uleb128 0x21
 2489 01a0 34       		.uleb128 0x34
 2490 01a1 00       		.byte	0
 2491 01a2 03       		.uleb128 0x3
 2492 01a3 0E       		.uleb128 0xe
 2493 01a4 3A       		.uleb128 0x3a
 2494 01a5 0B       		.uleb128 0xb
 2495 01a6 3B       		.uleb128 0x3b
 2496 01a7 05       		.uleb128 0x5
 2497 01a8 49       		.uleb128 0x49
 2498 01a9 13       		.uleb128 0x13
 2499 01aa 3F       		.uleb128 0x3f
 2500 01ab 19       		.uleb128 0x19
 2501 01ac 3C       		.uleb128 0x3c
 2502 01ad 19       		.uleb128 0x19
 2503 01ae 00       		.byte	0
 2504 01af 00       		.byte	0
 2505 01b0 22       		.uleb128 0x22
 2506 01b1 2E       		.uleb128 0x2e
 2507 01b2 00       		.byte	0
 2508 01b3 3F       		.uleb128 0x3f
 2509 01b4 19       		.uleb128 0x19
 2510 01b5 3C       		.uleb128 0x3c
 2511 01b6 19       		.uleb128 0x19
 2512 01b7 6E       		.uleb128 0x6e
 2513 01b8 0E       		.uleb128 0xe
 2514 01b9 03       		.uleb128 0x3
 2515 01ba 0E       		.uleb128 0xe
 2516 01bb 3A       		.uleb128 0x3a
 2517 01bc 0B       		.uleb128 0xb
 2518 01bd 3B       		.uleb128 0x3b
 2519 01be 0B       		.uleb128 0xb
 2520 01bf 00       		.byte	0
 2521 01c0 00       		.byte	0
 2522 01c1 00       		.byte	0
 2523              		.section	.debug_loc,"",%progbits
 2524              	.Ldebug_loc0:
 2525              	.LLST0:
 2526 0000 02000000 		.4byte	.LVL0
 2527 0004 06000000 		.4byte	.LVL1
 2528 0008 0200     		.2byte	0x2
 2529 000a 30       		.byte	0x30
 2530 000b 9F       		.byte	0x9f
 2531 000c 06000000 		.4byte	.LVL1
 2532 0010 22000000 		.4byte	.LVL3
 2533 0014 0100     		.2byte	0x1
 2534 0016 53       		.byte	0x53
 2535 0017 24000000 		.4byte	.LVL4
 2536 001b 46000000 		.4byte	.LVL10
 2537 001f 0100     		.2byte	0x1
 2538 0021 55       		.byte	0x55
 2539 0022 46000000 		.4byte	.LVL10
 2540 0026 48000000 		.4byte	.LVL11
ARM GAS  C:\Users\MIHAILO\AppData\Local\Temp\ccp4p2Le.s 			page 73


 2541 002a 0100     		.2byte	0x1
 2542 002c 53       		.byte	0x53
 2543 002d 48000000 		.4byte	.LVL11
 2544 0031 4C000000 		.4byte	.LVL13
 2545 0035 0100     		.2byte	0x1
 2546 0037 55       		.byte	0x55
 2547 0038 4C000000 		.4byte	.LVL13
 2548 003c 58000000 		.4byte	.LFE0
 2549 0040 0300     		.2byte	0x3
 2550 0042 73       		.byte	0x73
 2551 0043 7F       		.sleb128 -1
 2552 0044 9F       		.byte	0x9f
 2553 0045 00000000 		.4byte	0
 2554 0049 00000000 		.4byte	0
 2555              	.LLST1:
 2556 004d 28000000 		.4byte	.LVL6
 2557 0051 3E000000 		.4byte	.LVL7
 2558 0055 0100     		.2byte	0x1
 2559 0057 52       		.byte	0x52
 2560 0058 00000000 		.4byte	0
 2561 005c 00000000 		.4byte	0
 2562              	.LLST2:
 2563 0060 26000000 		.4byte	.LVL5
 2564 0064 46000000 		.4byte	.LVL10
 2565 0068 0100     		.2byte	0x1
 2566 006a 56       		.byte	0x56
 2567 006b 00000000 		.4byte	0
 2568 006f 00000000 		.4byte	0
 2569              	.LLST3:
 2570 0073 24000000 		.4byte	.LVL4
 2571 0077 4C000000 		.4byte	.LVL12
 2572 007b 0100     		.2byte	0x1
 2573 007d 54       		.byte	0x54
 2574 007e 00000000 		.4byte	0
 2575 0082 00000000 		.4byte	0
 2576              	.LLST4:
 2577 0086 00000000 		.4byte	.LVL14
 2578 008a 08000000 		.4byte	.LVL15
 2579 008e 0100     		.2byte	0x1
 2580 0090 50       		.byte	0x50
 2581 0091 08000000 		.4byte	.LVL15
 2582 0095 30000000 		.4byte	.LVL21
 2583 0099 0100     		.2byte	0x1
 2584 009b 54       		.byte	0x54
 2585 009c 30000000 		.4byte	.LVL21
 2586 00a0 32000000 		.4byte	.LFE4
 2587 00a4 0400     		.2byte	0x4
 2588 00a6 F3       		.byte	0xf3
 2589 00a7 01       		.uleb128 0x1
 2590 00a8 50       		.byte	0x50
 2591 00a9 9F       		.byte	0x9f
 2592 00aa 00000000 		.4byte	0
 2593 00ae 00000000 		.4byte	0
 2594              	.LLST5:
 2595 00b2 00000000 		.4byte	.LVL14
 2596 00b6 0E000000 		.4byte	.LVL18
 2597 00ba 0100     		.2byte	0x1
ARM GAS  C:\Users\MIHAILO\AppData\Local\Temp\ccp4p2Le.s 			page 74


 2598 00bc 51       		.byte	0x51
 2599 00bd 0E000000 		.4byte	.LVL18
 2600 00c1 15000000 		.4byte	.LVL19-1
 2601 00c5 0100     		.2byte	0x1
 2602 00c7 50       		.byte	0x50
 2603 00c8 15000000 		.4byte	.LVL19-1
 2604 00cc 32000000 		.4byte	.LFE4
 2605 00d0 0400     		.2byte	0x4
 2606 00d2 F3       		.byte	0xf3
 2607 00d3 01       		.uleb128 0x1
 2608 00d4 51       		.byte	0x51
 2609 00d5 9F       		.byte	0x9f
 2610 00d6 00000000 		.4byte	0
 2611 00da 00000000 		.4byte	0
 2612              	.LLST6:
 2613 00de 00000000 		.4byte	.LVL14
 2614 00e2 0C000000 		.4byte	.LVL17
 2615 00e6 0100     		.2byte	0x1
 2616 00e8 52       		.byte	0x52
 2617 00e9 0C000000 		.4byte	.LVL17
 2618 00ed 15000000 		.4byte	.LVL19-1
 2619 00f1 0100     		.2byte	0x1
 2620 00f3 53       		.byte	0x53
 2621 00f4 15000000 		.4byte	.LVL19-1
 2622 00f8 32000000 		.4byte	.LFE4
 2623 00fc 0400     		.2byte	0x4
 2624 00fe F3       		.byte	0xf3
 2625 00ff 01       		.uleb128 0x1
 2626 0100 52       		.byte	0x52
 2627 0101 9F       		.byte	0x9f
 2628 0102 00000000 		.4byte	0
 2629 0106 00000000 		.4byte	0
 2630              	.LLST7:
 2631 010a 0A000000 		.4byte	.LVL16
 2632 010e 30000000 		.4byte	.LVL20
 2633 0112 0100     		.2byte	0x1
 2634 0114 5D       		.byte	0x5d
 2635 0115 30000000 		.4byte	.LVL20
 2636 0119 32000000 		.4byte	.LFE4
 2637 011d 0300     		.2byte	0x3
 2638 011f 91       		.byte	0x91
 2639 0120 70       		.sleb128 -16
 2640 0121 9F       		.byte	0x9f
 2641 0122 00000000 		.4byte	0
 2642 0126 00000000 		.4byte	0
 2643              	.LLST8:
 2644 012a 00000000 		.4byte	.LVL22
 2645 012e 0E000000 		.4byte	.LVL25
 2646 0132 0100     		.2byte	0x1
 2647 0134 50       		.byte	0x50
 2648 0135 0E000000 		.4byte	.LVL25
 2649 0139 16000000 		.4byte	.LFE5
 2650 013d 0400     		.2byte	0x4
 2651 013f F3       		.byte	0xf3
 2652 0140 01       		.uleb128 0x1
 2653 0141 50       		.byte	0x50
 2654 0142 9F       		.byte	0x9f
ARM GAS  C:\Users\MIHAILO\AppData\Local\Temp\ccp4p2Le.s 			page 75


 2655 0143 00000000 		.4byte	0
 2656 0147 00000000 		.4byte	0
 2657              	.LLST9:
 2658 014b 02000000 		.4byte	.LVL23
 2659 014f 08000000 		.4byte	.LVL24
 2660 0153 0200     		.2byte	0x2
 2661 0155 30       		.byte	0x30
 2662 0156 9F       		.byte	0x9f
 2663 0157 08000000 		.4byte	.LVL24
 2664 015b 14000000 		.4byte	.LVL26
 2665 015f 0100     		.2byte	0x1
 2666 0161 54       		.byte	0x54
 2667 0162 14000000 		.4byte	.LVL26
 2668 0166 16000000 		.4byte	.LFE5
 2669 016a 0600     		.2byte	0x6
 2670 016c 73       		.byte	0x73
 2671 016d 00       		.sleb128 0
 2672 016e 72       		.byte	0x72
 2673 016f 00       		.sleb128 0
 2674 0170 1C       		.byte	0x1c
 2675 0171 9F       		.byte	0x9f
 2676 0172 00000000 		.4byte	0
 2677 0176 00000000 		.4byte	0
 2678              	.LLST10:
 2679 017a 00000000 		.4byte	.LVL27
 2680 017e 1C000000 		.4byte	.LVL34
 2681 0182 0100     		.2byte	0x1
 2682 0184 50       		.byte	0x50
 2683 0185 1C000000 		.4byte	.LVL34
 2684 0189 56000000 		.4byte	.LVL49
 2685 018d 0100     		.2byte	0x1
 2686 018f 5A       		.byte	0x5a
 2687 0190 56000000 		.4byte	.LVL49
 2688 0194 5C000000 		.4byte	.LFE1
 2689 0198 0400     		.2byte	0x4
 2690 019a F3       		.byte	0xf3
 2691 019b 01       		.uleb128 0x1
 2692 019c 50       		.byte	0x50
 2693 019d 9F       		.byte	0x9f
 2694 019e 00000000 		.4byte	0
 2695 01a2 00000000 		.4byte	0
 2696              	.LLST11:
 2697 01a6 0A000000 		.4byte	.LVL28
 2698 01aa 1C000000 		.4byte	.LVL34
 2699 01ae 0200     		.2byte	0x2
 2700 01b0 30       		.byte	0x30
 2701 01b1 9F       		.byte	0x9f
 2702 01b2 1C000000 		.4byte	.LVL34
 2703 01b6 3E000000 		.4byte	.LVL39
 2704 01ba 0200     		.2byte	0x2
 2705 01bc 7D       		.byte	0x7d
 2706 01bd 00       		.sleb128 0
 2707 01be 3E000000 		.4byte	.LVL39
 2708 01c2 42000000 		.4byte	.LVL40
 2709 01c6 0100     		.2byte	0x1
 2710 01c8 50       		.byte	0x50
 2711 01c9 42000000 		.4byte	.LVL40
ARM GAS  C:\Users\MIHAILO\AppData\Local\Temp\ccp4p2Le.s 			page 76


 2712 01cd 56000000 		.4byte	.LVL44
 2713 01d1 0200     		.2byte	0x2
 2714 01d3 7D       		.byte	0x7d
 2715 01d4 00       		.sleb128 0
 2716 01d5 56000000 		.4byte	.LVL44
 2717 01d9 5C000000 		.4byte	.LFE1
 2718 01dd 0100     		.2byte	0x1
 2719 01df 50       		.byte	0x50
 2720 01e0 00000000 		.4byte	0
 2721 01e4 00000000 		.4byte	0
 2722              	.LLST12:
 2723 01e8 12000000 		.4byte	.LVL31
 2724 01ec 18000000 		.4byte	.LVL33
 2725 01f0 0100     		.2byte	0x1
 2726 01f2 53       		.byte	0x53
 2727 01f3 18000000 		.4byte	.LVL33
 2728 01f7 5C000000 		.4byte	.LFE1
 2729 01fb 0200     		.2byte	0x2
 2730 01fd 91       		.byte	0x91
 2731 01fe 64       		.sleb128 -28
 2732 01ff 00000000 		.4byte	0
 2733 0203 00000000 		.4byte	0
 2734              	.LLST13:
 2735 0207 14000000 		.4byte	.LVL32
 2736 020b 1C000000 		.4byte	.LVL34
 2737 020f 0200     		.2byte	0x2
 2738 0211 30       		.byte	0x30
 2739 0212 9F       		.byte	0x9f
 2740 0213 1C000000 		.4byte	.LVL34
 2741 0217 56000000 		.4byte	.LVL47
 2742 021b 0100     		.2byte	0x1
 2743 021d 56       		.byte	0x56
 2744 021e 00000000 		.4byte	0
 2745 0222 00000000 		.4byte	0
 2746              	.LLST14:
 2747 0226 0C000000 		.4byte	.LVL29
 2748 022a 56000000 		.4byte	.LVL45
 2749 022e 0100     		.2byte	0x1
 2750 0230 54       		.byte	0x54
 2751 0231 00000000 		.4byte	0
 2752 0235 00000000 		.4byte	0
 2753              	.LLST15:
 2754 0239 0E000000 		.4byte	.LVL30
 2755 023d 56000000 		.4byte	.LVL46
 2756 0241 0100     		.2byte	0x1
 2757 0243 55       		.byte	0x55
 2758 0244 00000000 		.4byte	0
 2759 0248 00000000 		.4byte	0
 2760              	.LLST16:
 2761 024c 14000000 		.4byte	.LVL32
 2762 0250 56000000 		.4byte	.LVL48
 2763 0254 0100     		.2byte	0x1
 2764 0256 57       		.byte	0x57
 2765 0257 00000000 		.4byte	0
 2766 025b 00000000 		.4byte	0
 2767              	.LLST17:
 2768 025f 00000000 		.4byte	.LVL50
ARM GAS  C:\Users\MIHAILO\AppData\Local\Temp\ccp4p2Le.s 			page 77


 2769 0263 18000000 		.4byte	.LVL57
 2770 0267 0100     		.2byte	0x1
 2771 0269 50       		.byte	0x50
 2772 026a 18000000 		.4byte	.LVL57
 2773 026e 52000000 		.4byte	.LFE2
 2774 0272 0400     		.2byte	0x4
 2775 0274 F3       		.byte	0xf3
 2776 0275 01       		.uleb128 0x1
 2777 0276 50       		.byte	0x50
 2778 0277 9F       		.byte	0x9f
 2779 0278 00000000 		.4byte	0
 2780 027c 00000000 		.4byte	0
 2781              	.LLST18:
 2782 0280 00000000 		.4byte	.LVL50
 2783 0284 14000000 		.4byte	.LVL56
 2784 0288 0100     		.2byte	0x1
 2785 028a 51       		.byte	0x51
 2786 028b 14000000 		.4byte	.LVL56
 2787 028f 52000000 		.4byte	.LFE2
 2788 0293 0200     		.2byte	0x2
 2789 0295 91       		.byte	0x91
 2790 0296 64       		.sleb128 -28
 2791 0297 00000000 		.4byte	0
 2792 029b 00000000 		.4byte	0
 2793              	.LLST19:
 2794 029f 00000000 		.4byte	.LVL50
 2795 02a3 1A000000 		.4byte	.LVL58
 2796 02a7 0100     		.2byte	0x1
 2797 02a9 52       		.byte	0x52
 2798 02aa 1E000000 		.4byte	.LVL59
 2799 02ae 24000000 		.4byte	.LVL60
 2800 02b2 0100     		.2byte	0x1
 2801 02b4 52       		.byte	0x52
 2802 02b5 2C000000 		.4byte	.LVL61
 2803 02b9 32000000 		.4byte	.LVL62
 2804 02bd 0100     		.2byte	0x1
 2805 02bf 52       		.byte	0x52
 2806 02c0 3E000000 		.4byte	.LVL65
 2807 02c4 4B000000 		.4byte	.LVL67-1
 2808 02c8 0100     		.2byte	0x1
 2809 02ca 52       		.byte	0x52
 2810 02cb 4C000000 		.4byte	.LVL67
 2811 02cf 52000000 		.4byte	.LFE2
 2812 02d3 0100     		.2byte	0x1
 2813 02d5 52       		.byte	0x52
 2814 02d6 00000000 		.4byte	0
 2815 02da 00000000 		.4byte	0
 2816              	.LLST20:
 2817 02de 00000000 		.4byte	.LVL50
 2818 02e2 12000000 		.4byte	.LVL55
 2819 02e6 0100     		.2byte	0x1
 2820 02e8 53       		.byte	0x53
 2821 02e9 12000000 		.4byte	.LVL55
 2822 02ed 50000000 		.4byte	.LVL68
 2823 02f1 0100     		.2byte	0x1
 2824 02f3 54       		.byte	0x54
 2825 02f4 50000000 		.4byte	.LVL68
ARM GAS  C:\Users\MIHAILO\AppData\Local\Temp\ccp4p2Le.s 			page 78


 2826 02f8 52000000 		.4byte	.LFE2
 2827 02fc 0400     		.2byte	0x4
 2828 02fe F3       		.byte	0xf3
 2829 02ff 01       		.uleb128 0x1
 2830 0300 53       		.byte	0x53
 2831 0301 9F       		.byte	0x9f
 2832 0302 00000000 		.4byte	0
 2833 0306 00000000 		.4byte	0
 2834              	.LLST21:
 2835 030a 08000000 		.4byte	.LVL51
 2836 030e 3C000000 		.4byte	.LVL64
 2837 0312 0200     		.2byte	0x2
 2838 0314 30       		.byte	0x30
 2839 0315 9F       		.byte	0x9f
 2840 0316 3C000000 		.4byte	.LVL64
 2841 031a 3E000000 		.4byte	.LVL65
 2842 031e 0100     		.2byte	0x1
 2843 0320 50       		.byte	0x50
 2844 0321 3E000000 		.4byte	.LVL65
 2845 0325 40000000 		.4byte	.LVL66
 2846 0329 0200     		.2byte	0x2
 2847 032b 30       		.byte	0x30
 2848 032c 9F       		.byte	0x9f
 2849 032d 40000000 		.4byte	.LVL66
 2850 0331 50000000 		.4byte	.LVL71
 2851 0335 0100     		.2byte	0x1
 2852 0337 57       		.byte	0x57
 2853 0338 50000000 		.4byte	.LVL71
 2854 033c 52000000 		.4byte	.LFE2
 2855 0340 0100     		.2byte	0x1
 2856 0342 50       		.byte	0x50
 2857 0343 00000000 		.4byte	0
 2858 0347 00000000 		.4byte	0
 2859              	.LLST22:
 2860 034b 0C000000 		.4byte	.LVL53
 2861 034f 50000000 		.4byte	.LVL70
 2862 0353 0100     		.2byte	0x1
 2863 0355 56       		.byte	0x56
 2864 0356 00000000 		.4byte	0
 2865 035a 00000000 		.4byte	0
 2866              	.LLST23:
 2867 035e 0E000000 		.4byte	.LVL54
 2868 0362 50000000 		.4byte	.LVL69
 2869 0366 0100     		.2byte	0x1
 2870 0368 55       		.byte	0x55
 2871 0369 00000000 		.4byte	0
 2872 036d 00000000 		.4byte	0
 2873              	.LLST24:
 2874 0371 0A000000 		.4byte	.LVL52
 2875 0375 3C000000 		.4byte	.LVL64
 2876 0379 0100     		.2byte	0x1
 2877 037b 57       		.byte	0x57
 2878 037c 3E000000 		.4byte	.LVL65
 2879 0380 40000000 		.4byte	.LVL66
 2880 0384 0100     		.2byte	0x1
 2881 0386 57       		.byte	0x57
 2882 0387 00000000 		.4byte	0
ARM GAS  C:\Users\MIHAILO\AppData\Local\Temp\ccp4p2Le.s 			page 79


 2883 038b 00000000 		.4byte	0
 2884              	.LLST25:
 2885 038f 00000000 		.4byte	.LVL72
 2886 0393 44000000 		.4byte	.LVL84
 2887 0397 0100     		.2byte	0x1
 2888 0399 50       		.byte	0x50
 2889 039a 44000000 		.4byte	.LVL84
 2890 039e 64000000 		.4byte	.LFE6
 2891 03a2 0100     		.2byte	0x1
 2892 03a4 50       		.byte	0x50
 2893 03a5 00000000 		.4byte	0
 2894 03a9 00000000 		.4byte	0
 2895              	.LLST26:
 2896 03ad 00000000 		.4byte	.LVL72
 2897 03b1 0C000000 		.4byte	.LVL77
 2898 03b5 0100     		.2byte	0x1
 2899 03b7 51       		.byte	0x51
 2900 03b8 0C000000 		.4byte	.LVL77
 2901 03bc 64000000 		.4byte	.LFE6
 2902 03c0 0400     		.2byte	0x4
 2903 03c2 F3       		.byte	0xf3
 2904 03c3 01       		.uleb128 0x1
 2905 03c4 51       		.byte	0x51
 2906 03c5 9F       		.byte	0x9f
 2907 03c6 00000000 		.4byte	0
 2908 03ca 00000000 		.4byte	0
 2909              	.LLST27:
 2910 03ce 04000000 		.4byte	.LVL73
 2911 03d2 0E000000 		.4byte	.LVL78
 2912 03d6 0100     		.2byte	0x1
 2913 03d8 52       		.byte	0x52
 2914 03d9 0E000000 		.4byte	.LVL78
 2915 03dd 10000000 		.4byte	.LVL79
 2916 03e1 0100     		.2byte	0x1
 2917 03e3 54       		.byte	0x54
 2918 03e4 10000000 		.4byte	.LVL79
 2919 03e8 5A000000 		.4byte	.LVL92
 2920 03ec 0100     		.2byte	0x1
 2921 03ee 5C       		.byte	0x5c
 2922 03ef 5A000000 		.4byte	.LVL92
 2923 03f3 5E000000 		.4byte	.LVL93
 2924 03f7 0100     		.2byte	0x1
 2925 03f9 52       		.byte	0x52
 2926 03fa 5E000000 		.4byte	.LVL93
 2927 03fe 62000000 		.4byte	.LVL94
 2928 0402 0100     		.2byte	0x1
 2929 0404 54       		.byte	0x54
 2930 0405 62000000 		.4byte	.LVL94
 2931 0409 64000000 		.4byte	.LFE6
 2932 040d 0100     		.2byte	0x1
 2933 040f 5C       		.byte	0x5c
 2934 0410 00000000 		.4byte	0
 2935 0414 00000000 		.4byte	0
 2936              	.LLST28:
 2937 0418 0A000000 		.4byte	.LVL76
 2938 041c 0E000000 		.4byte	.LVL78
 2939 0420 0200     		.2byte	0x2
ARM GAS  C:\Users\MIHAILO\AppData\Local\Temp\ccp4p2Le.s 			page 80


 2940 0422 31       		.byte	0x31
 2941 0423 9F       		.byte	0x9f
 2942 0424 0E000000 		.4byte	.LVL78
 2943 0428 64000000 		.4byte	.LFE6
 2944 042c 0100     		.2byte	0x1
 2945 042e 51       		.byte	0x51
 2946 042f 00000000 		.4byte	0
 2947 0433 00000000 		.4byte	0
 2948              	.LLST29:
 2949 0437 2E000000 		.4byte	.LVL83
 2950 043b 4C000000 		.4byte	.LVL86
 2951 043f 0100     		.2byte	0x1
 2952 0441 52       		.byte	0x52
 2953 0442 4E000000 		.4byte	.LVL87
 2954 0446 50000000 		.4byte	.LVL88
 2955 044a 0100     		.2byte	0x1
 2956 044c 52       		.byte	0x52
 2957 044d 00000000 		.4byte	0
 2958 0451 00000000 		.4byte	0
 2959              	.LLST30:
 2960 0455 22000000 		.4byte	.LVL80
 2961 0459 2A000000 		.4byte	.LVL81
 2962 045d 0100     		.2byte	0x1
 2963 045f 52       		.byte	0x52
 2964 0460 2C000000 		.4byte	.LVL82
 2965 0464 2E000000 		.4byte	.LVL83
 2966 0468 0100     		.2byte	0x1
 2967 046a 52       		.byte	0x52
 2968 046b 00000000 		.4byte	0
 2969 046f 00000000 		.4byte	0
 2970              	.LLST31:
 2971 0473 06000000 		.4byte	.LVL74
 2972 0477 62000000 		.4byte	.LVL95
 2973 047b 0100     		.2byte	0x1
 2974 047d 55       		.byte	0x55
 2975 047e 00000000 		.4byte	0
 2976 0482 00000000 		.4byte	0
 2977              	.LLST32:
 2978 0486 08000000 		.4byte	.LVL75
 2979 048a 62000000 		.4byte	.LVL96
 2980 048e 0100     		.2byte	0x1
 2981 0490 57       		.byte	0x57
 2982 0491 00000000 		.4byte	0
 2983 0495 00000000 		.4byte	0
 2984              	.LLST33:
 2985 0499 00000000 		.4byte	.LVL97
 2986 049d 12000000 		.4byte	.LVL100
 2987 04a1 0100     		.2byte	0x1
 2988 04a3 50       		.byte	0x50
 2989 04a4 12000000 		.4byte	.LVL100
 2990 04a8 1A000000 		.4byte	.LVL103
 2991 04ac 0100     		.2byte	0x1
 2992 04ae 54       		.byte	0x54
 2993 04af 1A000000 		.4byte	.LVL103
 2994 04b3 1C000000 		.4byte	.LVL104
 2995 04b7 0100     		.2byte	0x1
 2996 04b9 50       		.byte	0x50
ARM GAS  C:\Users\MIHAILO\AppData\Local\Temp\ccp4p2Le.s 			page 81


 2997 04ba 1C000000 		.4byte	.LVL104
 2998 04be 2C000000 		.4byte	.LVL107
 2999 04c2 0100     		.2byte	0x1
 3000 04c4 54       		.byte	0x54
 3001 04c5 2C000000 		.4byte	.LVL107
 3002 04c9 58000000 		.4byte	.LFE3
 3003 04cd 0400     		.2byte	0x4
 3004 04cf F3       		.byte	0xf3
 3005 04d0 01       		.uleb128 0x1
 3006 04d1 50       		.byte	0x50
 3007 04d2 9F       		.byte	0x9f
 3008 04d3 00000000 		.4byte	0
 3009 04d7 00000000 		.4byte	0
 3010              	.LLST34:
 3011 04db 00000000 		.4byte	.LVL97
 3012 04df 15000000 		.4byte	.LVL101-1
 3013 04e3 0100     		.2byte	0x1
 3014 04e5 51       		.byte	0x51
 3015 04e6 15000000 		.4byte	.LVL101-1
 3016 04ea 1A000000 		.4byte	.LVL103
 3017 04ee 0400     		.2byte	0x4
 3018 04f0 F3       		.byte	0xf3
 3019 04f1 01       		.uleb128 0x1
 3020 04f2 51       		.byte	0x51
 3021 04f3 9F       		.byte	0x9f
 3022 04f4 1A000000 		.4byte	.LVL103
 3023 04f8 1F000000 		.4byte	.LVL105-1
 3024 04fc 0100     		.2byte	0x1
 3025 04fe 51       		.byte	0x51
 3026 04ff 1F000000 		.4byte	.LVL105-1
 3027 0503 58000000 		.4byte	.LFE3
 3028 0507 0400     		.2byte	0x4
 3029 0509 F3       		.byte	0xf3
 3030 050a 01       		.uleb128 0x1
 3031 050b 51       		.byte	0x51
 3032 050c 9F       		.byte	0x9f
 3033 050d 00000000 		.4byte	0
 3034 0511 00000000 		.4byte	0
 3035              	.LLST35:
 3036 0515 0C000000 		.4byte	.LVL99
 3037 0519 18000000 		.4byte	.LVL102
 3038 051d 0100     		.2byte	0x1
 3039 051f 55       		.byte	0x55
 3040 0520 18000000 		.4byte	.LVL102
 3041 0524 1A000000 		.4byte	.LVL103
 3042 0528 0100     		.2byte	0x1
 3043 052a 50       		.byte	0x50
 3044 052b 1A000000 		.4byte	.LVL103
 3045 052f 52000000 		.4byte	.LVL116
 3046 0533 0100     		.2byte	0x1
 3047 0535 55       		.byte	0x55
 3048 0536 00000000 		.4byte	0
 3049 053a 00000000 		.4byte	0
 3050              	.LLST36:
 3051 053e 28000000 		.4byte	.LVL106
 3052 0542 36000000 		.4byte	.LVL109
 3053 0546 0100     		.2byte	0x1
ARM GAS  C:\Users\MIHAILO\AppData\Local\Temp\ccp4p2Le.s 			page 82


 3054 0548 53       		.byte	0x53
 3055 0549 36000000 		.4byte	.LVL109
 3056 054d 38000000 		.4byte	.LVL110
 3057 0551 0300     		.2byte	0x3
 3058 0553 73       		.byte	0x73
 3059 0554 7C       		.sleb128 -4
 3060 0555 9F       		.byte	0x9f
 3061 0556 38000000 		.4byte	.LVL110
 3062 055a 44000000 		.4byte	.LVL111
 3063 055e 0600     		.2byte	0x6
 3064 0560 F3       		.byte	0xf3
 3065 0561 01       		.uleb128 0x1
 3066 0562 50       		.byte	0x50
 3067 0563 35       		.byte	0x35
 3068 0564 25       		.byte	0x25
 3069 0565 9F       		.byte	0x9f
 3070 0566 44000000 		.4byte	.LVL111
 3071 056a 46000000 		.4byte	.LVL112
 3072 056e 0100     		.2byte	0x1
 3073 0570 53       		.byte	0x53
 3074 0571 46000000 		.4byte	.LVL112
 3075 0575 48000000 		.4byte	.LVL113
 3076 0579 0300     		.2byte	0x3
 3077 057b 73       		.byte	0x73
 3078 057c 7C       		.sleb128 -4
 3079 057d 9F       		.byte	0x9f
 3080 057e 48000000 		.4byte	.LVL113
 3081 0582 58000000 		.4byte	.LFE3
 3082 0586 0600     		.2byte	0x6
 3083 0588 F3       		.byte	0xf3
 3084 0589 01       		.uleb128 0x1
 3085 058a 50       		.byte	0x50
 3086 058b 35       		.byte	0x35
 3087 058c 25       		.byte	0x25
 3088 058d 9F       		.byte	0x9f
 3089 058e 00000000 		.4byte	0
 3090 0592 00000000 		.4byte	0
 3091              	.LLST37:
 3092 0596 30000000 		.4byte	.LVL108
 3093 059a 50000000 		.4byte	.LVL114
 3094 059e 0100     		.2byte	0x1
 3095 05a0 52       		.byte	0x52
 3096 05a1 50000000 		.4byte	.LVL114
 3097 05a5 52000000 		.4byte	.LVL115
 3098 05a9 0500     		.2byte	0x5
 3099 05ab 31       		.byte	0x31
 3100 05ac 74       		.byte	0x74
 3101 05ad 00       		.sleb128 0
 3102 05ae 24       		.byte	0x24
 3103 05af 9F       		.byte	0x9f
 3104 05b0 52000000 		.4byte	.LVL115
 3105 05b4 58000000 		.4byte	.LFE3
 3106 05b8 0800     		.2byte	0x8
 3107 05ba 31       		.byte	0x31
 3108 05bb F3       		.byte	0xf3
 3109 05bc 01       		.uleb128 0x1
 3110 05bd 50       		.byte	0x50
ARM GAS  C:\Users\MIHAILO\AppData\Local\Temp\ccp4p2Le.s 			page 83


 3111 05be 4F       		.byte	0x4f
 3112 05bf 1A       		.byte	0x1a
 3113 05c0 24       		.byte	0x24
 3114 05c1 9F       		.byte	0x9f
 3115 05c2 00000000 		.4byte	0
 3116 05c6 00000000 		.4byte	0
 3117              	.LLST38:
 3118 05ca 06000000 		.4byte	.LVL98
 3119 05ce 15000000 		.4byte	.LVL101-1
 3120 05d2 0100     		.2byte	0x1
 3121 05d4 52       		.byte	0x52
 3122 05d5 1A000000 		.4byte	.LVL103
 3123 05d9 1F000000 		.4byte	.LVL105-1
 3124 05dd 0100     		.2byte	0x1
 3125 05df 52       		.byte	0x52
 3126 05e0 00000000 		.4byte	0
 3127 05e4 00000000 		.4byte	0
 3128              		.section	.debug_aranges,"",%progbits
 3129 0000 4C000000 		.4byte	0x4c
 3130 0004 0200     		.2byte	0x2
 3131 0006 00000000 		.4byte	.Ldebug_info0
 3132 000a 04       		.byte	0x4
 3133 000b 00       		.byte	0
 3134 000c 0000     		.2byte	0
 3135 000e 0000     		.2byte	0
 3136 0010 00000000 		.4byte	.LFB0
 3137 0014 58000000 		.4byte	.LFE0-.LFB0
 3138 0018 00000000 		.4byte	.LFB4
 3139 001c 32000000 		.4byte	.LFE4-.LFB4
 3140 0020 00000000 		.4byte	.LFB5
 3141 0024 16000000 		.4byte	.LFE5-.LFB5
 3142 0028 00000000 		.4byte	.LFB1
 3143 002c 5C000000 		.4byte	.LFE1-.LFB1
 3144 0030 00000000 		.4byte	.LFB2
 3145 0034 52000000 		.4byte	.LFE2-.LFB2
 3146 0038 00000000 		.4byte	.LFB6
 3147 003c 64000000 		.4byte	.LFE6-.LFB6
 3148 0040 00000000 		.4byte	.LFB3
 3149 0044 58000000 		.4byte	.LFE3-.LFB3
 3150 0048 00000000 		.4byte	0
 3151 004c 00000000 		.4byte	0
 3152              		.section	.debug_ranges,"",%progbits
 3153              	.Ldebug_ranges0:
 3154 0000 00000000 		.4byte	.LFB0
 3155 0004 58000000 		.4byte	.LFE0
 3156 0008 00000000 		.4byte	.LFB4
 3157 000c 32000000 		.4byte	.LFE4
 3158 0010 00000000 		.4byte	.LFB5
 3159 0014 16000000 		.4byte	.LFE5
 3160 0018 00000000 		.4byte	.LFB1
 3161 001c 5C000000 		.4byte	.LFE1
 3162 0020 00000000 		.4byte	.LFB2
 3163 0024 52000000 		.4byte	.LFE2
 3164 0028 00000000 		.4byte	.LFB6
 3165 002c 64000000 		.4byte	.LFE6
 3166 0030 00000000 		.4byte	.LFB3
 3167 0034 58000000 		.4byte	.LFE3
ARM GAS  C:\Users\MIHAILO\AppData\Local\Temp\ccp4p2Le.s 			page 84


 3168 0038 00000000 		.4byte	0
 3169 003c 00000000 		.4byte	0
 3170              		.section	.debug_line,"",%progbits
 3171              	.Ldebug_line0:
 3172 0000 25030000 		.section	.debug_str,"MS",%progbits,1
 3172      0200B601 
 3172      00000201 
 3172      FB0E0D00 
 3172      01010101 
 3173              	.LASF107:
 3174 0000 7074724E 		.ascii	"ptrNoiseEnvelope\000"
 3174      6F697365 
 3174      456E7665 
 3174      6C6F7065 
 3174      00
 3175              	.LASF39:
 3176 0011 43617053 		.ascii	"CapSense_WD_PROXIMITY_E\000"
 3176      656E7365 
 3176      5F57445F 
 3176      50524F58 
 3176      494D4954 
 3177              	.LASF118:
 3178 0029 43617053 		.ascii	"CapSense_DpProcessCsdSensorRawCountsExt\000"
 3178      656E7365 
 3178      5F447050 
 3178      726F6365 
 3178      73734373 
 3179              	.LASF106:
 3180 0051 43617053 		.ascii	"CapSense_DpUpdateThresholds\000"
 3180      656E7365 
 3180      5F447055 
 3180      70646174 
 3180      65546872 
 3181              	.LASF123:
 3182 006d 736E7343 		.ascii	"snsCnt\000"
 3182      6E7400
 3183              	.LASF101:
 3184 0074 77646774 		.ascii	"wdgtId\000"
 3184      496400
 3185              	.LASF119:
 3186 007b 666C7472 		.ascii	"fltrHistV\000"
 3186      48697374 
 3186      5600
 3187              	.LASF75:
 3188 0085 736E7254 		.ascii	"snrTestWidgetId\000"
 3188      65737457 
 3188      69646765 
 3188      74496400 
 3189              	.LASF134:
 3190 0095 43617053 		.ascii	"CapSense_dsFlash\000"
 3190      656E7365 
 3190      5F647346 
 3190      6C617368 
 3190      00
 3191              	.LASF128:
 3192 00a6 43617053 		.ascii	"CapSense_DpProcessCsdWidgetStatus\000"
 3192      656E7365 
ARM GAS  C:\Users\MIHAILO\AppData\Local\Temp\ccp4p2Le.s 			page 85


 3192      5F447050 
 3192      726F6365 
 3192      73734373 
 3193              	.LASF110:
 3194 00c8 70747254 		.ascii	"ptrThresholds\000"
 3194      68726573 
 3194      686F6C64 
 3194      7300
 3195              	.LASF8:
 3196 00d6 756E7369 		.ascii	"unsigned int\000"
 3196      676E6564 
 3196      20696E74 
 3196      00
 3197              	.LASF66:
 3198 00e3 7363616E 		.ascii	"scanCounter\000"
 3198      436F756E 
 3198      74657200 
 3199              	.LASF111:
 3200 00ef 43617053 		.ascii	"CapSense_DpUpdateDifferences\000"
 3200      656E7365 
 3200      5F447055 
 3200      70646174 
 3200      65446966 
 3201              	.LASF64:
 3202 010c 6877436C 		.ascii	"hwClock\000"
 3202      6F636B00 
 3203              	.LASF142:
 3204 0114 433A5C55 		.ascii	"C:\\Users\\MIHAILO\\Documents\\PSoC Creator\\PSoC10"
 3204      73657273 
 3204      5C4D4948 
 3204      41494C4F 
 3204      5C446F63 
 3205 0142 315C4C61 		.ascii	"1\\Lab010.cydsn\000"
 3205      62303130 
 3205      2E637964 
 3205      736E00
 3206              	.LASF79:
 3207 0151 7363616E 		.ascii	"scanCsdISC\000"
 3207      43736449 
 3207      534300
 3208              	.LASF139:
 3209 015c 43794861 		.ascii	"CyHalt\000"
 3209      6C7400
 3210              	.LASF113:
 3211 0163 64696666 		.ascii	"diffValue\000"
 3211      56616C75 
 3211      6500
 3212              	.LASF120:
 3213 016d 6D6F6465 		.ascii	"mode\000"
 3213      00
 3214              	.LASF112:
 3215 0172 63757253 		.ascii	"curSnsPtr\000"
 3215      6E735074 
 3215      7200
 3216              	.LASF38:
 3217 017c 43617053 		.ascii	"CapSense_WD_TOUCHPAD_E\000"
 3217      656E7365 
ARM GAS  C:\Users\MIHAILO\AppData\Local\Temp\ccp4p2Le.s 			page 86


 3217      5F57445F 
 3217      544F5543 
 3217      48504144 
 3218              	.LASF54:
 3219 0193 43617053 		.ascii	"CapSense_RAM_WD_LIST_STRUCT\000"
 3219      656E7365 
 3219      5F52414D 
 3219      5F57445F 
 3219      4C495354 
 3220              	.LASF136:
 3221 01af 536D6172 		.ascii	"SmartSense_UpdateThresholds\000"
 3221      7453656E 
 3221      73655F55 
 3221      70646174 
 3221      65546872 
 3222              	.LASF116:
 3223 01cb 70747253 		.ascii	"ptrSnsTmp\000"
 3223      6E73546D 
 3223      7000
 3224              	.LASF46:
 3225 01d5 69646163 		.ascii	"idacGainIndex\000"
 3225      4761696E 
 3225      496E6465 
 3225      7800
 3226              	.LASF125:
 3227 01e3 6E657753 		.ascii	"newStatus\000"
 3227      74617475 
 3227      7300
 3228              	.LASF13:
 3229 01ed 666C6F61 		.ascii	"float\000"
 3229      7400
 3230              	.LASF12:
 3231 01f3 696E7433 		.ascii	"int32\000"
 3231      3200
 3232              	.LASF105:
 3233 01f9 43617053 		.ascii	"CapSense_DpInitialize\000"
 3233      656E7365 
 3233      5F447049 
 3233      6E697469 
 3233      616C697A 
 3234              	.LASF138:
 3235 020f 43617053 		.ascii	"CapSense_FtUpdateBaseline\000"
 3235      656E7365 
 3235      5F467455 
 3235      70646174 
 3235      65426173 
 3236              	.LASF74:
 3237 0229 736E734C 		.ascii	"snsList\000"
 3237      69737400 
 3238              	.LASF114:
 3239 0231 72657375 		.ascii	"result\000"
 3239      6C7400
 3240              	.LASF7:
 3241 0238 6C6F6E67 		.ascii	"long long unsigned int\000"
 3241      206C6F6E 
 3241      6720756E 
 3241      7369676E 
ARM GAS  C:\Users\MIHAILO\AppData\Local\Temp\ccp4p2Le.s 			page 87


 3241      65642069 
 3242              	.LASF37:
 3243 024f 43617053 		.ascii	"CapSense_WD_MATRIX_BUTTON_E\000"
 3243      656E7365 
 3243      5F57445F 
 3243      4D415452 
 3243      49585F42 
 3244              	.LASF99:
 3245 026b 70747252 		.ascii	"ptrRegular\000"
 3245      6567756C 
 3245      617200
 3246              	.LASF76:
 3247 0276 736E7254 		.ascii	"snrTestSensorId\000"
 3247      65737453 
 3247      656E736F 
 3247      72496400 
 3248              	.LASF91:
 3249 0286 70747232 		.ascii	"ptr2NoiseEnvlp\000"
 3249      4E6F6973 
 3249      65456E76 
 3249      6C7000
 3250              	.LASF89:
 3251 0295 77646774 		.ascii	"wdgtType\000"
 3251      54797065 
 3251      00
 3252              	.LASF100:
 3253 029e 43617053 		.ascii	"CapSense_PTR_FILTER_VARIANT\000"
 3253      656E7365 
 3253      5F505452 
 3253      5F46494C 
 3253      5445525F 
 3254              	.LASF140:
 3255 02ba 474E5520 		.ascii	"GNU C11 5.4.1 20160609 (release) [ARM/embedded-5-br"
 3255      43313120 
 3255      352E342E 
 3255      31203230 
 3255      31363036 
 3256 02ed 616E6368 		.ascii	"anch revision 237715] -mcpu=cortex-m0 -mthumb -g -O"
 3256      20726576 
 3256      6973696F 
 3256      6E203233 
 3256      37373135 
 3257 0320 67202D66 		.ascii	"g -ffunction-sections -ffat-lto-objects\000"
 3257      66756E63 
 3257      74696F6E 
 3257      2D736563 
 3257      74696F6E 
 3258              	.LASF97:
 3259 0348 72656775 		.ascii	"regularChannel\000"
 3259      6C617243 
 3259      68616E6E 
 3259      656C00
 3260              	.LASF72:
 3261 0357 6D6F6443 		.ascii	"modCsdClk\000"
 3261      7364436C 
 3261      6B00
 3262              	.LASF60:
ARM GAS  C:\Users\MIHAILO\AppData\Local\Temp\ccp4p2Le.s 			page 88


 3263 0361 43617053 		.ascii	"CapSense_RAM_SNS_STRUCT\000"
 3263      656E7365 
 3263      5F52414D 
 3263      5F534E53 
 3263      5F535452 
 3264              	.LASF16:
 3265 0379 73697A65 		.ascii	"size_t\000"
 3265      5F7400
 3266              	.LASF50:
 3267 0380 73696750 		.ascii	"sigPFC\000"
 3267      464300
 3268              	.LASF32:
 3269 0387 68797374 		.ascii	"hysteresis\000"
 3269      65726573 
 3269      697300
 3270              	.LASF36:
 3271 0392 43617053 		.ascii	"CapSense_WD_RADIAL_SLIDER_E\000"
 3271      656E7365 
 3271      5F57445F 
 3271      52414449 
 3271      414C5F53 
 3272              	.LASF92:
 3273 03ae 43617053 		.ascii	"CapSense_FLASH_WD_STRUCT\000"
 3273      656E7365 
 3273      5F464C41 
 3273      53485F57 
 3273      445F5354 
 3274              	.LASF44:
 3275 03c7 6C6F7742 		.ascii	"lowBslnRst\000"
 3275      736C6E52 
 3275      737400
 3276              	.LASF88:
 3277 03d2 746F7461 		.ascii	"totalNumSns\000"
 3277      6C4E756D 
 3277      536E7300 
 3278              	.LASF28:
 3279 03de 534D4152 		.ascii	"SMARTSENSE_CSD_NOISE_ENVELOPE_STRUCT\000"
 3279      5453454E 
 3279      53455F43 
 3279      53445F4E 
 3279      4F495345 
 3280              	.LASF30:
 3281 0403 6E6F6973 		.ascii	"noiseTh\000"
 3281      65546800 
 3282              	.LASF15:
 3283 040b 63686172 		.ascii	"char\000"
 3283      00
 3284              	.LASF117:
 3285 0410 43617053 		.ascii	"CapSense_DpProcessCsdWidgetRawCounts\000"
 3285      656E7365 
 3285      5F447050 
 3285      726F6365 
 3285      73734373 
 3286              	.LASF137:
 3287 0435 536D6172 		.ascii	"SmartSense_RunNoiseEnvelope\000"
 3287      7453656E 
 3287      73655F52 
ARM GAS  C:\Users\MIHAILO\AppData\Local\Temp\ccp4p2Le.s 			page 89


 3287      756E4E6F 
 3287      69736545 
 3288              	.LASF10:
 3289 0451 75696E74 		.ascii	"uint16\000"
 3289      313600
 3290              	.LASF42:
 3291 0458 7265736F 		.ascii	"resolution\000"
 3291      6C757469 
 3291      6F6E00
 3292              	.LASF67:
 3293 0463 73746174 		.ascii	"status\000"
 3293      757300
 3294              	.LASF141:
 3295 046a 47656E65 		.ascii	"Generated_Source\\PSoC4\\CapSense_Processing.c\000"
 3295      72617465 
 3295      645F536F 
 3295      75726365 
 3295      5C50536F 
 3296              	.LASF20:
 3297 0497 43617053 		.ascii	"CapSense_LOW_BSLN_RST_TYPE\000"
 3297      656E7365 
 3297      5F4C4F57 
 3297      5F42534C 
 3297      4E5F5253 
 3298              	.LASF121:
 3299 04b2 43617053 		.ascii	"CapSense_DpProcessButton\000"
 3299      656E7365 
 3299      5F447050 
 3299      726F6365 
 3299      73734275 
 3300              	.LASF59:
 3301 04cb 69646163 		.ascii	"idacComp\000"
 3301      436F6D70 
 3301      00
 3302              	.LASF6:
 3303 04d4 6C6F6E67 		.ascii	"long long int\000"
 3303      206C6F6E 
 3303      6720696E 
 3303      7400
 3304              	.LASF90:
 3305 04e2 6E756D43 		.ascii	"numCols\000"
 3305      6F6C7300 
 3306              	.LASF43:
 3307 04ea 6F6E4465 		.ascii	"onDebounce\000"
 3307      626F756E 
 3307      636500
 3308              	.LASF108:
 3309 04f5 73746172 		.ascii	"startFlag\000"
 3309      74466C61 
 3309      6700
 3310              	.LASF73:
 3311 04ff 77646774 		.ascii	"wdgtList\000"
 3311      4C697374 
 3311      00
 3312              	.LASF94:
 3313 0508 43617053 		.ascii	"CapSense_FLASH_STRUCT\000"
 3313      656E7365 
ARM GAS  C:\Users\MIHAILO\AppData\Local\Temp\ccp4p2Le.s 			page 90


 3313      5F464C41 
 3313      53485F53 
 3313      54525543 
 3314              	.LASF133:
 3315 051e 43617053 		.ascii	"CapSense_dsRam\000"
 3315      656E7365 
 3315      5F647352 
 3315      616D00
 3316              	.LASF78:
 3317 052d 736E7254 		.ascii	"snrTestRawCount\000"
 3317      65737452 
 3317      6177436F 
 3317      756E7400 
 3318              	.LASF135:
 3319 053d 6D656D73 		.ascii	"memset\000"
 3319      657400
 3320              	.LASF31:
 3321 0544 6E4E6F69 		.ascii	"nNoiseTh\000"
 3321      73655468 
 3321      00
 3322              	.LASF71:
 3323 054d 63736430 		.ascii	"csd0Config\000"
 3323      436F6E66 
 3323      696700
 3324              	.LASF51:
 3325 0558 43617053 		.ascii	"CapSense_RAM_WD_BASE_STRUCT\000"
 3325      656E7365 
 3325      5F52414D 
 3325      5F57445F 
 3325      42415345 
 3326              	.LASF41:
 3327 0574 43617053 		.ascii	"CapSense_WD_TYPE_ENUM\000"
 3327      656E7365 
 3327      5F57445F 
 3327      54595045 
 3327      5F454E55 
 3328              	.LASF130:
 3329 058a 73656E73 		.ascii	"sensorStatus\000"
 3329      6F725374 
 3329      61747573 
 3329      00
 3330              	.LASF11:
 3331 0597 75696E74 		.ascii	"uint32\000"
 3331      333200
 3332              	.LASF126:
 3333 059e 746F7563 		.ascii	"touchTh\000"
 3333      68546800 
 3334              	.LASF85:
 3335 05a6 70747232 		.ascii	"ptr2FltrHistory\000"
 3335      466C7472 
 3335      48697374 
 3335      6F727900 
 3336              	.LASF35:
 3337 05b6 43617053 		.ascii	"CapSense_WD_LINEAR_SLIDER_E\000"
 3337      656E7365 
 3337      5F57445F 
 3337      4C494E45 
ARM GAS  C:\Users\MIHAILO\AppData\Local\Temp\ccp4p2Le.s 			page 91


 3337      41525F53 
 3338              	.LASF131:
 3339 05d2 77645374 		.ascii	"wdStatusIndex\000"
 3339      61747573 
 3339      496E6465 
 3339      7800
 3340              	.LASF17:
 3341 05e0 6C6F6E67 		.ascii	"long double\000"
 3341      20646F75 
 3341      626C6500 
 3342              	.LASF103:
 3343 05ec 70747252 		.ascii	"ptrRamWdgt\000"
 3343      616D5764 
 3343      677400
 3344              	.LASF124:
 3345 05f7 736E734D 		.ascii	"snsMask\000"
 3345      61736B00 
 3346              	.LASF77:
 3347 05ff 736E7254 		.ascii	"snrTestScanCounter\000"
 3347      65737453 
 3347      63616E43 
 3347      6F756E74 
 3347      657200
 3348              	.LASF62:
 3349 0612 636F6E66 		.ascii	"configId\000"
 3349      69674964 
 3349      00
 3350              	.LASF84:
 3351 061b 70747232 		.ascii	"ptr2SnsRam\000"
 3351      536E7352 
 3351      616D00
 3352              	.LASF70:
 3353 0626 736E7353 		.ascii	"snsStatus\000"
 3353      74617475 
 3353      7300
 3354              	.LASF40:
 3355 0630 43617053 		.ascii	"CapSense_WD_ENCODERDIAL_E\000"
 3355      656E7365 
 3355      5F57445F 
 3355      454E434F 
 3355      44455244 
 3356              	.LASF48:
 3357 064a 736E7343 		.ascii	"snsClkSource\000"
 3357      6C6B536F 
 3357      75726365 
 3357      00
 3358              	.LASF2:
 3359 0657 73686F72 		.ascii	"short int\000"
 3359      7420696E 
 3359      7400
 3360              	.LASF81:
 3361 0661 43617053 		.ascii	"CapSense_RAM_STRUCT\000"
 3361      656E7365 
 3361      5F52414D 
 3361      5F535452 
 3361      55435400 
 3362              	.LASF98:
ARM GAS  C:\Users\MIHAILO\AppData\Local\Temp\ccp4p2Le.s 			page 92


 3363 0675 43617053 		.ascii	"CapSense_REGULAR_FLTR_STRUCT\000"
 3363      656E7365 
 3363      5F524547 
 3363      554C4152 
 3363      5F464C54 
 3364              	.LASF4:
 3365 0692 6C6F6E67 		.ascii	"long int\000"
 3365      20696E74 
 3365      00
 3366              	.LASF33:
 3367 069b 534D4152 		.ascii	"SMARTSENSE_UPDATE_THRESHOLDS_STRUCT\000"
 3367      5453454E 
 3367      53455F55 
 3367      50444154 
 3367      455F5448 
 3368              	.LASF68:
 3369 06bf 77646774 		.ascii	"wdgtEnable\000"
 3369      456E6162 
 3369      6C6500
 3370              	.LASF57:
 3371 06ca 64696666 		.ascii	"diff\000"
 3371      00
 3372              	.LASF65:
 3373 06cf 74756E65 		.ascii	"tunerCmd\000"
 3373      72436D64 
 3373      00
 3374              	.LASF53:
 3375 06d8 62757474 		.ascii	"button0\000"
 3375      6F6E3000 
 3376              	.LASF115:
 3377 06e0 736E7349 		.ascii	"snsId\000"
 3377      6400
 3378              	.LASF34:
 3379 06e6 43617053 		.ascii	"CapSense_WD_BUTTON_E\000"
 3379      656E7365 
 3379      5F57445F 
 3379      42555454 
 3379      4F4E5F45 
 3380              	.LASF96:
 3381 06fb 43617053 		.ascii	"CapSense_REGULAR_FLTR_CHANNEL_STRUCT\000"
 3381      656E7365 
 3381      5F524547 
 3381      554C4152 
 3381      5F464C54 
 3382              	.LASF109:
 3383 0720 74687265 		.ascii	"thresholds\000"
 3383      73686F6C 
 3383      647300
 3384              	.LASF127:
 3385 072b 70747244 		.ascii	"ptrDebounceCnt\000"
 3385      65626F75 
 3385      6E636543 
 3385      6E7400
 3386              	.LASF49:
 3387 073a 66696E67 		.ascii	"fingerCap\000"
 3387      65724361 
 3387      7000
ARM GAS  C:\Users\MIHAILO\AppData\Local\Temp\ccp4p2Le.s 			page 93


 3388              	.LASF69:
 3389 0744 77646774 		.ascii	"wdgtStatus\000"
 3389      53746174 
 3389      757300
 3390              	.LASF18:
 3391 074f 73697A65 		.ascii	"sizetype\000"
 3391      74797065 
 3391      00
 3392              	.LASF5:
 3393 0758 6C6F6E67 		.ascii	"long unsigned int\000"
 3393      20756E73 
 3393      69676E65 
 3393      6420696E 
 3393      7400
 3394              	.LASF45:
 3395 076a 69646163 		.ascii	"idacMod\000"
 3395      4D6F6400 
 3396              	.LASF86:
 3397 0772 70747232 		.ascii	"ptr2DebounceArr\000"
 3397      4465626F 
 3397      756E6365 
 3397      41727200 
 3398              	.LASF29:
 3399 0782 66696E67 		.ascii	"fingerTh\000"
 3399      65725468 
 3399      00
 3400              	.LASF56:
 3401 078b 62736C6E 		.ascii	"bslnExt\000"
 3401      45787400 
 3402              	.LASF52:
 3403 0793 43617053 		.ascii	"CapSense_RAM_WD_BUTTON_STRUCT\000"
 3403      656E7365 
 3403      5F52414D 
 3403      5F57445F 
 3403      42555454 
 3404              	.LASF1:
 3405 07b1 756E7369 		.ascii	"unsigned char\000"
 3405      676E6564 
 3405      20636861 
 3405      7200
 3406              	.LASF132:
 3407 07bf 77645374 		.ascii	"wdStatusMask\000"
 3407      61747573 
 3407      4D61736B 
 3407      00
 3408              	.LASF104:
 3409 07cc 70747246 		.ascii	"ptrFlashWdgt\000"
 3409      6C617368 
 3409      57646774 
 3409      00
 3410              	.LASF87:
 3411 07d9 73746174 		.ascii	"staticConfig\000"
 3411      6963436F 
 3411      6E666967 
 3411      00
 3412              	.LASF80:
 3413 07e6 7363616E 		.ascii	"scanCurrentISC\000"
ARM GAS  C:\Users\MIHAILO\AppData\Local\Temp\ccp4p2Le.s 			page 94


 3413      43757272 
 3413      656E7449 
 3413      534300
 3414              	.LASF83:
 3415 07f5 70747232 		.ascii	"ptr2WdgtRam\000"
 3415      57646774 
 3415      52616D00 
 3416              	.LASF19:
 3417 0801 43617053 		.ascii	"CapSense_THRESHOLD_TYPE\000"
 3417      656E7365 
 3417      5F544852 
 3417      4553484F 
 3417      4C445F54 
 3418              	.LASF122:
 3419 0819 63757272 		.ascii	"currStatus\000"
 3419      53746174 
 3419      757300
 3420              	.LASF47:
 3421 0824 736E7343 		.ascii	"snsClk\000"
 3421      6C6B00
 3422              	.LASF0:
 3423 082b 7369676E 		.ascii	"signed char\000"
 3423      65642063 
 3423      68617200 
 3424              	.LASF55:
 3425 0837 62736C6E 		.ascii	"bsln\000"
 3425      00
 3426              	.LASF3:
 3427 083c 73686F72 		.ascii	"short unsigned int\000"
 3427      7420756E 
 3427      7369676E 
 3427      65642069 
 3427      6E7400
 3428              	.LASF82:
 3429 084f 70747232 		.ascii	"ptr2SnsFlash\000"
 3429      536E7346 
 3429      6C617368 
 3429      00
 3430              	.LASF95:
 3431 085c 6E6F7455 		.ascii	"notUsed\000"
 3431      73656400 
 3432              	.LASF9:
 3433 0864 75696E74 		.ascii	"uint8\000"
 3433      3800
 3434              	.LASF14:
 3435 086a 646F7562 		.ascii	"double\000"
 3435      6C6500
 3436              	.LASF58:
 3437 0871 6E656742 		.ascii	"negBslnRstCnt\000"
 3437      736C6E52 
 3437      7374436E 
 3437      7400
 3438              	.LASF102:
 3439 087f 77696467 		.ascii	"widgetType\000"
 3439      65745479 
 3439      706500
 3440              	.LASF21:
ARM GAS  C:\Users\MIHAILO\AppData\Local\Temp\ccp4p2Le.s 			page 95


 3441 088a 70617261 		.ascii	"param0\000"
 3441      6D3000
 3442              	.LASF22:
 3443 0891 70617261 		.ascii	"param1\000"
 3443      6D3100
 3444              	.LASF23:
 3445 0898 70617261 		.ascii	"param2\000"
 3445      6D3200
 3446              	.LASF24:
 3447 089f 70617261 		.ascii	"param3\000"
 3447      6D3300
 3448              	.LASF25:
 3449 08a6 70617261 		.ascii	"param4\000"
 3449      6D3400
 3450              	.LASF26:
 3451 08ad 70617261 		.ascii	"param5\000"
 3451      6D3500
 3452              	.LASF27:
 3453 08b4 70617261 		.ascii	"param6\000"
 3453      6D3600
 3454              	.LASF63:
 3455 08bb 64657669 		.ascii	"deviceId\000"
 3455      63654964 
 3455      00
 3456              	.LASF129:
 3457 08c4 77696467 		.ascii	"widgetId\000"
 3457      65744964 
 3457      00
 3458              	.LASF61:
 3459 08cd 43617053 		.ascii	"CapSense_RAM_SNS_LIST_STRUCT\000"
 3459      656E7365 
 3459      5F52414D 
 3459      5F534E53 
 3459      5F4C4953 
 3460              	.LASF93:
 3461 08ea 77646774 		.ascii	"wdgtArray\000"
 3461      41727261 
 3461      7900
 3462              		.ident	"GCC: (GNU Tools for ARM Embedded Processors) 5.4.1 20160609 (release) [ARM/embedded-5-bran
