ARM GAS  C:\Users\MIHAILO\AppData\Local\Temp\cc1WpLqk.s 			page 1


   1              		.syntax unified
   2              		.cpu cortex-m0
   3              		.fpu softvfp
   4              		.eabi_attribute 20, 1
   5              		.eabi_attribute 21, 1
   6              		.eabi_attribute 23, 3
   7              		.eabi_attribute 24, 1
   8              		.eabi_attribute 25, 1
   9              		.eabi_attribute 26, 1
  10              		.eabi_attribute 30, 1
  11              		.eabi_attribute 34, 0
  12              		.eabi_attribute 18, 4
  13              		.thumb
  14              		.syntax unified
  15              		.file	"main.c"
  16              		.text
  17              	.Ltext0:
  18              		.cfi_sections	.debug_frame
  19              		.section	.text.main,"ax",%progbits
  20              		.align	2
  21              		.global	main
  22              		.code	16
  23              		.thumb_func
  24              		.type	main, %function
  25              	main:
  26              	.LFB32:
  27              		.file 1 "main.c"
   1:main.c        **** /* ========================================
   2:main.c        ****  *
   3:main.c        ****  * Copyright YOUR COMPANY, THE YEAR
   4:main.c        ****  * All Rights Reserved
   5:main.c        ****  * UNPUBLISHED, LICENSED SOFTWARE.
   6:main.c        ****  *
   7:main.c        ****  * CONFIDENTIAL AND PROPRIETARY INFORMATION
   8:main.c        ****  * WHICH IS THE PROPERTY OF your company.
   9:main.c        ****  *
  10:main.c        ****  * ========================================
  11:main.c        **** */
  12:main.c        **** #include "project.h"
  13:main.c        **** #define POT_CHAN (0)
  14:main.c        **** #define WRITABLE (0)
  15:main.c        **** int main(void)
  16:main.c        **** {
  28              		.loc 1 16 0
  29              		.cfi_startproc
  30              		@ args = 0, pretend = 0, frame = 8
  31              		@ frame_needed = 0, uses_anonymous_args = 0
  32 0000 30B5     		push	{r4, r5, lr}
  33              		.cfi_def_cfa_offset 12
  34              		.cfi_offset 4, -12
  35              		.cfi_offset 5, -8
  36              		.cfi_offset 14, -4
  37 0002 83B0     		sub	sp, sp, #12
  38              		.cfi_def_cfa_offset 24
  39              	.LVL0:
  17:main.c        ****     int16 counts=0;
  18:main.c        ****     int16 mVolts=0;
ARM GAS  C:\Users\MIHAILO\AppData\Local\Temp\cc1WpLqk.s 			page 2


  19:main.c        ****     uint8 i2cReg[2];
  20:main.c        ****     CyGlobalIntEnable; /* Enable global interrupts. */
  40              		.loc 1 20 0
  41              		.syntax divided
  42              	@ 20 "main.c" 1
  43 0004 62B6     		CPSIE   i
  44              	@ 0 "" 2
  21:main.c        **** 
  22:main.c        ****     /* Place your initialization/startup code here (e.g. MyInst_Start()) */
  23:main.c        ****     ADC_Start();
  45              		.loc 1 23 0
  46              		.thumb
  47              		.syntax unified
  48 0006 FFF7FEFF 		bl	ADC_Start
  49              	.LVL1:
  24:main.c        ****     ADC_StartConvert();
  50              		.loc 1 24 0
  51 000a FFF7FEFF 		bl	ADC_StartConvert
  52              	.LVL2:
  25:main.c        ****     LCD_Start();
  53              		.loc 1 25 0
  54 000e FFF7FEFF 		bl	LCD_Start
  55              	.LVL3:
  26:main.c        ****     EZI2C_Start();
  56              		.loc 1 26 0
  57 0012 FFF7FEFF 		bl	EZI2C_Start
  58              	.LVL4:
  27:main.c        ****     EZI2C_EzI2CSetBuffer1(sizeof(i2cReg),WRITABLE,i2cReg);
  59              		.loc 1 27 0
  60 0016 01AA     		add	r2, sp, #4
  61 0018 0021     		movs	r1, #0
  62 001a 0220     		movs	r0, #2
  63 001c FFF7FEFF 		bl	EZI2C_EzI2CSetBuffer1
  64              	.LVL5:
  65              	.L2:
  28:main.c        ****     for(;;)
  29:main.c        ****     {
  30:main.c        ****         /* Place your application code here. */
  31:main.c        ****         counts= ADC_GetResult16(POT_CHAN);
  66              		.loc 1 31 0 discriminator 1
  67 0020 0020     		movs	r0, #0
  68 0022 FFF7FEFF 		bl	ADC_GetResult16
  69              	.LVL6:
  70 0026 0100     		movs	r1, r0
  71              	.LVL7:
  32:main.c        ****         mVolts= ADC_CountsTo_mVolts(POT_CHAN,counts);
  72              		.loc 1 32 0 discriminator 1
  73 0028 0020     		movs	r0, #0
  74 002a FFF7FEFF 		bl	ADC_CountsTo_mVolts
  75              	.LVL8:
  76 002e 0500     		movs	r5, r0
  77              	.LVL9:
  33:main.c        ****         LCD_Position(0,0);
  78              		.loc 1 33 0 discriminator 1
  79 0030 0021     		movs	r1, #0
  80 0032 0020     		movs	r0, #0
  81 0034 FFF7FEFF 		bl	LCD_Position
ARM GAS  C:\Users\MIHAILO\AppData\Local\Temp\cc1WpLqk.s 			page 3


  82              	.LVL10:
  34:main.c        ****         LCD_PrintNumber(mVolts);
  83              		.loc 1 34 0 discriminator 1
  84 0038 ACB2     		uxth	r4, r5
  85 003a 2000     		movs	r0, r4
  86 003c FFF7FEFF 		bl	LCD_PrintU32Number
  87              	.LVL11:
  35:main.c        ****         LCD_PrintString("mV   ");
  88              		.loc 1 35 0 discriminator 1
  89 0040 0348     		ldr	r0, .L3
  90 0042 FFF7FEFF 		bl	LCD_PrintString
  91              	.LVL12:
  36:main.c        ****         i2cReg[0]=HI8(mVolts);
  92              		.loc 1 36 0 discriminator 1
  93 0046 240A     		lsrs	r4, r4, #8
  94 0048 01AB     		add	r3, sp, #4
  95 004a 1C70     		strb	r4, [r3]
  37:main.c        ****         i2cReg[1]=LO8(mVolts);
  96              		.loc 1 37 0 discriminator 1
  97 004c 5D70     		strb	r5, [r3, #1]
  98 004e E7E7     		b	.L2
  99              	.L4:
 100              		.align	2
 101              	.L3:
 102 0050 00000000 		.word	.LC0
 103              		.cfi_endproc
 104              	.LFE32:
 105              		.size	main, .-main
 106              		.section	.rodata.str1.4,"aMS",%progbits,1
 107              		.align	2
 108              	.LC0:
 109 0000 6D562020 		.ascii	"mV   \000"
 109      2000
 110              		.text
 111              	.Letext0:
 112              		.file 2 "Generated_Source\\PSoC4/cytypes.h"
 113              		.file 3 "Generated_Source\\PSoC4/ADC.h"
 114              		.file 4 "Generated_Source\\PSoC4/LCD.h"
 115              		.file 5 "Generated_Source\\PSoC4/EZI2C.h"
 116              		.file 6 "Generated_Source\\PSoC4/EZI2C_EZI2C.h"