ARM GAS  C:\Users\MIHAILO\AppData\Local\Temp\ccjACuX6.s 			page 1


   1              		.syntax unified
   2              		.cpu cortex-m0
   3              		.fpu softvfp
   4              		.eabi_attribute 20, 1
   5              		.eabi_attribute 21, 1
   6              		.eabi_attribute 23, 3
   7              		.eabi_attribute 24, 1
   8              		.eabi_attribute 25, 1
   9              		.eabi_attribute 26, 1
  10              		.eabi_attribute 30, 1
  11              		.eabi_attribute 34, 0
  12              		.eabi_attribute 18, 4
  13              		.thumb
  14              		.syntax unified
  15              		.file	"cyfitter_cfg.c"
  16              		.text
  17              	.Ltext0:
  18              		.cfi_sections	.debug_frame
  19              		.section	.text.cfg_write_bytes32,"ax",%progbits
  20              		.align	2
  21              		.code	16
  22              		.thumb_func
  23              		.type	cfg_write_bytes32, %function
  24              	cfg_write_bytes32:
  25              	.LFB3:
  26              		.file 1 "Generated_Source\\PSoC4\\cyfitter_cfg.c"
   1:Generated_Source\PSoC4/cyfitter_cfg.c **** 
   2:Generated_Source\PSoC4/cyfitter_cfg.c **** /*******************************************************************************
   3:Generated_Source\PSoC4/cyfitter_cfg.c **** * File Name: cyfitter_cfg.c
   4:Generated_Source\PSoC4/cyfitter_cfg.c **** * 
   5:Generated_Source\PSoC4/cyfitter_cfg.c **** * PSoC Creator  4.4
   6:Generated_Source\PSoC4/cyfitter_cfg.c **** *
   7:Generated_Source\PSoC4/cyfitter_cfg.c **** * Description:
   8:Generated_Source\PSoC4/cyfitter_cfg.c **** * This file contains device initialization code.
   9:Generated_Source\PSoC4/cyfitter_cfg.c **** * Except for the user defined sections in CyClockStartupError(), this file should not be modified.
  10:Generated_Source\PSoC4/cyfitter_cfg.c **** * This file is automatically generated by PSoC Creator.
  11:Generated_Source\PSoC4/cyfitter_cfg.c **** *
  12:Generated_Source\PSoC4/cyfitter_cfg.c **** ********************************************************************************
  13:Generated_Source\PSoC4/cyfitter_cfg.c **** * Copyright (c) 2007-2020 Cypress Semiconductor.  All rights reserved.
  14:Generated_Source\PSoC4/cyfitter_cfg.c **** * You may use this file only in accordance with the license, terms, conditions, 
  15:Generated_Source\PSoC4/cyfitter_cfg.c **** * disclaimers, and limitations in the end user license agreement accompanying 
  16:Generated_Source\PSoC4/cyfitter_cfg.c **** * the software package with which this file was provided.
  17:Generated_Source\PSoC4/cyfitter_cfg.c **** ********************************************************************************/
  18:Generated_Source\PSoC4/cyfitter_cfg.c **** 
  19:Generated_Source\PSoC4/cyfitter_cfg.c **** #include <string.h>
  20:Generated_Source\PSoC4/cyfitter_cfg.c **** #include "cytypes.h"
  21:Generated_Source\PSoC4/cyfitter_cfg.c **** #include "cydevice_trm.h"
  22:Generated_Source\PSoC4/cyfitter_cfg.c **** #include "cyfitter.h"
  23:Generated_Source\PSoC4/cyfitter_cfg.c **** #include "CyLib.h"
  24:Generated_Source\PSoC4/cyfitter_cfg.c **** #include "CyLFClk.h"
  25:Generated_Source\PSoC4/cyfitter_cfg.c **** #include "cyfitter_cfg.h"
  26:Generated_Source\PSoC4/cyfitter_cfg.c **** #include "cyapicallbacks.h"
  27:Generated_Source\PSoC4/cyfitter_cfg.c **** 
  28:Generated_Source\PSoC4/cyfitter_cfg.c **** 
  29:Generated_Source\PSoC4/cyfitter_cfg.c **** #if defined(__GNUC__) || defined(__ARMCC_VERSION)
  30:Generated_Source\PSoC4/cyfitter_cfg.c ****     #define CYPACKED 
  31:Generated_Source\PSoC4/cyfitter_cfg.c ****     #define CYPACKED_ATTR __attribute__ ((packed))
ARM GAS  C:\Users\MIHAILO\AppData\Local\Temp\ccjACuX6.s 			page 2


  32:Generated_Source\PSoC4/cyfitter_cfg.c ****     #define CYALIGNED __attribute__ ((aligned))
  33:Generated_Source\PSoC4/cyfitter_cfg.c ****     #define CY_CFG_UNUSED __attribute__ ((unused))
  34:Generated_Source\PSoC4/cyfitter_cfg.c ****     #ifndef CY_CFG_SECTION
  35:Generated_Source\PSoC4/cyfitter_cfg.c ****         #define CY_CFG_SECTION __attribute__ ((section(".psocinit")))
  36:Generated_Source\PSoC4/cyfitter_cfg.c ****     #endif
  37:Generated_Source\PSoC4/cyfitter_cfg.c ****     
  38:Generated_Source\PSoC4/cyfitter_cfg.c ****     #if defined(__ARMCC_VERSION)
  39:Generated_Source\PSoC4/cyfitter_cfg.c ****         #define CY_CFG_MEMORY_BARRIER() __memory_changed()
  40:Generated_Source\PSoC4/cyfitter_cfg.c ****     #else
  41:Generated_Source\PSoC4/cyfitter_cfg.c ****         #define CY_CFG_MEMORY_BARRIER() __sync_synchronize()
  42:Generated_Source\PSoC4/cyfitter_cfg.c ****     #endif
  43:Generated_Source\PSoC4/cyfitter_cfg.c ****     
  44:Generated_Source\PSoC4/cyfitter_cfg.c **** #elif defined(__ICCARM__)
  45:Generated_Source\PSoC4/cyfitter_cfg.c ****     #include <intrinsics.h>
  46:Generated_Source\PSoC4/cyfitter_cfg.c **** 
  47:Generated_Source\PSoC4/cyfitter_cfg.c ****     #define CYPACKED __packed
  48:Generated_Source\PSoC4/cyfitter_cfg.c ****     #define CYPACKED_ATTR 
  49:Generated_Source\PSoC4/cyfitter_cfg.c ****     #define CYALIGNED _Pragma("data_alignment=4")
  50:Generated_Source\PSoC4/cyfitter_cfg.c ****     #define CY_CFG_UNUSED _Pragma("diag_suppress=Pe177")
  51:Generated_Source\PSoC4/cyfitter_cfg.c ****     #define CY_CFG_SECTION _Pragma("location=\".psocinit\"")
  52:Generated_Source\PSoC4/cyfitter_cfg.c ****     
  53:Generated_Source\PSoC4/cyfitter_cfg.c ****     #define CY_CFG_MEMORY_BARRIER() __DMB()
  54:Generated_Source\PSoC4/cyfitter_cfg.c ****     
  55:Generated_Source\PSoC4/cyfitter_cfg.c **** #else
  56:Generated_Source\PSoC4/cyfitter_cfg.c ****     #error Unsupported toolchain
  57:Generated_Source\PSoC4/cyfitter_cfg.c **** #endif
  58:Generated_Source\PSoC4/cyfitter_cfg.c **** 
  59:Generated_Source\PSoC4/cyfitter_cfg.c **** #ifndef CYCODE
  60:Generated_Source\PSoC4/cyfitter_cfg.c ****     #define CYCODE
  61:Generated_Source\PSoC4/cyfitter_cfg.c **** #endif
  62:Generated_Source\PSoC4/cyfitter_cfg.c **** #ifndef CYDATA
  63:Generated_Source\PSoC4/cyfitter_cfg.c ****     #define CYDATA
  64:Generated_Source\PSoC4/cyfitter_cfg.c **** #endif
  65:Generated_Source\PSoC4/cyfitter_cfg.c **** #ifndef CYFAR
  66:Generated_Source\PSoC4/cyfitter_cfg.c ****     #define CYFAR
  67:Generated_Source\PSoC4/cyfitter_cfg.c **** #endif
  68:Generated_Source\PSoC4/cyfitter_cfg.c **** #ifndef CYXDATA
  69:Generated_Source\PSoC4/cyfitter_cfg.c ****     #define CYXDATA
  70:Generated_Source\PSoC4/cyfitter_cfg.c **** #endif
  71:Generated_Source\PSoC4/cyfitter_cfg.c **** 
  72:Generated_Source\PSoC4/cyfitter_cfg.c **** 
  73:Generated_Source\PSoC4/cyfitter_cfg.c **** CY_CFG_UNUSED
  74:Generated_Source\PSoC4/cyfitter_cfg.c **** static void CYMEMZERO(void *s, size_t n);
  75:Generated_Source\PSoC4/cyfitter_cfg.c **** CY_CFG_UNUSED
  76:Generated_Source\PSoC4/cyfitter_cfg.c **** static void CYMEMZERO(void *s, size_t n)
  77:Generated_Source\PSoC4/cyfitter_cfg.c **** {
  78:Generated_Source\PSoC4/cyfitter_cfg.c **** 	(void)memset(s, 0, n);
  79:Generated_Source\PSoC4/cyfitter_cfg.c **** }
  80:Generated_Source\PSoC4/cyfitter_cfg.c **** CY_CFG_UNUSED
  81:Generated_Source\PSoC4/cyfitter_cfg.c **** static void CYCONFIGCPY(void *dest, const void *src, size_t n);
  82:Generated_Source\PSoC4/cyfitter_cfg.c **** CY_CFG_UNUSED
  83:Generated_Source\PSoC4/cyfitter_cfg.c **** static void CYCONFIGCPY(void *dest, const void *src, size_t n)
  84:Generated_Source\PSoC4/cyfitter_cfg.c **** {
  85:Generated_Source\PSoC4/cyfitter_cfg.c **** 	(void)memcpy(dest, src, n);
  86:Generated_Source\PSoC4/cyfitter_cfg.c **** }
  87:Generated_Source\PSoC4/cyfitter_cfg.c **** CY_CFG_UNUSED
  88:Generated_Source\PSoC4/cyfitter_cfg.c **** static void CYCONFIGCPYCODE(void *dest, const void *src, size_t n);
ARM GAS  C:\Users\MIHAILO\AppData\Local\Temp\ccjACuX6.s 			page 3


  89:Generated_Source\PSoC4/cyfitter_cfg.c **** CY_CFG_UNUSED
  90:Generated_Source\PSoC4/cyfitter_cfg.c **** static void CYCONFIGCPYCODE(void *dest, const void *src, size_t n)
  91:Generated_Source\PSoC4/cyfitter_cfg.c **** {
  92:Generated_Source\PSoC4/cyfitter_cfg.c **** 	(void)memcpy(dest, src, n);
  93:Generated_Source\PSoC4/cyfitter_cfg.c **** }
  94:Generated_Source\PSoC4/cyfitter_cfg.c **** 
  95:Generated_Source\PSoC4/cyfitter_cfg.c **** 
  96:Generated_Source\PSoC4/cyfitter_cfg.c **** 
  97:Generated_Source\PSoC4/cyfitter_cfg.c **** 
  98:Generated_Source\PSoC4/cyfitter_cfg.c **** /* Clock startup error codes                                                   */
  99:Generated_Source\PSoC4/cyfitter_cfg.c **** #define CYCLOCKSTART_NO_ERROR    0u
 100:Generated_Source\PSoC4/cyfitter_cfg.c **** #define CYCLOCKSTART_XTAL_ERROR  1u
 101:Generated_Source\PSoC4/cyfitter_cfg.c **** #define CYCLOCKSTART_32KHZ_ERROR 2u
 102:Generated_Source\PSoC4/cyfitter_cfg.c **** #define CYCLOCKSTART_PLL_ERROR   3u
 103:Generated_Source\PSoC4/cyfitter_cfg.c **** #define CYCLOCKSTART_FLL_ERROR   4u
 104:Generated_Source\PSoC4/cyfitter_cfg.c **** #define CYCLOCKSTART_WCO_ERROR   5u
 105:Generated_Source\PSoC4/cyfitter_cfg.c **** 
 106:Generated_Source\PSoC4/cyfitter_cfg.c **** 
 107:Generated_Source\PSoC4/cyfitter_cfg.c **** #ifdef CY_NEED_CYCLOCKSTARTUPERROR
 108:Generated_Source\PSoC4/cyfitter_cfg.c **** /*******************************************************************************
 109:Generated_Source\PSoC4/cyfitter_cfg.c **** * Function Name: CyClockStartupError
 110:Generated_Source\PSoC4/cyfitter_cfg.c **** ********************************************************************************
 111:Generated_Source\PSoC4/cyfitter_cfg.c **** * Summary:
 112:Generated_Source\PSoC4/cyfitter_cfg.c **** *  If an error is encountered during clock configuration (crystal startup error,
 113:Generated_Source\PSoC4/cyfitter_cfg.c **** *  PLL lock error, etc.), the system will end up here.  Unless reimplemented by
 114:Generated_Source\PSoC4/cyfitter_cfg.c **** *  the customer, this function will stop in an infinite loop.
 115:Generated_Source\PSoC4/cyfitter_cfg.c **** *
 116:Generated_Source\PSoC4/cyfitter_cfg.c **** * Parameters:
 117:Generated_Source\PSoC4/cyfitter_cfg.c **** *   void
 118:Generated_Source\PSoC4/cyfitter_cfg.c **** *
 119:Generated_Source\PSoC4/cyfitter_cfg.c **** * Return:
 120:Generated_Source\PSoC4/cyfitter_cfg.c **** *   void
 121:Generated_Source\PSoC4/cyfitter_cfg.c **** *
 122:Generated_Source\PSoC4/cyfitter_cfg.c **** *******************************************************************************/
 123:Generated_Source\PSoC4/cyfitter_cfg.c **** CY_CFG_UNUSED
 124:Generated_Source\PSoC4/cyfitter_cfg.c **** static void CyClockStartupError(uint8 errorCode);
 125:Generated_Source\PSoC4/cyfitter_cfg.c **** CY_CFG_UNUSED
 126:Generated_Source\PSoC4/cyfitter_cfg.c **** static void CyClockStartupError(uint8 errorCode)
 127:Generated_Source\PSoC4/cyfitter_cfg.c **** {
 128:Generated_Source\PSoC4/cyfitter_cfg.c ****     /* To remove the compiler warning if errorCode not used.                */
 129:Generated_Source\PSoC4/cyfitter_cfg.c ****     errorCode = errorCode;
 130:Generated_Source\PSoC4/cyfitter_cfg.c **** 
 131:Generated_Source\PSoC4/cyfitter_cfg.c ****     /* If we have a clock startup error (bad MHz crystal, PLL lock, etc.),  */
 132:Generated_Source\PSoC4/cyfitter_cfg.c ****     /* we will end up here to allow the customer to implement something to  */
 133:Generated_Source\PSoC4/cyfitter_cfg.c ****     /* deal with the clock condition.                                       */
 134:Generated_Source\PSoC4/cyfitter_cfg.c **** 
 135:Generated_Source\PSoC4/cyfitter_cfg.c **** #ifdef CY_CFG_CLOCK_STARTUP_ERROR_CALLBACK
 136:Generated_Source\PSoC4/cyfitter_cfg.c ****     CY_CFG_Clock_Startup_ErrorCallback();
 137:Generated_Source\PSoC4/cyfitter_cfg.c **** #else
 138:Generated_Source\PSoC4/cyfitter_cfg.c ****     /*  If not using CY_CFG_CLOCK_STARTUP_ERROR_CALLBACK, place your clock startup code here. */
 139:Generated_Source\PSoC4/cyfitter_cfg.c ****     /* `#START CyClockStartupError` */
 140:Generated_Source\PSoC4/cyfitter_cfg.c **** 
 141:Generated_Source\PSoC4/cyfitter_cfg.c **** 
 142:Generated_Source\PSoC4/cyfitter_cfg.c **** 
 143:Generated_Source\PSoC4/cyfitter_cfg.c ****     /* `#END` */
 144:Generated_Source\PSoC4/cyfitter_cfg.c **** 
 145:Generated_Source\PSoC4/cyfitter_cfg.c ****     while(1) {}
ARM GAS  C:\Users\MIHAILO\AppData\Local\Temp\ccjACuX6.s 			page 4


 146:Generated_Source\PSoC4/cyfitter_cfg.c **** #endif /* CY_CFG_CLOCK_STARTUP_ERROR_CALLBACK */
 147:Generated_Source\PSoC4/cyfitter_cfg.c **** }
 148:Generated_Source\PSoC4/cyfitter_cfg.c **** #endif
 149:Generated_Source\PSoC4/cyfitter_cfg.c **** 
 150:Generated_Source\PSoC4/cyfitter_cfg.c **** #define CY_CFG_BASE_ADDR_COUNT 7u
 151:Generated_Source\PSoC4/cyfitter_cfg.c **** CYPACKED typedef struct
 152:Generated_Source\PSoC4/cyfitter_cfg.c **** {
 153:Generated_Source\PSoC4/cyfitter_cfg.c **** 	uint8 offset;
 154:Generated_Source\PSoC4/cyfitter_cfg.c **** 	uint8 value;
 155:Generated_Source\PSoC4/cyfitter_cfg.c **** } CYPACKED_ATTR cy_cfg_addrvalue_t;
 156:Generated_Source\PSoC4/cyfitter_cfg.c **** 
 157:Generated_Source\PSoC4/cyfitter_cfg.c **** 
 158:Generated_Source\PSoC4/cyfitter_cfg.c **** 
 159:Generated_Source\PSoC4/cyfitter_cfg.c **** /*******************************************************************************
 160:Generated_Source\PSoC4/cyfitter_cfg.c **** * Function Name: cfg_write_bytes32
 161:Generated_Source\PSoC4/cyfitter_cfg.c **** ********************************************************************************
 162:Generated_Source\PSoC4/cyfitter_cfg.c **** * Summary:
 163:Generated_Source\PSoC4/cyfitter_cfg.c **** *  This function is used for setting up the chip configuration areas that
 164:Generated_Source\PSoC4/cyfitter_cfg.c **** *  contain relatively sparse data.
 165:Generated_Source\PSoC4/cyfitter_cfg.c **** *
 166:Generated_Source\PSoC4/cyfitter_cfg.c **** * Parameters:
 167:Generated_Source\PSoC4/cyfitter_cfg.c **** *   void
 168:Generated_Source\PSoC4/cyfitter_cfg.c **** *
 169:Generated_Source\PSoC4/cyfitter_cfg.c **** * Return:
 170:Generated_Source\PSoC4/cyfitter_cfg.c **** *   void
 171:Generated_Source\PSoC4/cyfitter_cfg.c **** *
 172:Generated_Source\PSoC4/cyfitter_cfg.c **** *******************************************************************************/
 173:Generated_Source\PSoC4/cyfitter_cfg.c **** static void cfg_write_bytes32(const uint32 addr_table[], const cy_cfg_addrvalue_t data_table[]);
 174:Generated_Source\PSoC4/cyfitter_cfg.c **** static void cfg_write_bytes32(const uint32 addr_table[], const cy_cfg_addrvalue_t data_table[])
 175:Generated_Source\PSoC4/cyfitter_cfg.c **** {
  27              		.loc 1 175 0
  28              		.cfi_startproc
  29              		@ args = 0, pretend = 0, frame = 0
  30              		@ frame_needed = 0, uses_anonymous_args = 0
  31              	.LVL0:
  32 0000 F0B5     		push	{r4, r5, r6, r7, lr}
  33              		.cfi_def_cfa_offset 20
  34              		.cfi_offset 4, -20
  35              		.cfi_offset 5, -16
  36              		.cfi_offset 6, -12
  37              		.cfi_offset 7, -8
  38              		.cfi_offset 14, -4
  39              	.LVL1:
 176:Generated_Source\PSoC4/cyfitter_cfg.c **** 	/* For 32-bit little-endian architectures */
 177:Generated_Source\PSoC4/cyfitter_cfg.c **** 	uint32 i, j = 0u;
  40              		.loc 1 177 0
  41 0002 0025     		movs	r5, #0
 178:Generated_Source\PSoC4/cyfitter_cfg.c **** 	for (i = 0u; i < CY_CFG_BASE_ADDR_COUNT; i++)
  42              		.loc 1 178 0
  43 0004 0027     		movs	r7, #0
  44 0006 11E0     		b	.L2
  45              	.LVL2:
  46              	.L5:
  47              	.LBB2:
 179:Generated_Source\PSoC4/cyfitter_cfg.c **** 	{
 180:Generated_Source\PSoC4/cyfitter_cfg.c **** 		uint32 baseAddr = addr_table[i];
  48              		.loc 1 180 0
ARM GAS  C:\Users\MIHAILO\AppData\Local\Temp\ccjACuX6.s 			page 5


  49 0008 BB00     		lsls	r3, r7, #2
  50 000a C658     		ldr	r6, [r0, r3]
  51              	.LVL3:
 181:Generated_Source\PSoC4/cyfitter_cfg.c **** 		uint8 count = (uint8)baseAddr;
  52              		.loc 1 181 0
  53 000c F3B2     		uxtb	r3, r6
  54              	.LVL4:
 182:Generated_Source\PSoC4/cyfitter_cfg.c **** 		baseAddr &= 0xFFFFFF00u;
  55              		.loc 1 182 0
  56 000e FF22     		movs	r2, #255
  57 0010 9643     		bics	r6, r2
  58              	.LVL5:
 183:Generated_Source\PSoC4/cyfitter_cfg.c **** 		while (count != 0u)
  59              		.loc 1 183 0
  60 0012 08E0     		b	.L3
  61              	.L4:
 184:Generated_Source\PSoC4/cyfitter_cfg.c **** 		{
 185:Generated_Source\PSoC4/cyfitter_cfg.c **** 			CY_SET_REG8((void *)(baseAddr + data_table[j].offset), data_table[j].value);
  62              		.loc 1 185 0
  63 0014 6A00     		lsls	r2, r5, #1
  64 0016 8A18     		adds	r2, r1, r2
  65 0018 1478     		ldrb	r4, [r2]
  66 001a A419     		adds	r4, r4, r6
  67 001c 5278     		ldrb	r2, [r2, #1]
  68 001e 2270     		strb	r2, [r4]
 186:Generated_Source\PSoC4/cyfitter_cfg.c **** 			j++;
  69              		.loc 1 186 0
  70 0020 0135     		adds	r5, r5, #1
  71              	.LVL6:
 187:Generated_Source\PSoC4/cyfitter_cfg.c **** 			count--;
  72              		.loc 1 187 0
  73 0022 013B     		subs	r3, r3, #1
  74              	.LVL7:
  75 0024 DBB2     		uxtb	r3, r3
  76              	.LVL8:
  77              	.L3:
 183:Generated_Source\PSoC4/cyfitter_cfg.c **** 		{
  78              		.loc 1 183 0
  79 0026 002B     		cmp	r3, #0
  80 0028 F4D1     		bne	.L4
  81              	.LBE2:
 178:Generated_Source\PSoC4/cyfitter_cfg.c **** 	{
  82              		.loc 1 178 0 discriminator 2
  83 002a 0137     		adds	r7, r7, #1
  84              	.LVL9:
  85              	.L2:
 178:Generated_Source\PSoC4/cyfitter_cfg.c **** 	{
  86              		.loc 1 178 0 is_stmt 0 discriminator 1
  87 002c 062F     		cmp	r7, #6
  88 002e EBD9     		bls	.L5
 188:Generated_Source\PSoC4/cyfitter_cfg.c **** 		}
 189:Generated_Source\PSoC4/cyfitter_cfg.c **** 	}
 190:Generated_Source\PSoC4/cyfitter_cfg.c **** }
  89              		.loc 1 190 0 is_stmt 1
  90              		@ sp needed
  91              	.LVL10:
  92              	.LVL11:
ARM GAS  C:\Users\MIHAILO\AppData\Local\Temp\ccjACuX6.s 			page 6


  93 0030 F0BD     		pop	{r4, r5, r6, r7, pc}
  94              		.cfi_endproc
  95              	.LFE3:
  96              		.size	cfg_write_bytes32, .-cfg_write_bytes32
  97 0032 C046     		.section	.text.CYMEMZERO,"ax",%progbits
  98              		.align	2
  99              		.code	16
 100              		.thumb_func
 101              		.type	CYMEMZERO, %function
 102              	CYMEMZERO:
 103              	.LFB0:
  77:Generated_Source\PSoC4/cyfitter_cfg.c **** 	(void)memset(s, 0, n);
 104              		.loc 1 77 0
 105              		.cfi_startproc
 106              		@ args = 0, pretend = 0, frame = 0
 107              		@ frame_needed = 0, uses_anonymous_args = 0
 108              	.LVL12:
 109 0000 10B5     		push	{r4, lr}
 110              		.cfi_def_cfa_offset 8
 111              		.cfi_offset 4, -8
 112              		.cfi_offset 14, -4
 113 0002 0A00     		movs	r2, r1
  78:Generated_Source\PSoC4/cyfitter_cfg.c **** }
 114              		.loc 1 78 0
 115 0004 0021     		movs	r1, #0
 116              	.LVL13:
 117 0006 FFF7FEFF 		bl	memset
 118              	.LVL14:
  79:Generated_Source\PSoC4/cyfitter_cfg.c **** CY_CFG_UNUSED
 119              		.loc 1 79 0
 120              		@ sp needed
 121 000a 10BD     		pop	{r4, pc}
 122              		.cfi_endproc
 123              	.LFE0:
 124              		.size	CYMEMZERO, .-CYMEMZERO
 125              		.section	.psocinit,"ax",%progbits
 126              		.align	2
 127              		.code	16
 128              		.thumb_func
 129              		.type	ClockSetup, %function
 130              	ClockSetup:
 131              	.LFB4:
 191:Generated_Source\PSoC4/cyfitter_cfg.c **** 
 192:Generated_Source\PSoC4/cyfitter_cfg.c **** 
 193:Generated_Source\PSoC4/cyfitter_cfg.c **** /*******************************************************************************
 194:Generated_Source\PSoC4/cyfitter_cfg.c **** * Function Name: ClockSetup
 195:Generated_Source\PSoC4/cyfitter_cfg.c **** ********************************************************************************
 196:Generated_Source\PSoC4/cyfitter_cfg.c **** *
 197:Generated_Source\PSoC4/cyfitter_cfg.c **** * Summary:
 198:Generated_Source\PSoC4/cyfitter_cfg.c **** *   Performs the initialization of all of the clocks in the device based on the
 199:Generated_Source\PSoC4/cyfitter_cfg.c **** *   settings in the Clock tab of the DWR.  This includes enabling the requested
 200:Generated_Source\PSoC4/cyfitter_cfg.c **** *   clocks and setting the necessary dividers to produce the desired frequency. 
 201:Generated_Source\PSoC4/cyfitter_cfg.c **** *
 202:Generated_Source\PSoC4/cyfitter_cfg.c **** * Parameters:
 203:Generated_Source\PSoC4/cyfitter_cfg.c **** *   void
 204:Generated_Source\PSoC4/cyfitter_cfg.c **** *
 205:Generated_Source\PSoC4/cyfitter_cfg.c **** * Return:
ARM GAS  C:\Users\MIHAILO\AppData\Local\Temp\ccjACuX6.s 			page 7


 206:Generated_Source\PSoC4/cyfitter_cfg.c **** *   void
 207:Generated_Source\PSoC4/cyfitter_cfg.c **** *
 208:Generated_Source\PSoC4/cyfitter_cfg.c **** *******************************************************************************/
 209:Generated_Source\PSoC4/cyfitter_cfg.c **** static void ClockSetup(void);
 210:Generated_Source\PSoC4/cyfitter_cfg.c **** CY_CFG_SECTION
 211:Generated_Source\PSoC4/cyfitter_cfg.c **** static void ClockSetup(void)
 212:Generated_Source\PSoC4/cyfitter_cfg.c **** {
 132              		.loc 1 212 0
 133              		.cfi_startproc
 134              		@ args = 0, pretend = 0, frame = 0
 135              		@ frame_needed = 0, uses_anonymous_args = 0
 136 0000 70B5     		push	{r4, r5, r6, lr}
 137              		.cfi_def_cfa_offset 16
 138              		.cfi_offset 4, -16
 139              		.cfi_offset 5, -12
 140              		.cfi_offset 6, -8
 141              		.cfi_offset 14, -4
 213:Generated_Source\PSoC4/cyfitter_cfg.c **** 	/* Enable HALF_EN before trimming for the flash accelerator. */
 214:Generated_Source\PSoC4/cyfitter_cfg.c **** 	CY_SET_REG32((void CYXDATA *)(CYREG_CLK_SELECT), (CY_GET_REG32((void *)CYREG_CLK_SELECT) | 0x00040
 142              		.loc 1 214 0
 143 0002 224C     		ldr	r4, .L8
 144 0004 2368     		ldr	r3, [r4]
 145 0006 8022     		movs	r2, #128
 146 0008 D202     		lsls	r2, r2, #11
 147 000a 1343     		orrs	r3, r2
 148 000c 2360     		str	r3, [r4]
 215:Generated_Source\PSoC4/cyfitter_cfg.c **** 
 216:Generated_Source\PSoC4/cyfitter_cfg.c **** 	/* Setup and trim IMO based on desired frequency. */
 217:Generated_Source\PSoC4/cyfitter_cfg.c **** 	CySysClkWriteImoFreq(24u);
 149              		.loc 1 217 0
 150 000e 1820     		movs	r0, #24
 151 0010 FFF7FEFF 		bl	CySysClkWriteImoFreq
 152              	.LVL15:
 218:Generated_Source\PSoC4/cyfitter_cfg.c **** 
 219:Generated_Source\PSoC4/cyfitter_cfg.c **** 	/* Disable HALF_EN since it is not required at this IMO frequency. */
 220:Generated_Source\PSoC4/cyfitter_cfg.c **** 	CY_SET_REG32((void CYXDATA *)(CYREG_CLK_SELECT), (CY_GET_REG32((void *)CYREG_CLK_SELECT) & 0xFFFBF
 153              		.loc 1 220 0
 154 0014 2268     		ldr	r2, [r4]
 155 0016 1E4B     		ldr	r3, .L8+4
 156 0018 1340     		ands	r3, r2
 157 001a 2360     		str	r3, [r4]
 221:Generated_Source\PSoC4/cyfitter_cfg.c **** 	/* CYDEV_CLK_ILO_CONFIG Starting address: CYDEV_CLK_ILO_CONFIG */
 222:Generated_Source\PSoC4/cyfitter_cfg.c **** 	CY_SET_REG32((void *)(CYREG_CLK_ILO_CONFIG), 0x80000006u);
 158              		.loc 1 222 0
 159 001c 1D4A     		ldr	r2, .L8+8
 160 001e 1E4B     		ldr	r3, .L8+12
 161 0020 1A60     		str	r2, [r3]
 223:Generated_Source\PSoC4/cyfitter_cfg.c **** 
 224:Generated_Source\PSoC4/cyfitter_cfg.c **** 
 225:Generated_Source\PSoC4/cyfitter_cfg.c **** 	/* CYDEV_CLK_SELECT00 Starting address: CYDEV_CLK_SELECT00 */
 226:Generated_Source\PSoC4/cyfitter_cfg.c **** 	CY_SET_REG32((void *)(CYREG_CLK_SELECT03), 0x00000010u);
 162              		.loc 1 226 0
 163 0022 1022     		movs	r2, #16
 164 0024 1D4B     		ldr	r3, .L8+16
 165 0026 1A60     		str	r2, [r3]
 227:Generated_Source\PSoC4/cyfitter_cfg.c **** 	CY_SET_REG32((void *)(CYREG_CLK_SELECT07), 0x00000020u);
 166              		.loc 1 227 0
ARM GAS  C:\Users\MIHAILO\AppData\Local\Temp\ccjACuX6.s 			page 8


 167 0028 1032     		adds	r2, r2, #16
 168 002a 1D4B     		ldr	r3, .L8+20
 169 002c 1A60     		str	r2, [r3]
 228:Generated_Source\PSoC4/cyfitter_cfg.c **** 	CY_SET_REG32((void *)(CYREG_CLK_SELECT12), 0x00000031u);
 170              		.loc 1 228 0
 171 002e 1132     		adds	r2, r2, #17
 172 0030 1C4B     		ldr	r3, .L8+24
 173 0032 1A60     		str	r2, [r3]
 229:Generated_Source\PSoC4/cyfitter_cfg.c **** 	CY_SET_REG32((void *)(CYREG_CLK_SELECT13), 0x00000030u);
 174              		.loc 1 229 0
 175 0034 013A     		subs	r2, r2, #1
 176 0036 1C4B     		ldr	r3, .L8+28
 177 0038 1A60     		str	r2, [r3]
 230:Generated_Source\PSoC4/cyfitter_cfg.c **** 	CY_SET_REG32((void *)(CYREG_CLK_SELECT14), 0x00000021u);
 178              		.loc 1 230 0
 179 003a 0F3A     		subs	r2, r2, #15
 180 003c 1B4B     		ldr	r3, .L8+32
 181 003e 1A60     		str	r2, [r3]
 231:Generated_Source\PSoC4/cyfitter_cfg.c **** 	CY_SET_REG32((void *)(CYREG_CLK_SELECT15), 0x00000011u);
 182              		.loc 1 231 0
 183 0040 103A     		subs	r2, r2, #16
 184 0042 1B4B     		ldr	r3, .L8+36
 185 0044 1A60     		str	r2, [r3]
 232:Generated_Source\PSoC4/cyfitter_cfg.c **** 
 233:Generated_Source\PSoC4/cyfitter_cfg.c **** 	/* CYDEV_CLK_IMO_CONFIG Starting address: CYDEV_CLK_IMO_CONFIG */
 234:Generated_Source\PSoC4/cyfitter_cfg.c **** 	CY_SET_REG32((void *)(CYREG_CLK_IMO_CONFIG), 0x82000000u);
 186              		.loc 1 234 0
 187 0046 8222     		movs	r2, #130
 188 0048 1206     		lsls	r2, r2, #24
 189 004a 1A4B     		ldr	r3, .L8+40
 190 004c 1A60     		str	r2, [r3]
 235:Generated_Source\PSoC4/cyfitter_cfg.c **** 
 236:Generated_Source\PSoC4/cyfitter_cfg.c **** 	/* CYDEV_CLK_SELECT Starting address: CYDEV_CLK_SELECT */
 237:Generated_Source\PSoC4/cyfitter_cfg.c **** 	CY_SET_REG32((void *)(CYREG_CLK_SELECT), 0x00000000u);
 191              		.loc 1 237 0
 192 004e 0025     		movs	r5, #0
 193 0050 2560     		str	r5, [r4]
 238:Generated_Source\PSoC4/cyfitter_cfg.c **** 
 239:Generated_Source\PSoC4/cyfitter_cfg.c **** 	/* CYDEV_CLK_DIVIDER_A00 Starting address: CYDEV_CLK_DIVIDER_A00 */
 240:Generated_Source\PSoC4/cyfitter_cfg.c **** 	CY_SET_REG32((void *)(CYREG_CLK_DIVIDER_A00), 0x8000000Eu);
 194              		.loc 1 240 0
 195 0052 194A     		ldr	r2, .L8+44
 196 0054 194B     		ldr	r3, .L8+48
 197 0056 1A60     		str	r2, [r3]
 241:Generated_Source\PSoC4/cyfitter_cfg.c **** 
 242:Generated_Source\PSoC4/cyfitter_cfg.c **** 	/* CYDEV_CLK_DIVIDER_B00 Starting address: CYDEV_CLK_DIVIDER_B00 */
 243:Generated_Source\PSoC4/cyfitter_cfg.c **** 	CY_SET_REG32((void *)(CYREG_CLK_DIVIDER_B00), 0x80000014u);
 198              		.loc 1 243 0
 199 0058 194A     		ldr	r2, .L8+52
 200 005a 1A4B     		ldr	r3, .L8+56
 201 005c 1A60     		str	r2, [r3]
 244:Generated_Source\PSoC4/cyfitter_cfg.c **** 
 245:Generated_Source\PSoC4/cyfitter_cfg.c **** 	/* CYDEV_CLK_DIVIDER_C00 Starting address: CYDEV_CLK_DIVIDER_C00 */
 246:Generated_Source\PSoC4/cyfitter_cfg.c **** 	CY_SET_REG32((void *)(CYREG_CLK_DIVIDER_C00), 0x800070F3u);
 202              		.loc 1 246 0
 203 005e 1A4A     		ldr	r2, .L8+60
 204 0060 1A4B     		ldr	r3, .L8+64
ARM GAS  C:\Users\MIHAILO\AppData\Local\Temp\ccjACuX6.s 			page 9


 205 0062 1A60     		str	r2, [r3]
 247:Generated_Source\PSoC4/cyfitter_cfg.c **** 
 248:Generated_Source\PSoC4/cyfitter_cfg.c **** 	/* CYDEV_CLK_DIVIDER_A01 Starting address: CYDEV_CLK_DIVIDER_A01 */
 249:Generated_Source\PSoC4/cyfitter_cfg.c **** 	CY_SET_REG32((void *)(CYREG_CLK_DIVIDER_A01), 0x80009735u);
 206              		.loc 1 249 0
 207 0064 1A4A     		ldr	r2, .L8+68
 208 0066 1B4B     		ldr	r3, .L8+72
 209 0068 1A60     		str	r2, [r3]
 250:Generated_Source\PSoC4/cyfitter_cfg.c **** 
 251:Generated_Source\PSoC4/cyfitter_cfg.c **** 	/* CYDEV_CLK_DIVIDER_B01 Starting address: CYDEV_CLK_DIVIDER_B01 */
 252:Generated_Source\PSoC4/cyfitter_cfg.c **** 	CY_SET_REG32((void *)(CYREG_CLK_DIVIDER_B01), 0x8000BA02u);
 210              		.loc 1 252 0
 211 006a 1B4A     		ldr	r2, .L8+76
 212 006c 1B4B     		ldr	r3, .L8+80
 213 006e 1A60     		str	r2, [r3]
 253:Generated_Source\PSoC4/cyfitter_cfg.c **** 
 254:Generated_Source\PSoC4/cyfitter_cfg.c **** 	/* CYDEV_CLK_DIVIDER_C01 Starting address: CYDEV_CLK_DIVIDER_C01 */
 255:Generated_Source\PSoC4/cyfitter_cfg.c **** 	CY_SET_REG32((void *)(CYREG_CLK_DIVIDER_C01), 0x8000E4A8u);
 214              		.loc 1 255 0
 215 0070 1B4A     		ldr	r2, .L8+84
 216 0072 1C4B     		ldr	r3, .L8+88
 217 0074 1A60     		str	r2, [r3]
 256:Generated_Source\PSoC4/cyfitter_cfg.c **** 
 257:Generated_Source\PSoC4/cyfitter_cfg.c **** 	(void)CyIntSetVector(9u, &CySysWdtIsr);
 218              		.loc 1 257 0
 219 0076 1C49     		ldr	r1, .L8+92
 220 0078 0920     		movs	r0, #9
 221 007a FFF7FEFF 		bl	CyIntSetVector
 222              	.LVL16:
 258:Generated_Source\PSoC4/cyfitter_cfg.c **** 	CyIntEnable(9u);
 223              		.loc 1 258 0
 224 007e 0920     		movs	r0, #9
 225 0080 FFF7FEFF 		bl	CyIntEnable
 226              	.LVL17:
 259:Generated_Source\PSoC4/cyfitter_cfg.c **** 	CY_SET_REG32((void *)(CYREG_WDT_CONFIG), 0x00000000u);
 227              		.loc 1 259 0
 228 0084 194B     		ldr	r3, .L8+96
 229 0086 1D60     		str	r5, [r3]
 260:Generated_Source\PSoC4/cyfitter_cfg.c **** }
 230              		.loc 1 260 0
 231              		@ sp needed
 232 0088 70BD     		pop	{r4, r5, r6, pc}
 233              	.L9:
 234 008a C046     		.align	2
 235              	.L8:
 236 008c 00010B40 		.word	1074462976
 237 0090 FFFFFBFF 		.word	-262145
 238 0094 06000080 		.word	-2147483642
 239 0098 04010B40 		.word	1074462980
 240 009c 0C020240 		.word	1073873420
 241 00a0 1C020240 		.word	1073873436
 242 00a4 30020240 		.word	1073873456
 243 00a8 34020240 		.word	1073873460
 244 00ac 38020240 		.word	1073873464
 245 00b0 3C020240 		.word	1073873468
 246 00b4 08010B40 		.word	1074462984
 247 00b8 0E000080 		.word	-2147483634
ARM GAS  C:\Users\MIHAILO\AppData\Local\Temp\ccjACuX6.s 			page 10


 248 00bc 00000240 		.word	1073872896
 249 00c0 14000080 		.word	-2147483628
 250 00c4 40000240 		.word	1073872960
 251 00c8 F3700080 		.word	-2147454733
 252 00cc 80000240 		.word	1073873024
 253 00d0 35970080 		.word	-2147444939
 254 00d4 04000240 		.word	1073872900
 255 00d8 02BA0080 		.word	-2147436030
 256 00dc 44000240 		.word	1073872964
 257 00e0 A8E40080 		.word	-2147425112
 258 00e4 84000240 		.word	1073873028
 259 00e8 00000000 		.word	CySysWdtIsr
 260 00ec 0C020B40 		.word	1074463244
 261              		.cfi_endproc
 262              	.LFE4:
 263              		.size	ClockSetup, .-ClockSetup
 264              		.section	.text.SetAnalogRoutingPumps,"ax",%progbits
 265              		.align	2
 266              		.global	SetAnalogRoutingPumps
 267              		.code	16
 268              		.thumb_func
 269              		.type	SetAnalogRoutingPumps, %function
 270              	SetAnalogRoutingPumps:
 271              	.LFB6:
 261:Generated_Source\PSoC4/cyfitter_cfg.c **** 
 262:Generated_Source\PSoC4/cyfitter_cfg.c **** 
 263:Generated_Source\PSoC4/cyfitter_cfg.c **** /* Analog API Functions */
 264:Generated_Source\PSoC4/cyfitter_cfg.c **** 
 265:Generated_Source\PSoC4/cyfitter_cfg.c **** 
 266:Generated_Source\PSoC4/cyfitter_cfg.c **** /*******************************************************************************
 267:Generated_Source\PSoC4/cyfitter_cfg.c **** * Function Name: AnalogSetDefault
 268:Generated_Source\PSoC4/cyfitter_cfg.c **** ********************************************************************************
 269:Generated_Source\PSoC4/cyfitter_cfg.c **** *
 270:Generated_Source\PSoC4/cyfitter_cfg.c **** * Summary:
 271:Generated_Source\PSoC4/cyfitter_cfg.c **** *  Sets up the analog portions of the chip to default values based on chip
 272:Generated_Source\PSoC4/cyfitter_cfg.c **** *  configuration options from the project.
 273:Generated_Source\PSoC4/cyfitter_cfg.c **** *
 274:Generated_Source\PSoC4/cyfitter_cfg.c **** * Parameters:
 275:Generated_Source\PSoC4/cyfitter_cfg.c **** *  void
 276:Generated_Source\PSoC4/cyfitter_cfg.c **** *
 277:Generated_Source\PSoC4/cyfitter_cfg.c **** * Return:
 278:Generated_Source\PSoC4/cyfitter_cfg.c **** *  void
 279:Generated_Source\PSoC4/cyfitter_cfg.c **** *
 280:Generated_Source\PSoC4/cyfitter_cfg.c **** *******************************************************************************/
 281:Generated_Source\PSoC4/cyfitter_cfg.c **** static void AnalogSetDefault(void);
 282:Generated_Source\PSoC4/cyfitter_cfg.c **** static void AnalogSetDefault(void)
 283:Generated_Source\PSoC4/cyfitter_cfg.c **** {
 284:Generated_Source\PSoC4/cyfitter_cfg.c **** 	CY_SET_XTND_REG32((void CYFAR *)CYREG_SAR_MUX_SWITCH0, 0x00000001u);
 285:Generated_Source\PSoC4/cyfitter_cfg.c **** 	SetAnalogRoutingPumps(1);
 286:Generated_Source\PSoC4/cyfitter_cfg.c **** }
 287:Generated_Source\PSoC4/cyfitter_cfg.c **** 
 288:Generated_Source\PSoC4/cyfitter_cfg.c **** 
 289:Generated_Source\PSoC4/cyfitter_cfg.c **** /*******************************************************************************
 290:Generated_Source\PSoC4/cyfitter_cfg.c **** * Function Name: SetAnalogRoutingPumps
 291:Generated_Source\PSoC4/cyfitter_cfg.c **** ********************************************************************************
 292:Generated_Source\PSoC4/cyfitter_cfg.c **** *
 293:Generated_Source\PSoC4/cyfitter_cfg.c **** * Summary:
ARM GAS  C:\Users\MIHAILO\AppData\Local\Temp\ccjACuX6.s 			page 11


 294:Generated_Source\PSoC4/cyfitter_cfg.c **** * Enables or disables the analog pumps feeding analog routing switches.
 295:Generated_Source\PSoC4/cyfitter_cfg.c **** * Intended to be called at startup, based on the Vdda system configuration;
 296:Generated_Source\PSoC4/cyfitter_cfg.c **** * may be called during operation when the user informs us that the Vdda voltage crossed the pump th
 297:Generated_Source\PSoC4/cyfitter_cfg.c **** *
 298:Generated_Source\PSoC4/cyfitter_cfg.c **** * Parameters:
 299:Generated_Source\PSoC4/cyfitter_cfg.c **** *  enabled - 1 to enable the pumps, 0 to disable the pumps
 300:Generated_Source\PSoC4/cyfitter_cfg.c **** *
 301:Generated_Source\PSoC4/cyfitter_cfg.c **** * Return:
 302:Generated_Source\PSoC4/cyfitter_cfg.c **** *  void
 303:Generated_Source\PSoC4/cyfitter_cfg.c **** *
 304:Generated_Source\PSoC4/cyfitter_cfg.c **** *******************************************************************************/
 305:Generated_Source\PSoC4/cyfitter_cfg.c **** void SetAnalogRoutingPumps(uint8 enabled)
 306:Generated_Source\PSoC4/cyfitter_cfg.c **** {
 272              		.loc 1 306 0
 273              		.cfi_startproc
 274              		@ args = 0, pretend = 0, frame = 0
 275              		@ frame_needed = 0, uses_anonymous_args = 0
 276              		@ link register save eliminated.
 277              	.LVL18:
 307:Generated_Source\PSoC4/cyfitter_cfg.c **** 	uint32 regValue = CY_GET_XTND_REG32((void *)(CYREG_SAR_PUMP_CTRL));
 278              		.loc 1 307 0
 279 0000 064B     		ldr	r3, .L13
 280 0002 1B68     		ldr	r3, [r3]
 281              	.LVL19:
 308:Generated_Source\PSoC4/cyfitter_cfg.c **** 	if (enabled != 0u)
 282              		.loc 1 308 0
 283 0004 0028     		cmp	r0, #0
 284 0006 03D0     		beq	.L11
 309:Generated_Source\PSoC4/cyfitter_cfg.c **** 	{
 310:Generated_Source\PSoC4/cyfitter_cfg.c **** 		regValue |= 0x80000000u;
 285              		.loc 1 310 0
 286 0008 8022     		movs	r2, #128
 287 000a 1206     		lsls	r2, r2, #24
 288 000c 1343     		orrs	r3, r2
 289              	.LVL20:
 290 000e 01E0     		b	.L12
 291              	.L11:
 311:Generated_Source\PSoC4/cyfitter_cfg.c **** 	}
 312:Generated_Source\PSoC4/cyfitter_cfg.c **** 	else
 313:Generated_Source\PSoC4/cyfitter_cfg.c **** 	{
 314:Generated_Source\PSoC4/cyfitter_cfg.c **** 		regValue &= ~0x80000000u;
 292              		.loc 1 314 0
 293 0010 5B00     		lsls	r3, r3, #1
 294              	.LVL21:
 295 0012 5B08     		lsrs	r3, r3, #1
 296              	.LVL22:
 297              	.L12:
 315:Generated_Source\PSoC4/cyfitter_cfg.c **** 	}
 316:Generated_Source\PSoC4/cyfitter_cfg.c **** 	CY_SET_XTND_REG32((void *)(CYREG_SAR_PUMP_CTRL), regValue);
 298              		.loc 1 316 0
 299 0014 014A     		ldr	r2, .L13
 300 0016 1360     		str	r3, [r2]
 317:Generated_Source\PSoC4/cyfitter_cfg.c **** }
 301              		.loc 1 317 0
 302              		@ sp needed
 303 0018 7047     		bx	lr
 304              	.L14:
ARM GAS  C:\Users\MIHAILO\AppData\Local\Temp\ccjACuX6.s 			page 12


 305 001a C046     		.align	2
 306              	.L13:
 307 001c 80031A40 		.word	1075446656
 308              		.cfi_endproc
 309              	.LFE6:
 310              		.size	SetAnalogRoutingPumps, .-SetAnalogRoutingPumps
 311              		.section	.text.AnalogSetDefault,"ax",%progbits
 312              		.align	2
 313              		.code	16
 314              		.thumb_func
 315              		.type	AnalogSetDefault, %function
 316              	AnalogSetDefault:
 317              	.LFB5:
 283:Generated_Source\PSoC4/cyfitter_cfg.c **** 	CY_SET_XTND_REG32((void CYFAR *)CYREG_SAR_MUX_SWITCH0, 0x00000001u);
 318              		.loc 1 283 0
 319              		.cfi_startproc
 320              		@ args = 0, pretend = 0, frame = 0
 321              		@ frame_needed = 0, uses_anonymous_args = 0
 322 0000 10B5     		push	{r4, lr}
 323              		.cfi_def_cfa_offset 8
 324              		.cfi_offset 4, -8
 325              		.cfi_offset 14, -4
 284:Generated_Source\PSoC4/cyfitter_cfg.c **** 	SetAnalogRoutingPumps(1);
 326              		.loc 1 284 0
 327 0002 0122     		movs	r2, #1
 328 0004 024B     		ldr	r3, .L16
 329 0006 1A60     		str	r2, [r3]
 285:Generated_Source\PSoC4/cyfitter_cfg.c **** }
 330              		.loc 1 285 0
 331 0008 0120     		movs	r0, #1
 332 000a FFF7FEFF 		bl	SetAnalogRoutingPumps
 333              	.LVL23:
 286:Generated_Source\PSoC4/cyfitter_cfg.c **** 
 334              		.loc 1 286 0
 335              		@ sp needed
 336 000e 10BD     		pop	{r4, pc}
 337              	.L17:
 338              		.align	2
 339              	.L16:
 340 0010 00031A40 		.word	1075446528
 341              		.cfi_endproc
 342              	.LFE5:
 343              		.size	AnalogSetDefault, .-AnalogSetDefault
 344              		.section	.psocinit
 345              		.align	2
 346              		.global	cyfitter_cfg
 347              		.code	16
 348              		.thumb_func
 349              		.type	cyfitter_cfg, %function
 350              	cyfitter_cfg:
 351              	.LFB7:
 318:Generated_Source\PSoC4/cyfitter_cfg.c **** 
 319:Generated_Source\PSoC4/cyfitter_cfg.c **** 
 320:Generated_Source\PSoC4/cyfitter_cfg.c **** 
 321:Generated_Source\PSoC4/cyfitter_cfg.c **** 
 322:Generated_Source\PSoC4/cyfitter_cfg.c **** /*******************************************************************************
 323:Generated_Source\PSoC4/cyfitter_cfg.c **** * Function Name: cyfitter_cfg
ARM GAS  C:\Users\MIHAILO\AppData\Local\Temp\ccjACuX6.s 			page 13


 324:Generated_Source\PSoC4/cyfitter_cfg.c **** ********************************************************************************
 325:Generated_Source\PSoC4/cyfitter_cfg.c **** * Summary:
 326:Generated_Source\PSoC4/cyfitter_cfg.c **** *  This function is called by the start-up code for the selected device. It
 327:Generated_Source\PSoC4/cyfitter_cfg.c **** *  performs all of the necessary device configuration based on the design
 328:Generated_Source\PSoC4/cyfitter_cfg.c **** *  settings.  This includes settings from the Design Wide Resources (DWR) such
 329:Generated_Source\PSoC4/cyfitter_cfg.c **** *  as Clocks and Pins as well as any component configuration that is necessary.
 330:Generated_Source\PSoC4/cyfitter_cfg.c **** *
 331:Generated_Source\PSoC4/cyfitter_cfg.c **** * Parameters:
 332:Generated_Source\PSoC4/cyfitter_cfg.c **** *   void
 333:Generated_Source\PSoC4/cyfitter_cfg.c **** *
 334:Generated_Source\PSoC4/cyfitter_cfg.c **** * Return:
 335:Generated_Source\PSoC4/cyfitter_cfg.c **** *   void
 336:Generated_Source\PSoC4/cyfitter_cfg.c **** *
 337:Generated_Source\PSoC4/cyfitter_cfg.c **** *******************************************************************************/
 338:Generated_Source\PSoC4/cyfitter_cfg.c **** CY_CFG_SECTION
 339:Generated_Source\PSoC4/cyfitter_cfg.c **** void cyfitter_cfg(void)
 340:Generated_Source\PSoC4/cyfitter_cfg.c **** {
 352              		.loc 1 340 0
 353              		.cfi_startproc
 354              		@ args = 0, pretend = 0, frame = 0
 355              		@ frame_needed = 0, uses_anonymous_args = 0
 356 00f0 10B5     		push	{r4, lr}
 357              		.cfi_def_cfa_offset 8
 358              		.cfi_offset 4, -8
 359              		.cfi_offset 14, -4
 341:Generated_Source\PSoC4/cyfitter_cfg.c **** 	/* Disable interrupts by default. Let user enable if/when they want. */
 342:Generated_Source\PSoC4/cyfitter_cfg.c **** 	CyGlobalIntDisable;
 360              		.loc 1 342 0
 361              		.syntax divided
 362              	@ 342 "Generated_Source\PSoC4\cyfitter_cfg.c" 1
 363 00f2 72B6     		CPSID   i
 364              	@ 0 "" 2
 365              	.LVL24:
 366              		.thumb
 367              		.syntax unified
 368              	.LBB3:
 343:Generated_Source\PSoC4/cyfitter_cfg.c **** 
 344:Generated_Source\PSoC4/cyfitter_cfg.c **** 	{
 345:Generated_Source\PSoC4/cyfitter_cfg.c **** 		static const uint32 CYCODE cy_cfg_addr_table[] = {
 346:Generated_Source\PSoC4/cyfitter_cfg.c **** 			0x400F3102u, /* Base address: 0x400F3100 Count: 2 */
 347:Generated_Source\PSoC4/cyfitter_cfg.c **** 			0x400F322Du, /* Base address: 0x400F3200 Count: 45 */
 348:Generated_Source\PSoC4/cyfitter_cfg.c **** 			0x400F3333u, /* Base address: 0x400F3300 Count: 51 */
 349:Generated_Source\PSoC4/cyfitter_cfg.c **** 			0x400F400Au, /* Base address: 0x400F4000 Count: 10 */
 350:Generated_Source\PSoC4/cyfitter_cfg.c **** 			0x400F4107u, /* Base address: 0x400F4100 Count: 7 */
 351:Generated_Source\PSoC4/cyfitter_cfg.c **** 			0x400F430Bu, /* Base address: 0x400F4300 Count: 11 */
 352:Generated_Source\PSoC4/cyfitter_cfg.c **** 			0x400F6002u, /* Base address: 0x400F6000 Count: 2 */
 353:Generated_Source\PSoC4/cyfitter_cfg.c **** 		};
 354:Generated_Source\PSoC4/cyfitter_cfg.c **** 
 355:Generated_Source\PSoC4/cyfitter_cfg.c **** 		static const cy_cfg_addrvalue_t CYCODE cy_cfg_data_table[] = {
 356:Generated_Source\PSoC4/cyfitter_cfg.c **** 			{0x81u, 0x08u},
 357:Generated_Source\PSoC4/cyfitter_cfg.c **** 			{0x87u, 0x40u},
 358:Generated_Source\PSoC4/cyfitter_cfg.c **** 			{0x02u, 0x03u},
 359:Generated_Source\PSoC4/cyfitter_cfg.c **** 			{0x0Eu, 0x08u},
 360:Generated_Source\PSoC4/cyfitter_cfg.c **** 			{0x10u, 0x01u},
 361:Generated_Source\PSoC4/cyfitter_cfg.c **** 			{0x1Au, 0x0Cu},
 362:Generated_Source\PSoC4/cyfitter_cfg.c **** 			{0x1Eu, 0x02u},
 363:Generated_Source\PSoC4/cyfitter_cfg.c **** 			{0x20u, 0x04u},
ARM GAS  C:\Users\MIHAILO\AppData\Local\Temp\ccjACuX6.s 			page 14


 364:Generated_Source\PSoC4/cyfitter_cfg.c **** 			{0x30u, 0x03u},
 365:Generated_Source\PSoC4/cyfitter_cfg.c **** 			{0x34u, 0x0Cu},
 366:Generated_Source\PSoC4/cyfitter_cfg.c **** 			{0x3Au, 0x0Cu},
 367:Generated_Source\PSoC4/cyfitter_cfg.c **** 			{0x3Bu, 0xC0u},
 368:Generated_Source\PSoC4/cyfitter_cfg.c **** 			{0x3Eu, 0x11u},
 369:Generated_Source\PSoC4/cyfitter_cfg.c **** 			{0x58u, 0x04u},
 370:Generated_Source\PSoC4/cyfitter_cfg.c **** 			{0x59u, 0x04u},
 371:Generated_Source\PSoC4/cyfitter_cfg.c **** 			{0x5Cu, 0x02u},
 372:Generated_Source\PSoC4/cyfitter_cfg.c **** 			{0x5Fu, 0x01u},
 373:Generated_Source\PSoC4/cyfitter_cfg.c **** 			{0x82u, 0x80u},
 374:Generated_Source\PSoC4/cyfitter_cfg.c **** 			{0x84u, 0x10u},
 375:Generated_Source\PSoC4/cyfitter_cfg.c **** 			{0x87u, 0x08u},
 376:Generated_Source\PSoC4/cyfitter_cfg.c **** 			{0x8Au, 0x0Cu},
 377:Generated_Source\PSoC4/cyfitter_cfg.c **** 			{0x8Bu, 0x02u},
 378:Generated_Source\PSoC4/cyfitter_cfg.c **** 			{0x8Eu, 0x02u},
 379:Generated_Source\PSoC4/cyfitter_cfg.c **** 			{0x92u, 0x30u},
 380:Generated_Source\PSoC4/cyfitter_cfg.c **** 			{0x94u, 0x04u},
 381:Generated_Source\PSoC4/cyfitter_cfg.c **** 			{0x97u, 0x0Cu},
 382:Generated_Source\PSoC4/cyfitter_cfg.c **** 			{0x99u, 0x04u},
 383:Generated_Source\PSoC4/cyfitter_cfg.c **** 			{0x9Au, 0x03u},
 384:Generated_Source\PSoC4/cyfitter_cfg.c **** 			{0x9Eu, 0xC0u},
 385:Generated_Source\PSoC4/cyfitter_cfg.c **** 			{0xA0u, 0x01u},
 386:Generated_Source\PSoC4/cyfitter_cfg.c **** 			{0xA6u, 0x20u},
 387:Generated_Source\PSoC4/cyfitter_cfg.c **** 			{0xA7u, 0x03u},
 388:Generated_Source\PSoC4/cyfitter_cfg.c **** 			{0xA9u, 0x01u},
 389:Generated_Source\PSoC4/cyfitter_cfg.c **** 			{0xAAu, 0x08u},
 390:Generated_Source\PSoC4/cyfitter_cfg.c **** 			{0xACu, 0x40u},
 391:Generated_Source\PSoC4/cyfitter_cfg.c **** 			{0xB0u, 0xFFu},
 392:Generated_Source\PSoC4/cyfitter_cfg.c **** 			{0xB1u, 0x0Cu},
 393:Generated_Source\PSoC4/cyfitter_cfg.c **** 			{0xB3u, 0x03u},
 394:Generated_Source\PSoC4/cyfitter_cfg.c **** 			{0xBAu, 0x0Cu},
 395:Generated_Source\PSoC4/cyfitter_cfg.c **** 			{0xBBu, 0x30u},
 396:Generated_Source\PSoC4/cyfitter_cfg.c **** 			{0xBEu, 0x01u},
 397:Generated_Source\PSoC4/cyfitter_cfg.c **** 			{0xBFu, 0x05u},
 398:Generated_Source\PSoC4/cyfitter_cfg.c **** 			{0xD8u, 0x04u},
 399:Generated_Source\PSoC4/cyfitter_cfg.c **** 			{0xD9u, 0x04u},
 400:Generated_Source\PSoC4/cyfitter_cfg.c **** 			{0xDBu, 0x04u},
 401:Generated_Source\PSoC4/cyfitter_cfg.c **** 			{0xDCu, 0x13u},
 402:Generated_Source\PSoC4/cyfitter_cfg.c **** 			{0xDFu, 0x01u},
 403:Generated_Source\PSoC4/cyfitter_cfg.c **** 			{0x00u, 0x50u},
 404:Generated_Source\PSoC4/cyfitter_cfg.c **** 			{0x03u, 0x60u},
 405:Generated_Source\PSoC4/cyfitter_cfg.c **** 			{0x04u, 0x42u},
 406:Generated_Source\PSoC4/cyfitter_cfg.c **** 			{0x07u, 0x02u},
 407:Generated_Source\PSoC4/cyfitter_cfg.c **** 			{0x08u, 0x06u},
 408:Generated_Source\PSoC4/cyfitter_cfg.c **** 			{0x09u, 0x60u},
 409:Generated_Source\PSoC4/cyfitter_cfg.c **** 			{0x0Du, 0x10u},
 410:Generated_Source\PSoC4/cyfitter_cfg.c **** 			{0x0Eu, 0x01u},
 411:Generated_Source\PSoC4/cyfitter_cfg.c **** 			{0x0Fu, 0x40u},
 412:Generated_Source\PSoC4/cyfitter_cfg.c **** 			{0x10u, 0x28u},
 413:Generated_Source\PSoC4/cyfitter_cfg.c **** 			{0x12u, 0x40u},
 414:Generated_Source\PSoC4/cyfitter_cfg.c **** 			{0x13u, 0x40u},
 415:Generated_Source\PSoC4/cyfitter_cfg.c **** 			{0x16u, 0xC0u},
 416:Generated_Source\PSoC4/cyfitter_cfg.c **** 			{0x18u, 0x10u},
 417:Generated_Source\PSoC4/cyfitter_cfg.c **** 			{0x19u, 0x04u},
 418:Generated_Source\PSoC4/cyfitter_cfg.c **** 			{0x1Au, 0x80u},
 419:Generated_Source\PSoC4/cyfitter_cfg.c **** 			{0x1Cu, 0x04u},
 420:Generated_Source\PSoC4/cyfitter_cfg.c **** 			{0x1Eu, 0x80u},
ARM GAS  C:\Users\MIHAILO\AppData\Local\Temp\ccjACuX6.s 			page 15


 421:Generated_Source\PSoC4/cyfitter_cfg.c **** 			{0x1Fu, 0x08u},
 422:Generated_Source\PSoC4/cyfitter_cfg.c **** 			{0x21u, 0x39u},
 423:Generated_Source\PSoC4/cyfitter_cfg.c **** 			{0x24u, 0x02u},
 424:Generated_Source\PSoC4/cyfitter_cfg.c **** 			{0x25u, 0x40u},
 425:Generated_Source\PSoC4/cyfitter_cfg.c **** 			{0x28u, 0x04u},
 426:Generated_Source\PSoC4/cyfitter_cfg.c **** 			{0x29u, 0x04u},
 427:Generated_Source\PSoC4/cyfitter_cfg.c **** 			{0x2Au, 0x20u},
 428:Generated_Source\PSoC4/cyfitter_cfg.c **** 			{0x33u, 0x28u},
 429:Generated_Source\PSoC4/cyfitter_cfg.c **** 			{0x39u, 0x14u},
 430:Generated_Source\PSoC4/cyfitter_cfg.c **** 			{0x68u, 0x28u},
 431:Generated_Source\PSoC4/cyfitter_cfg.c **** 			{0x69u, 0x14u},
 432:Generated_Source\PSoC4/cyfitter_cfg.c **** 			{0x6Au, 0x01u},
 433:Generated_Source\PSoC4/cyfitter_cfg.c **** 			{0x6Bu, 0x42u},
 434:Generated_Source\PSoC4/cyfitter_cfg.c **** 			{0x82u, 0x40u},
 435:Generated_Source\PSoC4/cyfitter_cfg.c **** 			{0x85u, 0x01u},
 436:Generated_Source\PSoC4/cyfitter_cfg.c **** 			{0x86u, 0x20u},
 437:Generated_Source\PSoC4/cyfitter_cfg.c **** 			{0x88u, 0x02u},
 438:Generated_Source\PSoC4/cyfitter_cfg.c **** 			{0x8Bu, 0x28u},
 439:Generated_Source\PSoC4/cyfitter_cfg.c **** 			{0x8Cu, 0x04u},
 440:Generated_Source\PSoC4/cyfitter_cfg.c **** 			{0x93u, 0x40u},
 441:Generated_Source\PSoC4/cyfitter_cfg.c **** 			{0x9Au, 0x80u},
 442:Generated_Source\PSoC4/cyfitter_cfg.c **** 			{0xA5u, 0x08u},
 443:Generated_Source\PSoC4/cyfitter_cfg.c **** 			{0xA6u, 0x40u},
 444:Generated_Source\PSoC4/cyfitter_cfg.c **** 			{0xAEu, 0xC0u},
 445:Generated_Source\PSoC4/cyfitter_cfg.c **** 			{0xC0u, 0x9Fu},
 446:Generated_Source\PSoC4/cyfitter_cfg.c **** 			{0xC2u, 0xDFu},
 447:Generated_Source\PSoC4/cyfitter_cfg.c **** 			{0xC4u, 0x1Fu},
 448:Generated_Source\PSoC4/cyfitter_cfg.c **** 			{0xCAu, 0x06u},
 449:Generated_Source\PSoC4/cyfitter_cfg.c **** 			{0xCCu, 0x06u},
 450:Generated_Source\PSoC4/cyfitter_cfg.c **** 			{0xCEu, 0x06u},
 451:Generated_Source\PSoC4/cyfitter_cfg.c **** 			{0xE2u, 0x08u},
 452:Generated_Source\PSoC4/cyfitter_cfg.c **** 			{0xE4u, 0x03u},
 453:Generated_Source\PSoC4/cyfitter_cfg.c **** 			{0xE6u, 0x40u},
 454:Generated_Source\PSoC4/cyfitter_cfg.c **** 			{0x09u, 0x40u},
 455:Generated_Source\PSoC4/cyfitter_cfg.c **** 			{0x0Bu, 0x20u},
 456:Generated_Source\PSoC4/cyfitter_cfg.c **** 			{0x5Au, 0x02u},
 457:Generated_Source\PSoC4/cyfitter_cfg.c **** 			{0x5Fu, 0x20u},
 458:Generated_Source\PSoC4/cyfitter_cfg.c **** 			{0x83u, 0x20u},
 459:Generated_Source\PSoC4/cyfitter_cfg.c **** 			{0x87u, 0x10u},
 460:Generated_Source\PSoC4/cyfitter_cfg.c **** 			{0xC2u, 0x50u},
 461:Generated_Source\PSoC4/cyfitter_cfg.c **** 			{0xD6u, 0x60u},
 462:Generated_Source\PSoC4/cyfitter_cfg.c **** 			{0xE2u, 0x80u},
 463:Generated_Source\PSoC4/cyfitter_cfg.c **** 			{0xE4u, 0x40u},
 464:Generated_Source\PSoC4/cyfitter_cfg.c **** 			{0x50u, 0x10u},
 465:Generated_Source\PSoC4/cyfitter_cfg.c **** 			{0x8Cu, 0x10u},
 466:Generated_Source\PSoC4/cyfitter_cfg.c **** 			{0xADu, 0x40u},
 467:Generated_Source\PSoC4/cyfitter_cfg.c **** 			{0xAEu, 0x01u},
 468:Generated_Source\PSoC4/cyfitter_cfg.c **** 			{0xD4u, 0x20u},
 469:Generated_Source\PSoC4/cyfitter_cfg.c **** 			{0xE8u, 0x40u},
 470:Generated_Source\PSoC4/cyfitter_cfg.c **** 			{0xEEu, 0x40u},
 471:Generated_Source\PSoC4/cyfitter_cfg.c **** 			{0x08u, 0x20u},
 472:Generated_Source\PSoC4/cyfitter_cfg.c **** 			{0x0Bu, 0x10u},
 473:Generated_Source\PSoC4/cyfitter_cfg.c **** 			{0x5Au, 0x02u},
 474:Generated_Source\PSoC4/cyfitter_cfg.c **** 			{0x5Eu, 0x02u},
 475:Generated_Source\PSoC4/cyfitter_cfg.c **** 			{0x82u, 0x01u},
 476:Generated_Source\PSoC4/cyfitter_cfg.c **** 			{0x86u, 0x01u},
 477:Generated_Source\PSoC4/cyfitter_cfg.c **** 			{0x87u, 0x10u},
ARM GAS  C:\Users\MIHAILO\AppData\Local\Temp\ccjACuX6.s 			page 16


 478:Generated_Source\PSoC4/cyfitter_cfg.c **** 			{0x88u, 0x20u},
 479:Generated_Source\PSoC4/cyfitter_cfg.c **** 			{0xC2u, 0x0Au},
 480:Generated_Source\PSoC4/cyfitter_cfg.c **** 			{0xD6u, 0x03u},
 481:Generated_Source\PSoC4/cyfitter_cfg.c **** 			{0xE2u, 0x01u},
 482:Generated_Source\PSoC4/cyfitter_cfg.c **** 			{0x01u, 0x0Fu},
 483:Generated_Source\PSoC4/cyfitter_cfg.c **** 			{0x10u, 0x0Fu},
 484:Generated_Source\PSoC4/cyfitter_cfg.c **** 		};
 485:Generated_Source\PSoC4/cyfitter_cfg.c **** 
 486:Generated_Source\PSoC4/cyfitter_cfg.c **** 
 487:Generated_Source\PSoC4/cyfitter_cfg.c **** 
 488:Generated_Source\PSoC4/cyfitter_cfg.c **** 		CYPACKED typedef struct {
 489:Generated_Source\PSoC4/cyfitter_cfg.c **** 			void CYFAR *address;
 490:Generated_Source\PSoC4/cyfitter_cfg.c **** 			uint16 size;
 491:Generated_Source\PSoC4/cyfitter_cfg.c **** 		} CYPACKED_ATTR cfg_memset_t;
 492:Generated_Source\PSoC4/cyfitter_cfg.c **** 
 493:Generated_Source\PSoC4/cyfitter_cfg.c **** 		static const cfg_memset_t CYCODE cfg_memset_list[] = {
 494:Generated_Source\PSoC4/cyfitter_cfg.c **** 			/* address, size */
 495:Generated_Source\PSoC4/cyfitter_cfg.c **** 			{(void CYFAR *)(CYDEV_UDB_P0_U0_BASE), 1024u},
 496:Generated_Source\PSoC4/cyfitter_cfg.c **** 			{(void CYFAR *)(CYDEV_UDB_DSI0_BASE), 1024u},
 497:Generated_Source\PSoC4/cyfitter_cfg.c **** 		};
 498:Generated_Source\PSoC4/cyfitter_cfg.c **** 
 499:Generated_Source\PSoC4/cyfitter_cfg.c **** 		uint8 CYDATA i;
 500:Generated_Source\PSoC4/cyfitter_cfg.c **** 
 501:Generated_Source\PSoC4/cyfitter_cfg.c **** 		/* Zero out critical memory blocks before beginning configuration */
 502:Generated_Source\PSoC4/cyfitter_cfg.c **** 		for (i = 0u; i < (sizeof(cfg_memset_list)/sizeof(cfg_memset_list[0])); i++)
 369              		.loc 1 502 0
 370 00f4 0024     		movs	r4, #0
 371 00f6 0FE0     		b	.L19
 372              	.LVL25:
 373              	.L20:
 374              	.LBB4:
 503:Generated_Source\PSoC4/cyfitter_cfg.c **** 		{
 504:Generated_Source\PSoC4/cyfitter_cfg.c **** 			const cfg_memset_t CYCODE * CYDATA ms = &cfg_memset_list[i];
 505:Generated_Source\PSoC4/cyfitter_cfg.c **** 			CYMEMZERO(ms->address, (size_t)(uint32)(ms->size));
 375              		.loc 1 505 0 discriminator 3
 376 00f8 3248     		ldr	r0, .L21
 377 00fa 6200     		lsls	r2, r4, #1
 378 00fc 1319     		adds	r3, r2, r4
 379 00fe 5900     		lsls	r1, r3, #1
 380 0100 0B00     		movs	r3, r1
 381 0102 4118     		adds	r1, r0, r1
 382 0104 8988     		ldrh	r1, [r1, #4]
 383 0106 1A5A     		ldrh	r2, [r3, r0]
 384 0108 C318     		adds	r3, r0, r3
 385 010a 5888     		ldrh	r0, [r3, #2]
 386 010c 0004     		lsls	r0, r0, #16
 387 010e 1043     		orrs	r0, r2
 388 0110 FFF7FEFF 		bl	CYMEMZERO
 389              	.LVL26:
 390              	.LBE4:
 502:Generated_Source\PSoC4/cyfitter_cfg.c **** 		{
 391              		.loc 1 502 0 discriminator 3
 392 0114 0134     		adds	r4, r4, #1
 393              	.LVL27:
 394 0116 E4B2     		uxtb	r4, r4
 395              	.LVL28:
 396              	.L19:
ARM GAS  C:\Users\MIHAILO\AppData\Local\Temp\ccjACuX6.s 			page 17


 502:Generated_Source\PSoC4/cyfitter_cfg.c **** 		{
 397              		.loc 1 502 0 is_stmt 0 discriminator 1
 398 0118 012C     		cmp	r4, #1
 399 011a EDD9     		bls	.L20
 506:Generated_Source\PSoC4/cyfitter_cfg.c **** 		}
 507:Generated_Source\PSoC4/cyfitter_cfg.c **** 
 508:Generated_Source\PSoC4/cyfitter_cfg.c **** 		cfg_write_bytes32(cy_cfg_addr_table, cy_cfg_data_table);
 400              		.loc 1 508 0 is_stmt 1
 401 011c 2949     		ldr	r1, .L21
 402 011e 0C31     		adds	r1, r1, #12
 403 0120 2948     		ldr	r0, .L21+4
 404 0122 0C30     		adds	r0, r0, #12
 405 0124 FFF7FEFF 		bl	cfg_write_bytes32
 406              	.LVL29:
 509:Generated_Source\PSoC4/cyfitter_cfg.c **** 
 510:Generated_Source\PSoC4/cyfitter_cfg.c **** 		/* HSIOM Starting address: CYDEV_HSIOM_BASE */
 511:Generated_Source\PSoC4/cyfitter_cfg.c **** 		CY_SET_REG32((void *)(CYDEV_HSIOM_BASE), 0x00300003u);
 407              		.loc 1 511 0
 408 0128 284A     		ldr	r2, .L21+8
 409 012a 294B     		ldr	r3, .L21+12
 410 012c 1A60     		str	r2, [r3]
 512:Generated_Source\PSoC4/cyfitter_cfg.c **** 		CY_SET_REG32((void *)(CYREG_HSIOM_PORT_SEL1), 0x00000003u);
 411              		.loc 1 512 0
 412 012e 0322     		movs	r2, #3
 413 0130 284B     		ldr	r3, .L21+16
 414 0132 1A60     		str	r2, [r3]
 513:Generated_Source\PSoC4/cyfitter_cfg.c **** 		CY_SET_REG32((void *)(CYREG_HSIOM_PORT_SEL3), 0x3030EEEEu);
 415              		.loc 1 513 0
 416 0134 284A     		ldr	r2, .L21+20
 417 0136 294B     		ldr	r3, .L21+24
 418 0138 1A60     		str	r2, [r3]
 514:Generated_Source\PSoC4/cyfitter_cfg.c **** 
 515:Generated_Source\PSoC4/cyfitter_cfg.c **** 		/* UDB_PA_0 Starting address: CYDEV_UDB_PA0_BASE */
 516:Generated_Source\PSoC4/cyfitter_cfg.c **** 		CY_SET_REG32((void *)(CYDEV_UDB_PA0_BASE), 0x00990000u);
 419              		.loc 1 516 0
 420 013a 9923     		movs	r3, #153
 421 013c 1B04     		lsls	r3, r3, #16
 422 013e 284A     		ldr	r2, .L21+28
 423 0140 1360     		str	r3, [r2]
 517:Generated_Source\PSoC4/cyfitter_cfg.c **** 		CY_SET_REG32((void *)(CYREG_UDB_PA0_CFG8), 0x51030000u);
 424              		.loc 1 517 0
 425 0142 2849     		ldr	r1, .L21+32
 426 0144 284A     		ldr	r2, .L21+36
 427 0146 1160     		str	r1, [r2]
 518:Generated_Source\PSoC4/cyfitter_cfg.c **** 
 519:Generated_Source\PSoC4/cyfitter_cfg.c **** 		/* UDB_PA_1 Starting address: CYDEV_UDB_PA1_BASE */
 520:Generated_Source\PSoC4/cyfitter_cfg.c **** 		CY_SET_REG32((void *)(CYDEV_UDB_PA1_BASE), 0x00990000u);
 428              		.loc 1 520 0
 429 0148 284A     		ldr	r2, .L21+40
 430 014a 1360     		str	r3, [r2]
 521:Generated_Source\PSoC4/cyfitter_cfg.c **** 		CY_SET_REG32((void *)(CYREG_UDB_PA1_CFG8), 0x00540000u);
 431              		.loc 1 521 0
 432 014c A821     		movs	r1, #168
 433 014e C903     		lsls	r1, r1, #15
 434 0150 274A     		ldr	r2, .L21+44
 435 0152 1160     		str	r1, [r2]
 522:Generated_Source\PSoC4/cyfitter_cfg.c **** 
ARM GAS  C:\Users\MIHAILO\AppData\Local\Temp\ccjACuX6.s 			page 18


 523:Generated_Source\PSoC4/cyfitter_cfg.c **** 		/* UDB_PA_2 Starting address: CYDEV_UDB_PA2_BASE */
 524:Generated_Source\PSoC4/cyfitter_cfg.c **** 		CY_SET_REG32((void *)(CYDEV_UDB_PA2_BASE), 0x00990000u);
 436              		.loc 1 524 0
 437 0154 274A     		ldr	r2, .L21+48
 438 0156 1360     		str	r3, [r2]
 525:Generated_Source\PSoC4/cyfitter_cfg.c **** 
 526:Generated_Source\PSoC4/cyfitter_cfg.c **** 		/* UDB_PA_3 Starting address: CYDEV_UDB_PA3_BASE */
 527:Generated_Source\PSoC4/cyfitter_cfg.c **** 		CY_SET_REG32((void *)(CYDEV_UDB_PA3_BASE), 0x00990000u);
 439              		.loc 1 527 0
 440 0158 274A     		ldr	r2, .L21+52
 441 015a 1360     		str	r3, [r2]
 528:Generated_Source\PSoC4/cyfitter_cfg.c **** 		CY_SET_REG32((void *)(CYREG_UDB_PA3_CFG8), 0x26000000u);
 442              		.loc 1 528 0
 443 015c 9822     		movs	r2, #152
 444 015e 9205     		lsls	r2, r2, #22
 445 0160 264B     		ldr	r3, .L21+56
 446 0162 1A60     		str	r2, [r3]
 529:Generated_Source\PSoC4/cyfitter_cfg.c **** 
 530:Generated_Source\PSoC4/cyfitter_cfg.c **** 		/* Enable UDB array and digital routing */
 531:Generated_Source\PSoC4/cyfitter_cfg.c **** 		CY_SET_XTND_REG8((void *)CYREG_UDB_UDBIF_WAIT_CFG, (uint8)((CY_GET_XTND_REG8((void *)CYREG_UDB_UD
 447              		.loc 1 531 0
 448 0164 2649     		ldr	r1, .L21+60
 449 0166 0B78     		ldrb	r3, [r1]
 450 0168 3C22     		movs	r2, #60
 451 016a 9343     		bics	r3, r2
 452 016c 1422     		movs	r2, #20
 453 016e 1343     		orrs	r3, r2
 454 0170 DBB2     		uxtb	r3, r3
 455 0172 0B70     		strb	r3, [r1]
 532:Generated_Source\PSoC4/cyfitter_cfg.c **** 		CY_SET_XTND_REG8((void *)CYREG_UDB_UDBIF_BANK_CTL, (uint8)(CY_GET_XTND_REG8((void *)CYREG_UDB_UDB
 456              		.loc 1 532 0
 457 0174 234A     		ldr	r2, .L21+64
 458 0176 1178     		ldrb	r1, [r2]
 459 0178 1623     		movs	r3, #22
 460 017a 0B43     		orrs	r3, r1
 461 017c DBB2     		uxtb	r3, r3
 462 017e 1370     		strb	r3, [r2]
 463              	.LBE3:
 533:Generated_Source\PSoC4/cyfitter_cfg.c **** 	}
 534:Generated_Source\PSoC4/cyfitter_cfg.c **** 
 535:Generated_Source\PSoC4/cyfitter_cfg.c **** 	/* Perform second pass device configuration. These items must be configured in specific order afte
 536:Generated_Source\PSoC4/cyfitter_cfg.c **** 	/* IOPINS0_0 Starting address: CYDEV_PRT0_BASE */
 537:Generated_Source\PSoC4/cyfitter_cfg.c **** 	CY_SET_REG32((void *)(CYDEV_PRT0_BASE), 0x00000071u);
 464              		.loc 1 537 0
 465 0180 7122     		movs	r2, #113
 466 0182 214B     		ldr	r3, .L21+68
 467 0184 1A60     		str	r2, [r3]
 538:Generated_Source\PSoC4/cyfitter_cfg.c **** 	CY_SET_REG32((void *)(CYREG_PRT0_PC), 0x000B2006u);
 468              		.loc 1 538 0
 469 0186 214A     		ldr	r2, .L21+72
 470 0188 214B     		ldr	r3, .L21+76
 471 018a 1A60     		str	r2, [r3]
 539:Generated_Source\PSoC4/cyfitter_cfg.c **** 
 540:Generated_Source\PSoC4/cyfitter_cfg.c **** 	/* IOPINS0_1 Starting address: CYDEV_PRT1_BASE */
 541:Generated_Source\PSoC4/cyfitter_cfg.c **** 	CY_SET_REG32((void *)(CYDEV_PRT1_BASE), 0x00000001u);
 472              		.loc 1 541 0
 473 018c 0123     		movs	r3, #1
ARM GAS  C:\Users\MIHAILO\AppData\Local\Temp\ccjACuX6.s 			page 19


 474 018e 214A     		ldr	r2, .L21+80
 475 0190 1360     		str	r3, [r2]
 542:Generated_Source\PSoC4/cyfitter_cfg.c **** 	CY_SET_REG32((void *)(CYREG_PRT1_PC), 0x00000006u);
 476              		.loc 1 542 0
 477 0192 0621     		movs	r1, #6
 478 0194 204A     		ldr	r2, .L21+84
 479 0196 1160     		str	r1, [r2]
 543:Generated_Source\PSoC4/cyfitter_cfg.c **** 	CY_SET_REG32((void *)(CYREG_PRT1_PC2), 0x00000080u);
 480              		.loc 1 543 0
 481 0198 7A31     		adds	r1, r1, #122
 482 019a 204A     		ldr	r2, .L21+88
 483 019c 1160     		str	r1, [r2]
 544:Generated_Source\PSoC4/cyfitter_cfg.c **** 
 545:Generated_Source\PSoC4/cyfitter_cfg.c **** 	/* IOPINS0_2 Starting address: CYDEV_PRT2_BASE */
 546:Generated_Source\PSoC4/cyfitter_cfg.c **** 	CY_SET_REG32((void *)(CYDEV_PRT2_BASE), 0x00000001u);
 484              		.loc 1 546 0
 485 019e 204A     		ldr	r2, .L21+92
 486 01a0 1360     		str	r3, [r2]
 547:Generated_Source\PSoC4/cyfitter_cfg.c **** 	CY_SET_REG32((void *)(CYREG_PRT2_PC), 0x00DB6DB0u);
 487              		.loc 1 547 0
 488 01a2 2049     		ldr	r1, .L21+96
 489 01a4 204A     		ldr	r2, .L21+100
 490 01a6 1160     		str	r1, [r2]
 548:Generated_Source\PSoC4/cyfitter_cfg.c **** 	CY_SET_REG32((void *)(CYREG_PRT2_PC2), 0x00000001u);
 491              		.loc 1 548 0
 492 01a8 204A     		ldr	r2, .L21+104
 493 01aa 1360     		str	r3, [r2]
 549:Generated_Source\PSoC4/cyfitter_cfg.c **** 
 550:Generated_Source\PSoC4/cyfitter_cfg.c **** 	/* IOPINS0_3 Starting address: CYDEV_PRT3_BASE */
 551:Generated_Source\PSoC4/cyfitter_cfg.c **** 	CY_SET_REG32((void *)(CYDEV_PRT3_BASE), 0x000000F3u);
 494              		.loc 1 551 0
 495 01ac F322     		movs	r2, #243
 496 01ae 204B     		ldr	r3, .L21+108
 497 01b0 1A60     		str	r2, [r3]
 552:Generated_Source\PSoC4/cyfitter_cfg.c **** 	CY_SET_REG32((void *)(CYREG_PRT3_PC), 0x00CB2DA4u);
 498              		.loc 1 552 0
 499 01b2 204A     		ldr	r2, .L21+112
 500 01b4 204B     		ldr	r3, .L21+116
 501 01b6 1A60     		str	r2, [r3]
 553:Generated_Source\PSoC4/cyfitter_cfg.c **** 
 554:Generated_Source\PSoC4/cyfitter_cfg.c **** 
 555:Generated_Source\PSoC4/cyfitter_cfg.c **** 	/* Setup clocks based on selections from Clock DWR */
 556:Generated_Source\PSoC4/cyfitter_cfg.c **** 	ClockSetup();
 502              		.loc 1 556 0
 503 01b8 FFF722FF 		bl	ClockSetup
 504              	.LVL30:
 557:Generated_Source\PSoC4/cyfitter_cfg.c **** 
 558:Generated_Source\PSoC4/cyfitter_cfg.c **** 	/* Perform basic analog initialization to defaults */
 559:Generated_Source\PSoC4/cyfitter_cfg.c **** 	AnalogSetDefault();
 505              		.loc 1 559 0
 506 01bc FFF7FEFF 		bl	AnalogSetDefault
 507              	.LVL31:
 560:Generated_Source\PSoC4/cyfitter_cfg.c **** 
 561:Generated_Source\PSoC4/cyfitter_cfg.c **** }
 508              		.loc 1 561 0
 509              		@ sp needed
 510              	.LVL32:
ARM GAS  C:\Users\MIHAILO\AppData\Local\Temp\ccjACuX6.s 			page 20


 511 01c0 10BD     		pop	{r4, pc}
 512              	.L22:
 513 01c2 C046     		.align	2
 514              	.L21:
 515 01c4 00000000 		.word	.LANCHOR0
 516 01c8 00010000 		.word	.LANCHOR1
 517 01cc 03003000 		.word	3145731
 518 01d0 00000140 		.word	1073807360
 519 01d4 04000140 		.word	1073807364
 520 01d8 EEEE3030 		.word	808513262
 521 01dc 0C000140 		.word	1073807372
 522 01e0 00500F40 		.word	1074745344
 523 01e4 00000351 		.word	1359151104
 524 01e8 08500F40 		.word	1074745352
 525 01ec 10500F40 		.word	1074745360
 526 01f0 18500F40 		.word	1074745368
 527 01f4 20500F40 		.word	1074745376
 528 01f8 30500F40 		.word	1074745392
 529 01fc 38500F40 		.word	1074745400
 530 0200 01700F40 		.word	1074753537
 531 0204 00700F40 		.word	1074753536
 532 0208 00000440 		.word	1074003968
 533 020c 06200B00 		.word	729094
 534 0210 08000440 		.word	1074003976
 535 0214 00010440 		.word	1074004224
 536 0218 08010440 		.word	1074004232
 537 021c 18010440 		.word	1074004248
 538 0220 00020440 		.word	1074004480
 539 0224 B06DDB00 		.word	14380464
 540 0228 08020440 		.word	1074004488
 541 022c 18020440 		.word	1074004504
 542 0230 00030440 		.word	1074004736
 543 0234 A42DCB00 		.word	13315492
 544 0238 08030440 		.word	1074004744
 545              		.cfi_endproc
 546              	.LFE7:
 547              		.size	cyfitter_cfg, .-cyfitter_cfg
 548              		.section	.rodata
 549              		.align	2
 550              		.set	.LANCHOR0,. + 0
 551              		.set	.LANCHOR1,. + 256
 552              		.type	cfg_memset_list.4876, %object
 553              		.size	cfg_memset_list.4876, 12
 554              	cfg_memset_list.4876:
 555 0000 00300F40 		.word	1074737152
 556 0004 0004     		.short	1024
 557 0006 00400F40 		.4byte	1074741248
 558 000a 0004     		.short	1024
 559              		.type	cy_cfg_data_table.4871, %object
 560              		.size	cy_cfg_data_table.4871, 256
 561              	cy_cfg_data_table.4871:
 562 000c 81       		.byte	-127
 563 000d 08       		.byte	8
 564 000e 87       		.byte	-121
 565 000f 40       		.byte	64
 566 0010 02       		.byte	2
 567 0011 03       		.byte	3
ARM GAS  C:\Users\MIHAILO\AppData\Local\Temp\ccjACuX6.s 			page 21


 568 0012 0E       		.byte	14
 569 0013 08       		.byte	8
 570 0014 10       		.byte	16
 571 0015 01       		.byte	1
 572 0016 1A       		.byte	26
 573 0017 0C       		.byte	12
 574 0018 1E       		.byte	30
 575 0019 02       		.byte	2
 576 001a 20       		.byte	32
 577 001b 04       		.byte	4
 578 001c 30       		.byte	48
 579 001d 03       		.byte	3
 580 001e 34       		.byte	52
 581 001f 0C       		.byte	12
 582 0020 3A       		.byte	58
 583 0021 0C       		.byte	12
 584 0022 3B       		.byte	59
 585 0023 C0       		.byte	-64
 586 0024 3E       		.byte	62
 587 0025 11       		.byte	17
 588 0026 58       		.byte	88
 589 0027 04       		.byte	4
 590 0028 59       		.byte	89
 591 0029 04       		.byte	4
 592 002a 5C       		.byte	92
 593 002b 02       		.byte	2
 594 002c 5F       		.byte	95
 595 002d 01       		.byte	1
 596 002e 82       		.byte	-126
 597 002f 80       		.byte	-128
 598 0030 84       		.byte	-124
 599 0031 10       		.byte	16
 600 0032 87       		.byte	-121
 601 0033 08       		.byte	8
 602 0034 8A       		.byte	-118
 603 0035 0C       		.byte	12
 604 0036 8B       		.byte	-117
 605 0037 02       		.byte	2
 606 0038 8E       		.byte	-114
 607 0039 02       		.byte	2
 608 003a 92       		.byte	-110
 609 003b 30       		.byte	48
 610 003c 94       		.byte	-108
 611 003d 04       		.byte	4
 612 003e 97       		.byte	-105
 613 003f 0C       		.byte	12
 614 0040 99       		.byte	-103
 615 0041 04       		.byte	4
 616 0042 9A       		.byte	-102
 617 0043 03       		.byte	3
 618 0044 9E       		.byte	-98
 619 0045 C0       		.byte	-64
 620 0046 A0       		.byte	-96
 621 0047 01       		.byte	1
 622 0048 A6       		.byte	-90
 623 0049 20       		.byte	32
 624 004a A7       		.byte	-89
ARM GAS  C:\Users\MIHAILO\AppData\Local\Temp\ccjACuX6.s 			page 22


 625 004b 03       		.byte	3
 626 004c A9       		.byte	-87
 627 004d 01       		.byte	1
 628 004e AA       		.byte	-86
 629 004f 08       		.byte	8
 630 0050 AC       		.byte	-84
 631 0051 40       		.byte	64
 632 0052 B0       		.byte	-80
 633 0053 FF       		.byte	-1
 634 0054 B1       		.byte	-79
 635 0055 0C       		.byte	12
 636 0056 B3       		.byte	-77
 637 0057 03       		.byte	3
 638 0058 BA       		.byte	-70
 639 0059 0C       		.byte	12
 640 005a BB       		.byte	-69
 641 005b 30       		.byte	48
 642 005c BE       		.byte	-66
 643 005d 01       		.byte	1
 644 005e BF       		.byte	-65
 645 005f 05       		.byte	5
 646 0060 D8       		.byte	-40
 647 0061 04       		.byte	4
 648 0062 D9       		.byte	-39
 649 0063 04       		.byte	4
 650 0064 DB       		.byte	-37
 651 0065 04       		.byte	4
 652 0066 DC       		.byte	-36
 653 0067 13       		.byte	19
 654 0068 DF       		.byte	-33
 655 0069 01       		.byte	1
 656 006a 00       		.byte	0
 657 006b 50       		.byte	80
 658 006c 03       		.byte	3
 659 006d 60       		.byte	96
 660 006e 04       		.byte	4
 661 006f 42       		.byte	66
 662 0070 07       		.byte	7
 663 0071 02       		.byte	2
 664 0072 08       		.byte	8
 665 0073 06       		.byte	6
 666 0074 09       		.byte	9
 667 0075 60       		.byte	96
 668 0076 0D       		.byte	13
 669 0077 10       		.byte	16
 670 0078 0E       		.byte	14
 671 0079 01       		.byte	1
 672 007a 0F       		.byte	15
 673 007b 40       		.byte	64
 674 007c 10       		.byte	16
 675 007d 28       		.byte	40
 676 007e 12       		.byte	18
 677 007f 40       		.byte	64
 678 0080 13       		.byte	19
 679 0081 40       		.byte	64
 680 0082 16       		.byte	22
 681 0083 C0       		.byte	-64
ARM GAS  C:\Users\MIHAILO\AppData\Local\Temp\ccjACuX6.s 			page 23


 682 0084 18       		.byte	24
 683 0085 10       		.byte	16
 684 0086 19       		.byte	25
 685 0087 04       		.byte	4
 686 0088 1A       		.byte	26
 687 0089 80       		.byte	-128
 688 008a 1C       		.byte	28
 689 008b 04       		.byte	4
 690 008c 1E       		.byte	30
 691 008d 80       		.byte	-128
 692 008e 1F       		.byte	31
 693 008f 08       		.byte	8
 694 0090 21       		.byte	33
 695 0091 39       		.byte	57
 696 0092 24       		.byte	36
 697 0093 02       		.byte	2
 698 0094 25       		.byte	37
 699 0095 40       		.byte	64
 700 0096 28       		.byte	40
 701 0097 04       		.byte	4
 702 0098 29       		.byte	41
 703 0099 04       		.byte	4
 704 009a 2A       		.byte	42
 705 009b 20       		.byte	32
 706 009c 33       		.byte	51
 707 009d 28       		.byte	40
 708 009e 39       		.byte	57
 709 009f 14       		.byte	20
 710 00a0 68       		.byte	104
 711 00a1 28       		.byte	40
 712 00a2 69       		.byte	105
 713 00a3 14       		.byte	20
 714 00a4 6A       		.byte	106
 715 00a5 01       		.byte	1
 716 00a6 6B       		.byte	107
 717 00a7 42       		.byte	66
 718 00a8 82       		.byte	-126
 719 00a9 40       		.byte	64
 720 00aa 85       		.byte	-123
 721 00ab 01       		.byte	1
 722 00ac 86       		.byte	-122
 723 00ad 20       		.byte	32
 724 00ae 88       		.byte	-120
 725 00af 02       		.byte	2
 726 00b0 8B       		.byte	-117
 727 00b1 28       		.byte	40
 728 00b2 8C       		.byte	-116
 729 00b3 04       		.byte	4
 730 00b4 93       		.byte	-109
 731 00b5 40       		.byte	64
 732 00b6 9A       		.byte	-102
 733 00b7 80       		.byte	-128
 734 00b8 A5       		.byte	-91
 735 00b9 08       		.byte	8
 736 00ba A6       		.byte	-90
 737 00bb 40       		.byte	64
 738 00bc AE       		.byte	-82
ARM GAS  C:\Users\MIHAILO\AppData\Local\Temp\ccjACuX6.s 			page 24


 739 00bd C0       		.byte	-64
 740 00be C0       		.byte	-64
 741 00bf 9F       		.byte	-97
 742 00c0 C2       		.byte	-62
 743 00c1 DF       		.byte	-33
 744 00c2 C4       		.byte	-60
 745 00c3 1F       		.byte	31
 746 00c4 CA       		.byte	-54
 747 00c5 06       		.byte	6
 748 00c6 CC       		.byte	-52
 749 00c7 06       		.byte	6
 750 00c8 CE       		.byte	-50
 751 00c9 06       		.byte	6
 752 00ca E2       		.byte	-30
 753 00cb 08       		.byte	8
 754 00cc E4       		.byte	-28
 755 00cd 03       		.byte	3
 756 00ce E6       		.byte	-26
 757 00cf 40       		.byte	64
 758 00d0 09       		.byte	9
 759 00d1 40       		.byte	64
 760 00d2 0B       		.byte	11
 761 00d3 20       		.byte	32
 762 00d4 5A       		.byte	90
 763 00d5 02       		.byte	2
 764 00d6 5F       		.byte	95
 765 00d7 20       		.byte	32
 766 00d8 83       		.byte	-125
 767 00d9 20       		.byte	32
 768 00da 87       		.byte	-121
 769 00db 10       		.byte	16
 770 00dc C2       		.byte	-62
 771 00dd 50       		.byte	80
 772 00de D6       		.byte	-42
 773 00df 60       		.byte	96
 774 00e0 E2       		.byte	-30
 775 00e1 80       		.byte	-128
 776 00e2 E4       		.byte	-28
 777 00e3 40       		.byte	64
 778 00e4 50       		.byte	80
 779 00e5 10       		.byte	16
 780 00e6 8C       		.byte	-116
 781 00e7 10       		.byte	16
 782 00e8 AD       		.byte	-83
 783 00e9 40       		.byte	64
 784 00ea AE       		.byte	-82
 785 00eb 01       		.byte	1
 786 00ec D4       		.byte	-44
 787 00ed 20       		.byte	32
 788 00ee E8       		.byte	-24
 789 00ef 40       		.byte	64
 790 00f0 EE       		.byte	-18
 791 00f1 40       		.byte	64
 792 00f2 08       		.byte	8
 793 00f3 20       		.byte	32
 794 00f4 0B       		.byte	11
 795 00f5 10       		.byte	16
ARM GAS  C:\Users\MIHAILO\AppData\Local\Temp\ccjACuX6.s 			page 25


 796 00f6 5A       		.byte	90
 797 00f7 02       		.byte	2
 798 00f8 5E       		.byte	94
 799 00f9 02       		.byte	2
 800 00fa 82       		.byte	-126
 801 00fb 01       		.byte	1
 802 00fc 86       		.byte	-122
 803 00fd 01       		.byte	1
 804 00fe 87       		.byte	-121
 805 00ff 10       		.byte	16
 806 0100 88       		.byte	-120
 807 0101 20       		.byte	32
 808 0102 C2       		.byte	-62
 809 0103 0A       		.byte	10
 810 0104 D6       		.byte	-42
 811 0105 03       		.byte	3
 812 0106 E2       		.byte	-30
 813 0107 01       		.byte	1
 814 0108 01       		.byte	1
 815 0109 0F       		.byte	15
 816 010a 10       		.byte	16
 817 010b 0F       		.byte	15
 818              		.type	cy_cfg_addr_table.4870, %object
 819              		.size	cy_cfg_addr_table.4870, 28
 820              	cy_cfg_addr_table.4870:
 821 010c 02310F40 		.word	1074737410
 822 0110 2D320F40 		.word	1074737709
 823 0114 33330F40 		.word	1074737971
 824 0118 0A400F40 		.word	1074741258
 825 011c 07410F40 		.word	1074741511
 826 0120 0B430F40 		.word	1074742027
 827 0124 02600F40 		.word	1074749442
 828              		.text
 829              	.Letext0:
 830              		.file 2 "c:\\program files (x86)\\cypress\\psoc creator\\4.4\\psoc creator\\import\\gnu\\arm\\5.4.
 831              		.file 3 "Generated_Source\\PSoC4\\cytypes.h"
 832              		.file 4 "Generated_Source\\PSoC4\\CyLib.h"