ARM GAS  C:\Users\MIHAILO\AppData\Local\Temp\ccHAZutO.s 			page 1


   1              		.syntax unified
   2              		.cpu cortex-m0
   3              		.fpu softvfp
   4              		.eabi_attribute 20, 1
   5              		.eabi_attribute 21, 1
   6              		.eabi_attribute 23, 3
   7              		.eabi_attribute 24, 1
   8              		.eabi_attribute 25, 1
   9              		.eabi_attribute 26, 1
  10              		.eabi_attribute 30, 1
  11              		.eabi_attribute 34, 0
  12              		.eabi_attribute 18, 4
  13              		.thumb
  14              		.syntax unified
  15              		.file	"main.c"
  16              		.text
  17              	.Ltext0:
  18              		.cfi_sections	.debug_frame
  19              		.section	.text.set_speed,"ax",%progbits
  20              		.align	2
  21              		.global	set_speed
  22              		.code	16
  23              		.thumb_func
  24              		.type	set_speed, %function
  25              	set_speed:
  26              	.LFB32:
  27              		.file 1 "main.c"
   1:main.c        **** /* ========================================
   2:main.c        ****  *
   3:main.c        ****  * Copyright YOUR COMPANY, THE YEAR
   4:main.c        ****  * All Rights Reserved
   5:main.c        ****  * UNPUBLISHED, LICENSED SOFTWARE.
   6:main.c        ****  *
   7:main.c        ****  * CONFIDENTIAL AND PROPRIETARY INFORMATION
   8:main.c        ****  * WHICH IS THE PROPERTY OF your company.
   9:main.c        ****  *
  10:main.c        ****  * ========================================
  11:main.c        **** */
  12:main.c        **** 
  13:main.c        **** #include "project.h"
  14:main.c        **** #define INFO_INDEX       (0x00)
  15:main.c        **** #define BUTTON_INDEX      (0x01)
  16:main.c        **** #define SPEED_INDEX       (0x02)
  17:main.c        **** 
  18:main.c        **** uint8 ezI2cBuffer[3]={0x40,0,1};
  19:main.c        **** 
  20:main.c        **** 
  21:main.c        **** void set_speed(uint8 x){
  28              		.loc 1 21 0
  29              		.cfi_startproc
  30              		@ args = 0, pretend = 0, frame = 0
  31              		@ frame_needed = 0, uses_anonymous_args = 0
  32              		@ link register save eliminated.
  33              	.LVL0:
  22:main.c        ****     ezI2cBuffer[SPEED_INDEX]=x;
  34              		.loc 1 22 0
  35 0000 014B     		ldr	r3, .L2
ARM GAS  C:\Users\MIHAILO\AppData\Local\Temp\ccHAZutO.s 			page 2


  36 0002 9870     		strb	r0, [r3, #2]
  23:main.c        **** }
  37              		.loc 1 23 0
  38              		@ sp needed
  39 0004 7047     		bx	lr
  40              	.L3:
  41 0006 C046     		.align	2
  42              	.L2:
  43 0008 00000000 		.word	.LANCHOR0
  44              		.cfi_endproc
  45              	.LFE32:
  46              		.size	set_speed, .-set_speed
  47              		.section	.text.set_button,"ax",%progbits
  48              		.align	2
  49              		.global	set_button
  50              		.code	16
  51              		.thumb_func
  52              		.type	set_button, %function
  53              	set_button:
  54              	.LFB33:
  24:main.c        **** 
  25:main.c        **** void set_button(uint8 x){
  55              		.loc 1 25 0
  56              		.cfi_startproc
  57              		@ args = 0, pretend = 0, frame = 0
  58              		@ frame_needed = 0, uses_anonymous_args = 0
  59              		@ link register save eliminated.
  60              	.LVL1:
  26:main.c        ****     ezI2cBuffer[BUTTON_INDEX]=x;
  61              		.loc 1 26 0
  62 0000 014B     		ldr	r3, .L5
  63 0002 5870     		strb	r0, [r3, #1]
  27:main.c        ****    }
  64              		.loc 1 27 0
  65              		@ sp needed
  66 0004 7047     		bx	lr
  67              	.L6:
  68 0006 C046     		.align	2
  69              	.L5:
  70 0008 00000000 		.word	.LANCHOR0
  71              		.cfi_endproc
  72              	.LFE33:
  73              		.size	set_button, .-set_button
  74              		.section	.text.get_led_status,"ax",%progbits
  75              		.align	2
  76              		.global	get_led_status
  77              		.code	16
  78              		.thumb_func
  79              		.type	get_led_status, %function
  80              	get_led_status:
  81              	.LFB34:
  28:main.c        **** 
  29:main.c        **** uint8 get_led_status(){
  82              		.loc 1 29 0
  83              		.cfi_startproc
  84              		@ args = 0, pretend = 0, frame = 0
  85              		@ frame_needed = 0, uses_anonymous_args = 0
ARM GAS  C:\Users\MIHAILO\AppData\Local\Temp\ccHAZutO.s 			page 3


  86              		@ link register save eliminated.
  30:main.c        ****     
  31:main.c        ****     return ezI2cBuffer[INFO_INDEX] & 15;
  87              		.loc 1 31 0
  88 0000 024B     		ldr	r3, .L8
  89 0002 1B78     		ldrb	r3, [r3]
  90 0004 0F20     		movs	r0, #15
  91 0006 1840     		ands	r0, r3
  32:main.c        ****    
  33:main.c        **** }
  92              		.loc 1 33 0
  93              		@ sp needed
  94 0008 7047     		bx	lr
  95              	.L9:
  96 000a C046     		.align	2
  97              	.L8:
  98 000c 00000000 		.word	.LANCHOR0
  99              		.cfi_endproc
 100              	.LFE34:
 101              		.size	get_led_status, .-get_led_status
 102              		.section	.text.get_pass_status,"ax",%progbits
 103              		.align	2
 104              		.global	get_pass_status
 105              		.code	16
 106              		.thumb_func
 107              		.type	get_pass_status, %function
 108              	get_pass_status:
 109              	.LFB35:
  34:main.c        **** 
  35:main.c        **** uint8 get_pass_status(){
 110              		.loc 1 35 0
 111              		.cfi_startproc
 112              		@ args = 0, pretend = 0, frame = 0
 113              		@ frame_needed = 0, uses_anonymous_args = 0
 114              		@ link register save eliminated.
  36:main.c        ****     return ezI2cBuffer[INFO_INDEX] & 32;
 115              		.loc 1 36 0
 116 0000 024B     		ldr	r3, .L11
 117 0002 1B78     		ldrb	r3, [r3]
 118 0004 2020     		movs	r0, #32
 119 0006 1840     		ands	r0, r3
  37:main.c        **** }  
 120              		.loc 1 37 0
 121              		@ sp needed
 122 0008 7047     		bx	lr
 123              	.L12:
 124 000a C046     		.align	2
 125              	.L11:
 126 000c 00000000 		.word	.LANCHOR0
 127              		.cfi_endproc
 128              	.LFE35:
 129              		.size	get_pass_status, .-get_pass_status
 130              		.section	.text.get_fail_status,"ax",%progbits
 131              		.align	2
 132              		.global	get_fail_status
 133              		.code	16
 134              		.thumb_func
ARM GAS  C:\Users\MIHAILO\AppData\Local\Temp\ccHAZutO.s 			page 4


 135              		.type	get_fail_status, %function
 136              	get_fail_status:
 137              	.LFB36:
  38:main.c        **** 
  39:main.c        **** uint8 get_fail_status(){
 138              		.loc 1 39 0
 139              		.cfi_startproc
 140              		@ args = 0, pretend = 0, frame = 0
 141              		@ frame_needed = 0, uses_anonymous_args = 0
 142              		@ link register save eliminated.
  40:main.c        ****     return ezI2cBuffer[INFO_INDEX] & 16;
 143              		.loc 1 40 0
 144 0000 024B     		ldr	r3, .L14
 145 0002 1B78     		ldrb	r3, [r3]
 146 0004 1020     		movs	r0, #16
 147 0006 1840     		ands	r0, r3
  41:main.c        **** } 
 148              		.loc 1 41 0
 149              		@ sp needed
 150 0008 7047     		bx	lr
 151              	.L15:
 152 000a C046     		.align	2
 153              	.L14:
 154 000c 00000000 		.word	.LANCHOR0
 155              		.cfi_endproc
 156              	.LFE36:
 157              		.size	get_fail_status, .-get_fail_status
 158              		.section	.text.make_init,"ax",%progbits
 159              		.align	2
 160              		.global	make_init
 161              		.code	16
 162              		.thumb_func
 163              		.type	make_init, %function
 164              	make_init:
 165              	.LFB37:
  42:main.c        **** 
  43:main.c        **** void make_init(){
 166              		.loc 1 43 0
 167              		.cfi_startproc
 168              		@ args = 0, pretend = 0, frame = 0
 169              		@ frame_needed = 0, uses_anonymous_args = 0
 170              		@ link register save eliminated.
  44:main.c        ****     ezI2cBuffer[INFO_INDEX]=ezI2cBuffer[INFO_INDEX] & 191;
 171              		.loc 1 44 0
 172 0000 024A     		ldr	r2, .L17
 173 0002 1378     		ldrb	r3, [r2]
 174 0004 4021     		movs	r1, #64
 175 0006 8B43     		bics	r3, r1
 176 0008 1370     		strb	r3, [r2]
  45:main.c        **** }
 177              		.loc 1 45 0
 178              		@ sp needed
 179 000a 7047     		bx	lr
 180              	.L18:
 181              		.align	2
 182              	.L17:
 183 000c 00000000 		.word	.LANCHOR0
ARM GAS  C:\Users\MIHAILO\AppData\Local\Temp\ccHAZutO.s 			page 5


 184              		.cfi_endproc
 185              	.LFE37:
 186              		.size	make_init, .-make_init
 187              		.section	.text.set_init,"ax",%progbits
 188              		.align	2
 189              		.global	set_init
 190              		.code	16
 191              		.thumb_func
 192              		.type	set_init, %function
 193              	set_init:
 194              	.LFB38:
  46:main.c        **** 
  47:main.c        **** void set_init(){
 195              		.loc 1 47 0
 196              		.cfi_startproc
 197              		@ args = 0, pretend = 0, frame = 0
 198              		@ frame_needed = 0, uses_anonymous_args = 0
 199              		@ link register save eliminated.
  48:main.c        ****     ezI2cBuffer[INFO_INDEX]=128;
 200              		.loc 1 48 0
 201 0000 8022     		movs	r2, #128
 202 0002 014B     		ldr	r3, .L20
 203 0004 1A70     		strb	r2, [r3]
  49:main.c        **** }
 204              		.loc 1 49 0
 205              		@ sp needed
 206 0006 7047     		bx	lr
 207              	.L21:
 208              		.align	2
 209              	.L20:
 210 0008 00000000 		.word	.LANCHOR0
 211              		.cfi_endproc
 212              	.LFE38:
 213              		.size	set_init, .-set_init
 214              		.section	.text.speedf,"ax",%progbits
 215              		.align	2
 216              		.global	speedf
 217              		.code	16
 218              		.thumb_func
 219              		.type	speedf, %function
 220              	speedf:
 221              	.LFB39:
  50:main.c        **** 
  51:main.c        **** #define POT_CHAN (0)
  52:main.c        **** int16 counts = 0;
  53:main.c        **** int16 mVolts = 0; 
  54:main.c        **** uint8 speed = 0;
  55:main.c        **** 
  56:main.c        ****   int speedf(){
 222              		.loc 1 56 0
 223              		.cfi_startproc
 224              		@ args = 0, pretend = 0, frame = 0
 225              		@ frame_needed = 0, uses_anonymous_args = 0
 226 0000 10B5     		push	{r4, lr}
 227              		.cfi_def_cfa_offset 8
 228              		.cfi_offset 4, -8
 229              		.cfi_offset 14, -4
ARM GAS  C:\Users\MIHAILO\AppData\Local\Temp\ccHAZutO.s 			page 6


  57:main.c        ****   counts = ADC_GetResult16(POT_CHAN);
 230              		.loc 1 57 0
 231 0002 0020     		movs	r0, #0
 232 0004 FFF7FEFF 		bl	ADC_GetResult16
 233              	.LVL2:
 234 0008 0100     		movs	r1, r0
 235 000a 194C     		ldr	r4, .L29
 236 000c 2080     		strh	r0, [r4]
  58:main.c        ****   mVolts = ADC_CountsTo_mVolts(POT_CHAN,counts);
 237              		.loc 1 58 0
 238 000e 0020     		movs	r0, #0
 239 0010 FFF7FEFF 		bl	ADC_CountsTo_mVolts
 240              	.LVL3:
 241 0014 6080     		strh	r0, [r4, #2]
  59:main.c        ****             if (mVolts <= 5){
 242              		.loc 1 59 0
 243 0016 0528     		cmp	r0, #5
 244 0018 03DC     		bgt	.L23
  60:main.c        ****                 speed = 1;
 245              		.loc 1 60 0
 246 001a 0122     		movs	r2, #1
 247 001c 144B     		ldr	r3, .L29
 248 001e 1A71     		strb	r2, [r3, #4]
 249 0020 0BE0     		b	.L24
 250              	.L23:
  61:main.c        ****             }else if (mVolts > 5 && mVolts < 1000 ){
 251              		.loc 1 61 0
 252 0022 0638     		subs	r0, r0, #6
 253 0024 80B2     		uxth	r0, r0
 254 0026 134B     		ldr	r3, .L29+4
 255 0028 9842     		cmp	r0, r3
 256 002a 03D8     		bhi	.L25
  62:main.c        ****                 speed = 2; 
 257              		.loc 1 62 0
 258 002c 0222     		movs	r2, #2
 259 002e 104B     		ldr	r3, .L29
 260 0030 1A71     		strb	r2, [r3, #4]
 261 0032 02E0     		b	.L24
 262              	.L25:
  63:main.c        ****             }else{
  64:main.c        ****             speed = 4;}
 263              		.loc 1 64 0
 264 0034 0422     		movs	r2, #4
 265 0036 0E4B     		ldr	r3, .L29
 266 0038 1A71     		strb	r2, [r3, #4]
 267              	.L24:
  65:main.c        ****         
  66:main.c        ****  LCD_Position(0,0);
 268              		.loc 1 66 0
 269 003a 0021     		movs	r1, #0
 270 003c 0020     		movs	r0, #0
 271 003e FFF7FEFF 		bl	LCD_Position
 272              	.LVL4:
  67:main.c        **** if (speed == 1){
 273              		.loc 1 67 0
 274 0042 0B4B     		ldr	r3, .L29
 275 0044 1B79     		ldrb	r3, [r3, #4]
ARM GAS  C:\Users\MIHAILO\AppData\Local\Temp\ccHAZutO.s 			page 7


 276 0046 012B     		cmp	r3, #1
 277 0048 03D1     		bne	.L26
  68:main.c        ****     LCD_PrintString("SLOW");}
 278              		.loc 1 68 0
 279 004a 0B48     		ldr	r0, .L29+8
 280 004c FFF7FEFF 		bl	LCD_PrintString
 281              	.LVL5:
 282 0050 08E0     		b	.L27
 283              	.L26:
  69:main.c        **** else if (speed == 2) {
 284              		.loc 1 69 0
 285 0052 022B     		cmp	r3, #2
 286 0054 03D1     		bne	.L28
  70:main.c        ****     LCD_PrintString("MED");
 287              		.loc 1 70 0
 288 0056 0948     		ldr	r0, .L29+12
 289 0058 FFF7FEFF 		bl	LCD_PrintString
 290              	.LVL6:
 291 005c 02E0     		b	.L27
 292              	.L28:
  71:main.c        **** }else {
  72:main.c        ****     LCD_PrintString("FAST");}
 293              		.loc 1 72 0
 294 005e 0848     		ldr	r0, .L29+16
 295 0060 FFF7FEFF 		bl	LCD_PrintString
 296              	.LVL7:
 297              	.L27:
  73:main.c        ****     LCD_PrintString("    ");
 298              		.loc 1 73 0
 299 0064 0748     		ldr	r0, .L29+20
 300 0066 FFF7FEFF 		bl	LCD_PrintString
 301              	.LVL8:
  74:main.c        **** 
  75:main.c        **** 
  76:main.c        ****     return speed;}
 302              		.loc 1 76 0
 303 006a 014B     		ldr	r3, .L29
 304 006c 1879     		ldrb	r0, [r3, #4]
 305              		@ sp needed
 306 006e 10BD     		pop	{r4, pc}
 307              	.L30:
 308              		.align	2
 309              	.L29:
 310 0070 00000000 		.word	.LANCHOR1
 311 0074 E1030000 		.word	993
 312 0078 00000000 		.word	.LC8
 313 007c 08000000 		.word	.LC10
 314 0080 0C000000 		.word	.LC12
 315 0084 14000000 		.word	.LC14
 316              		.cfi_endproc
 317              	.LFE39:
 318              		.size	speedf, .-speedf
 319              		.section	.text.butPressed,"ax",%progbits
 320              		.align	2
 321              		.global	butPressed
 322              		.code	16
 323              		.thumb_func
ARM GAS  C:\Users\MIHAILO\AppData\Local\Temp\ccHAZutO.s 			page 8


 324              		.type	butPressed, %function
 325              	butPressed:
 326              	.LFB40:
  77:main.c        **** 
  78:main.c        **** uint8 butPressed(void)
  79:main.c        **** {
 327              		.loc 1 79 0
 328              		.cfi_startproc
 329              		@ args = 0, pretend = 0, frame = 0
 330              		@ frame_needed = 0, uses_anonymous_args = 0
 331 0000 70B5     		push	{r4, r5, r6, lr}
 332              		.cfi_def_cfa_offset 16
 333              		.cfi_offset 4, -16
 334              		.cfi_offset 5, -12
 335              		.cfi_offset 6, -8
 336              		.cfi_offset 14, -4
 337              	.LVL9:
  80:main.c        ****        uint8 but_status = 0;
  81:main.c        **** 
  82:main.c        ****         // button #1
  83:main.c        ****         but_status = but_status | But1_Read();
 338              		.loc 1 83 0
 339 0002 FFF7FEFF 		bl	But1_Read
 340              	.LVL10:
 341 0006 0500     		movs	r5, r0
 342              	.LVL11:
  84:main.c        ****         
  85:main.c        ****         // button #2
  86:main.c        ****         but_status = but_status | (But2_Read() << 0x01);
 343              		.loc 1 86 0
 344 0008 FFF7FEFF 		bl	But2_Read
 345              	.LVL12:
 346 000c 4400     		lsls	r4, r0, #1
 347 000e 2543     		orrs	r5, r4
 348              	.LVL13:
 349 0010 6CB2     		sxtb	r4, r5
 350              	.LVL14:
  87:main.c        ****         
  88:main.c        ****         // button #3
  89:main.c        ****         but_status = but_status | (But3_Read() << 0x02);
 351              		.loc 1 89 0
 352 0012 FFF7FEFF 		bl	But3_Read
 353              	.LVL15:
 354 0016 8300     		lsls	r3, r0, #2
 355 0018 2343     		orrs	r3, r4
 356 001a 5CB2     		sxtb	r4, r3
 357              	.LVL16:
  90:main.c        ****         
  91:main.c        ****         // button #4
  92:main.c        ****         but_status = but_status | (But4_Read() << 0x03);
 358              		.loc 1 92 0
 359 001c FFF7FEFF 		bl	But4_Read
 360              	.LVL17:
 361 0020 C300     		lsls	r3, r0, #3
 362 0022 2343     		orrs	r3, r4
 363 0024 DBB2     		uxtb	r3, r3
 364              	.LVL18:
ARM GAS  C:\Users\MIHAILO\AppData\Local\Temp\ccHAZutO.s 			page 9


  93:main.c        ****     
  94:main.c        ****     return (~but_status) &0x0F;
 365              		.loc 1 94 0
 366 0026 0F20     		movs	r0, #15
 367 0028 9843     		bics	r0, r3
  95:main.c        **** }
 368              		.loc 1 95 0
 369              		@ sp needed
 370 002a 70BD     		pop	{r4, r5, r6, pc}
 371              		.cfi_endproc
 372              	.LFE40:
 373              		.size	butPressed, .-butPressed
 374              		.section	.text.main,"ax",%progbits
 375              		.align	2
 376              		.global	main
 377              		.code	16
 378              		.thumb_func
 379              		.type	main, %function
 380              	main:
 381              	.LFB41:
  96:main.c        **** int main(void)
  97:main.c        **** {
 382              		.loc 1 97 0
 383              		.cfi_startproc
 384              		@ args = 0, pretend = 0, frame = 0
 385              		@ frame_needed = 0, uses_anonymous_args = 0
 386 0000 10B5     		push	{r4, lr}
 387              		.cfi_def_cfa_offset 8
 388              		.cfi_offset 4, -8
 389              		.cfi_offset 14, -4
  98:main.c        ****     uint8 led_status;
  99:main.c        ****     CyGlobalIntEnable; /* Enable global interrupts. */
 390              		.loc 1 99 0
 391              		.syntax divided
 392              	@ 99 "main.c" 1
 393 0002 62B6     		CPSIE   i
 394              	@ 0 "" 2
 100:main.c        ****     EZI2C_EzI2CSetBuffer1(3,3,ezI2cBuffer);
 395              		.loc 1 100 0
 396              		.thumb
 397              		.syntax unified
 398 0004 2E4A     		ldr	r2, .L43
 399 0006 0321     		movs	r1, #3
 400 0008 0320     		movs	r0, #3
 401 000a FFF7FEFF 		bl	EZI2C_EzI2CSetBuffer1
 402              	.LVL19:
 101:main.c        ****     
 102:main.c        ****     
 103:main.c        ****     /* Place your initialization/startup code here (e.g. MyInst_Start()) */
 104:main.c        ****     EZI2C_Start();
 403              		.loc 1 104 0
 404 000e FFF7FEFF 		bl	EZI2C_Start
 405              	.LVL20:
 105:main.c        ****     ADC_Start();
 406              		.loc 1 105 0
 407 0012 FFF7FEFF 		bl	ADC_Start
 408              	.LVL21:
ARM GAS  C:\Users\MIHAILO\AppData\Local\Temp\ccHAZutO.s 			page 10


 106:main.c        ****     ADC_StartConvert();
 409              		.loc 1 106 0
 410 0016 FFF7FEFF 		bl	ADC_StartConvert
 411              	.LVL22:
 107:main.c        ****     LCD_Start();
 412              		.loc 1 107 0
 413 001a FFF7FEFF 		bl	LCD_Start
 414              	.LVL23:
 108:main.c        ****     make_init();
 415              		.loc 1 108 0
 416 001e FFF7FEFF 		bl	make_init
 417              	.LVL24:
 418              	.L38:
 109:main.c        ****     for(;;){
 110:main.c        ****    
 111:main.c        ****      set_speed(speedf());
 419              		.loc 1 111 0
 420 0022 FFF7FEFF 		bl	speedf
 421              	.LVL25:
 422 0026 C0B2     		uxtb	r0, r0
 423 0028 FFF7FEFF 		bl	set_speed
 424              	.LVL26:
 112:main.c        ****     led_status=butPressed();
 425              		.loc 1 112 0
 426 002c FFF7FEFF 		bl	butPressed
 427              	.LVL27:
 113:main.c        ****     set_button(led_status);
 428              		.loc 1 113 0
 429 0030 FFF7FEFF 		bl	set_button
 430              	.LVL28:
 114:main.c        ****    
 115:main.c        ****  
 116:main.c        ****         if (0u != (EZI2C_EzI2CGetActivity() & EZI2C_EZI2C_STATUS_WRITE1))
 431              		.loc 1 116 0
 432 0034 FFF7FEFF 		bl	EZI2C_EzI2CGetActivity
 433              	.LVL29:
 434 0038 0307     		lsls	r3, r0, #28
 435 003a 03D5     		bpl	.L33
 117:main.c        ****         {
 118:main.c        ****           MasterReg_Write(get_led_status());
 436              		.loc 1 118 0
 437 003c FFF7FEFF 		bl	get_led_status
 438              	.LVL30:
 439 0040 FFF7FEFF 		bl	MasterReg_Write
 440              	.LVL31:
 441              	.L33:
 119:main.c        ****           
 120:main.c        ****         }
 121:main.c        ****         if (get_fail_status()){
 442              		.loc 1 121 0
 443 0044 FFF7FEFF 		bl	get_fail_status
 444              	.LVL32:
 445 0048 0028     		cmp	r0, #0
 446 004a 08D1     		bne	.L41
 447 004c 0FE0     		b	.L35
 448              	.LVL33:
 449              	.L36:
ARM GAS  C:\Users\MIHAILO\AppData\Local\Temp\ccHAZutO.s 			page 11


 450              	.LBB2:
 122:main.c        ****            for(int i =0;i<50;i++){
 123:main.c        ****             MasterReg_Write(1);
 451              		.loc 1 123 0 discriminator 3
 452 004e 0120     		movs	r0, #1
 453 0050 FFF7FEFF 		bl	MasterReg_Write
 454              	.LVL34:
 124:main.c        ****         CyDelay(100);
 455              		.loc 1 124 0 discriminator 3
 456 0054 6420     		movs	r0, #100
 457 0056 FFF7FEFF 		bl	CyDelay
 458              	.LVL35:
 122:main.c        ****            for(int i =0;i<50;i++){
 459              		.loc 1 122 0 discriminator 3
 460 005a 0134     		adds	r4, r4, #1
 461              	.LVL36:
 462 005c 00E0     		b	.L34
 463              	.LVL37:
 464              	.L41:
 465              	.LBE2:
 466 005e 0024     		movs	r4, #0
 467              	.L34:
 468              	.LVL38:
 469              	.LBB3:
 122:main.c        ****            for(int i =0;i<50;i++){
 470              		.loc 1 122 0 is_stmt 0 discriminator 1
 471 0060 312C     		cmp	r4, #49
 472 0062 F4DD     		ble	.L36
 473              	.LBE3:
 125:main.c        ****         }
 126:main.c        ****        set_init();
 474              		.loc 1 126 0 is_stmt 1
 475 0064 FFF7FEFF 		bl	set_init
 476              	.LVL39:
 127:main.c        ****     MasterReg_Write(0);
 477              		.loc 1 127 0
 478 0068 0020     		movs	r0, #0
 479 006a FFF7FEFF 		bl	MasterReg_Write
 480              	.LVL40:
 481              	.L35:
 128:main.c        ****         }
 129:main.c        ****         if (get_pass_status()){
 482              		.loc 1 129 0
 483 006e FFF7FEFF 		bl	get_pass_status
 484              	.LVL41:
 485 0072 0028     		cmp	r0, #0
 486 0074 D5D0     		beq	.L38
 487 0076 19E0     		b	.L42
 488              	.LVL42:
 489              	.L39:
 490              	.LBB4:
 130:main.c        ****             for(int i =0;i<10;i++){
 131:main.c        ****             MasterReg_Write(1);
 491              		.loc 1 131 0 discriminator 3
 492 0078 0120     		movs	r0, #1
 493 007a FFF7FEFF 		bl	MasterReg_Write
 494              	.LVL43:
ARM GAS  C:\Users\MIHAILO\AppData\Local\Temp\ccHAZutO.s 			page 12


 132:main.c        ****        CyDelay(100);
 495              		.loc 1 132 0 discriminator 3
 496 007e 6420     		movs	r0, #100
 497 0080 FFF7FEFF 		bl	CyDelay
 498              	.LVL44:
 133:main.c        ****        MasterReg_Write(2);
 499              		.loc 1 133 0 discriminator 3
 500 0084 0220     		movs	r0, #2
 501 0086 FFF7FEFF 		bl	MasterReg_Write
 502              	.LVL45:
 134:main.c        ****         CyDelay(100);
 503              		.loc 1 134 0 discriminator 3
 504 008a 6420     		movs	r0, #100
 505 008c FFF7FEFF 		bl	CyDelay
 506              	.LVL46:
 135:main.c        ****        MasterReg_Write(4);
 507              		.loc 1 135 0 discriminator 3
 508 0090 0420     		movs	r0, #4
 509 0092 FFF7FEFF 		bl	MasterReg_Write
 510              	.LVL47:
 136:main.c        ****         CyDelay(100);
 511              		.loc 1 136 0 discriminator 3
 512 0096 6420     		movs	r0, #100
 513 0098 FFF7FEFF 		bl	CyDelay
 514              	.LVL48:
 137:main.c        ****        MasterReg_Write(8);
 515              		.loc 1 137 0 discriminator 3
 516 009c 0820     		movs	r0, #8
 517 009e FFF7FEFF 		bl	MasterReg_Write
 518              	.LVL49:
 138:main.c        ****         CyDelay(100);
 519              		.loc 1 138 0 discriminator 3
 520 00a2 6420     		movs	r0, #100
 521 00a4 FFF7FEFF 		bl	CyDelay
 522              	.LVL50:
 130:main.c        ****             MasterReg_Write(1);
 523              		.loc 1 130 0 discriminator 3
 524 00a8 0134     		adds	r4, r4, #1
 525              	.LVL51:
 526 00aa 00E0     		b	.L37
 527              	.LVL52:
 528              	.L42:
 529              	.LBE4:
 530 00ac 0024     		movs	r4, #0
 531              	.L37:
 532              	.LVL53:
 533              	.LBB5:
 130:main.c        ****             MasterReg_Write(1);
 534              		.loc 1 130 0 is_stmt 0 discriminator 1
 535 00ae 092C     		cmp	r4, #9
 536 00b0 E2DD     		ble	.L39
 537              	.LBE5:
 139:main.c        ****             }
 140:main.c        ****         set_init();
 538              		.loc 1 140 0 is_stmt 1
 539 00b2 FFF7FEFF 		bl	set_init
 540              	.LVL54:
ARM GAS  C:\Users\MIHAILO\AppData\Local\Temp\ccHAZutO.s 			page 13


 141:main.c        ****         MasterReg_Write(0);
 541              		.loc 1 141 0
 542 00b6 0020     		movs	r0, #0
 543 00b8 FFF7FEFF 		bl	MasterReg_Write
 544              	.LVL55:
 545 00bc B1E7     		b	.L38
 546              	.L44:
 547 00be C046     		.align	2
 548              	.L43:
 549 00c0 00000000 		.word	.LANCHOR0
 550              		.cfi_endproc
 551              	.LFE41:
 552              		.size	main, .-main
 553              		.global	speed
 554              		.global	mVolts
 555              		.global	counts
 556              		.global	ezI2cBuffer
 557              		.data
 558              		.align	2
 559              		.set	.LANCHOR0,. + 0
 560              		.type	ezI2cBuffer, %object
 561              		.size	ezI2cBuffer, 3
 562              	ezI2cBuffer:
 563 0000 40       		.byte	64
 564 0001 00       		.byte	0
 565 0002 01       		.byte	1
 566              		.section	.rodata.str1.4,"aMS",%progbits,1
 567              		.align	2
 568              	.LC8:
 569 0000 534C4F57 		.ascii	"SLOW\000"
 569      00
 570 0005 000000   		.space	3
 571              	.LC10:
 572 0008 4D454400 		.ascii	"MED\000"
 573              	.LC12:
 574 000c 46415354 		.ascii	"FAST\000"
 574      00
 575 0011 000000   		.space	3
 576              	.LC14:
 577 0014 20202020 		.ascii	"    \000"
 577      00
 578              		.bss
 579              		.align	1
 580              		.set	.LANCHOR1,. + 0
 581              		.type	counts, %object
 582              		.size	counts, 2
 583              	counts:
 584 0000 0000     		.space	2
 585              		.type	mVolts, %object
 586              		.size	mVolts, 2
 587              	mVolts:
 588 0002 0000     		.space	2
 589              		.type	speed, %object
 590              		.size	speed, 1
 591              	speed:
 592 0004 00       		.space	1
 593              		.text
ARM GAS  C:\Users\MIHAILO\AppData\Local\Temp\ccHAZutO.s 			page 14


 594              	.Letext0:
 595              		.file 2 "Generated_Source\\PSoC4/cytypes.h"
 596              		.file 3 "Generated_Source\\PSoC4/ADC.h"
 597              		.file 4 "Generated_Source\\PSoC4/LCD.h"
 598              		.file 5 "Generated_Source\\PSoC4/But1.h"
 599              		.file 6 "Generated_Source\\PSoC4/But2.h"
 600              		.file 7 "Generated_Source\\PSoC4/But3.h"
 601              		.file 8 "Generated_Source\\PSoC4/But4.h"
 602              		.file 9 "Generated_Source\\PSoC4/MasterReg.h"
 603              		.file 10 "Generated_Source\\PSoC4/CyLib.h"
 604              		.file 11 "Generated_Source\\PSoC4/EZI2C_EZI2C.h"
 605              		.file 12 "Generated_Source\\PSoC4/EZI2C.h"