ARM GAS  C:\Users\MIHAILO\AppData\Local\Temp\ccXoIror.s 			page 1


   1              		.syntax unified
   2              		.cpu cortex-m0
   3              		.fpu softvfp
   4              		.eabi_attribute 20, 1
   5              		.eabi_attribute 21, 1
   6              		.eabi_attribute 23, 3
   7              		.eabi_attribute 24, 1
   8              		.eabi_attribute 25, 1
   9              		.eabi_attribute 26, 1
  10              		.eabi_attribute 30, 1
  11              		.eabi_attribute 34, 0
  12              		.eabi_attribute 18, 4
  13              		.thumb
  14              		.syntax unified
  15              		.file	"cyfitter_cfg.c"
  16              		.text
  17              	.Ltext0:
  18              		.cfi_sections	.debug_frame
  19              		.section	.text.cfg_write_bytes32,"ax",%progbits
  20              		.align	2
  21              		.code	16
  22              		.thumb_func
  23              		.type	cfg_write_bytes32, %function
  24              	cfg_write_bytes32:
  25              	.LFB3:
  26              		.file 1 "Generated_Source\\PSoC4\\cyfitter_cfg.c"
   1:Generated_Source\PSoC4/cyfitter_cfg.c **** 
   2:Generated_Source\PSoC4/cyfitter_cfg.c **** /*******************************************************************************
   3:Generated_Source\PSoC4/cyfitter_cfg.c **** * File Name: cyfitter_cfg.c
   4:Generated_Source\PSoC4/cyfitter_cfg.c **** * 
   5:Generated_Source\PSoC4/cyfitter_cfg.c **** * PSoC Creator  4.4
   6:Generated_Source\PSoC4/cyfitter_cfg.c **** *
   7:Generated_Source\PSoC4/cyfitter_cfg.c **** * Description:
   8:Generated_Source\PSoC4/cyfitter_cfg.c **** * This file contains device initialization code.
   9:Generated_Source\PSoC4/cyfitter_cfg.c **** * Except for the user defined sections in CyClockStartupError(), this file should not be modified.
  10:Generated_Source\PSoC4/cyfitter_cfg.c **** * This file is automatically generated by PSoC Creator.
  11:Generated_Source\PSoC4/cyfitter_cfg.c **** *
  12:Generated_Source\PSoC4/cyfitter_cfg.c **** ********************************************************************************
  13:Generated_Source\PSoC4/cyfitter_cfg.c **** * Copyright (c) 2007-2020 Cypress Semiconductor.  All rights reserved.
  14:Generated_Source\PSoC4/cyfitter_cfg.c **** * You may use this file only in accordance with the license, terms, conditions, 
  15:Generated_Source\PSoC4/cyfitter_cfg.c **** * disclaimers, and limitations in the end user license agreement accompanying 
  16:Generated_Source\PSoC4/cyfitter_cfg.c **** * the software package with which this file was provided.
  17:Generated_Source\PSoC4/cyfitter_cfg.c **** ********************************************************************************/
  18:Generated_Source\PSoC4/cyfitter_cfg.c **** 
  19:Generated_Source\PSoC4/cyfitter_cfg.c **** #include <string.h>
  20:Generated_Source\PSoC4/cyfitter_cfg.c **** #include "cytypes.h"
  21:Generated_Source\PSoC4/cyfitter_cfg.c **** #include "cydevice_trm.h"
  22:Generated_Source\PSoC4/cyfitter_cfg.c **** #include "cyfitter.h"
  23:Generated_Source\PSoC4/cyfitter_cfg.c **** #include "CyLib.h"
  24:Generated_Source\PSoC4/cyfitter_cfg.c **** #include "CyLFClk.h"
  25:Generated_Source\PSoC4/cyfitter_cfg.c **** #include "cyfitter_cfg.h"
  26:Generated_Source\PSoC4/cyfitter_cfg.c **** #include "cyapicallbacks.h"
  27:Generated_Source\PSoC4/cyfitter_cfg.c **** 
  28:Generated_Source\PSoC4/cyfitter_cfg.c **** 
  29:Generated_Source\PSoC4/cyfitter_cfg.c **** #if defined(__GNUC__) || defined(__ARMCC_VERSION)
  30:Generated_Source\PSoC4/cyfitter_cfg.c ****     #define CYPACKED 
  31:Generated_Source\PSoC4/cyfitter_cfg.c ****     #define CYPACKED_ATTR __attribute__ ((packed))
ARM GAS  C:\Users\MIHAILO\AppData\Local\Temp\ccXoIror.s 			page 2


  32:Generated_Source\PSoC4/cyfitter_cfg.c ****     #define CYALIGNED __attribute__ ((aligned))
  33:Generated_Source\PSoC4/cyfitter_cfg.c ****     #define CY_CFG_UNUSED __attribute__ ((unused))
  34:Generated_Source\PSoC4/cyfitter_cfg.c ****     #ifndef CY_CFG_SECTION
  35:Generated_Source\PSoC4/cyfitter_cfg.c ****         #define CY_CFG_SECTION __attribute__ ((section(".psocinit")))
  36:Generated_Source\PSoC4/cyfitter_cfg.c ****     #endif
  37:Generated_Source\PSoC4/cyfitter_cfg.c ****     
  38:Generated_Source\PSoC4/cyfitter_cfg.c ****     #if defined(__ARMCC_VERSION)
  39:Generated_Source\PSoC4/cyfitter_cfg.c ****         #define CY_CFG_MEMORY_BARRIER() __memory_changed()
  40:Generated_Source\PSoC4/cyfitter_cfg.c ****     #else
  41:Generated_Source\PSoC4/cyfitter_cfg.c ****         #define CY_CFG_MEMORY_BARRIER() __sync_synchronize()
  42:Generated_Source\PSoC4/cyfitter_cfg.c ****     #endif
  43:Generated_Source\PSoC4/cyfitter_cfg.c ****     
  44:Generated_Source\PSoC4/cyfitter_cfg.c **** #elif defined(__ICCARM__)
  45:Generated_Source\PSoC4/cyfitter_cfg.c ****     #include <intrinsics.h>
  46:Generated_Source\PSoC4/cyfitter_cfg.c **** 
  47:Generated_Source\PSoC4/cyfitter_cfg.c ****     #define CYPACKED __packed
  48:Generated_Source\PSoC4/cyfitter_cfg.c ****     #define CYPACKED_ATTR 
  49:Generated_Source\PSoC4/cyfitter_cfg.c ****     #define CYALIGNED _Pragma("data_alignment=4")
  50:Generated_Source\PSoC4/cyfitter_cfg.c ****     #define CY_CFG_UNUSED _Pragma("diag_suppress=Pe177")
  51:Generated_Source\PSoC4/cyfitter_cfg.c ****     #define CY_CFG_SECTION _Pragma("location=\".psocinit\"")
  52:Generated_Source\PSoC4/cyfitter_cfg.c ****     
  53:Generated_Source\PSoC4/cyfitter_cfg.c ****     #define CY_CFG_MEMORY_BARRIER() __DMB()
  54:Generated_Source\PSoC4/cyfitter_cfg.c ****     
  55:Generated_Source\PSoC4/cyfitter_cfg.c **** #else
  56:Generated_Source\PSoC4/cyfitter_cfg.c ****     #error Unsupported toolchain
  57:Generated_Source\PSoC4/cyfitter_cfg.c **** #endif
  58:Generated_Source\PSoC4/cyfitter_cfg.c **** 
  59:Generated_Source\PSoC4/cyfitter_cfg.c **** #ifndef CYCODE
  60:Generated_Source\PSoC4/cyfitter_cfg.c ****     #define CYCODE
  61:Generated_Source\PSoC4/cyfitter_cfg.c **** #endif
  62:Generated_Source\PSoC4/cyfitter_cfg.c **** #ifndef CYDATA
  63:Generated_Source\PSoC4/cyfitter_cfg.c ****     #define CYDATA
  64:Generated_Source\PSoC4/cyfitter_cfg.c **** #endif
  65:Generated_Source\PSoC4/cyfitter_cfg.c **** #ifndef CYFAR
  66:Generated_Source\PSoC4/cyfitter_cfg.c ****     #define CYFAR
  67:Generated_Source\PSoC4/cyfitter_cfg.c **** #endif
  68:Generated_Source\PSoC4/cyfitter_cfg.c **** #ifndef CYXDATA
  69:Generated_Source\PSoC4/cyfitter_cfg.c ****     #define CYXDATA
  70:Generated_Source\PSoC4/cyfitter_cfg.c **** #endif
  71:Generated_Source\PSoC4/cyfitter_cfg.c **** 
  72:Generated_Source\PSoC4/cyfitter_cfg.c **** 
  73:Generated_Source\PSoC4/cyfitter_cfg.c **** CY_CFG_UNUSED
  74:Generated_Source\PSoC4/cyfitter_cfg.c **** static void CYMEMZERO(void *s, size_t n);
  75:Generated_Source\PSoC4/cyfitter_cfg.c **** CY_CFG_UNUSED
  76:Generated_Source\PSoC4/cyfitter_cfg.c **** static void CYMEMZERO(void *s, size_t n)
  77:Generated_Source\PSoC4/cyfitter_cfg.c **** {
  78:Generated_Source\PSoC4/cyfitter_cfg.c **** 	(void)memset(s, 0, n);
  79:Generated_Source\PSoC4/cyfitter_cfg.c **** }
  80:Generated_Source\PSoC4/cyfitter_cfg.c **** CY_CFG_UNUSED
  81:Generated_Source\PSoC4/cyfitter_cfg.c **** static void CYCONFIGCPY(void *dest, const void *src, size_t n);
  82:Generated_Source\PSoC4/cyfitter_cfg.c **** CY_CFG_UNUSED
  83:Generated_Source\PSoC4/cyfitter_cfg.c **** static void CYCONFIGCPY(void *dest, const void *src, size_t n)
  84:Generated_Source\PSoC4/cyfitter_cfg.c **** {
  85:Generated_Source\PSoC4/cyfitter_cfg.c **** 	(void)memcpy(dest, src, n);
  86:Generated_Source\PSoC4/cyfitter_cfg.c **** }
  87:Generated_Source\PSoC4/cyfitter_cfg.c **** CY_CFG_UNUSED
  88:Generated_Source\PSoC4/cyfitter_cfg.c **** static void CYCONFIGCPYCODE(void *dest, const void *src, size_t n);
ARM GAS  C:\Users\MIHAILO\AppData\Local\Temp\ccXoIror.s 			page 3


  89:Generated_Source\PSoC4/cyfitter_cfg.c **** CY_CFG_UNUSED
  90:Generated_Source\PSoC4/cyfitter_cfg.c **** static void CYCONFIGCPYCODE(void *dest, const void *src, size_t n)
  91:Generated_Source\PSoC4/cyfitter_cfg.c **** {
  92:Generated_Source\PSoC4/cyfitter_cfg.c **** 	(void)memcpy(dest, src, n);
  93:Generated_Source\PSoC4/cyfitter_cfg.c **** }
  94:Generated_Source\PSoC4/cyfitter_cfg.c **** 
  95:Generated_Source\PSoC4/cyfitter_cfg.c **** 
  96:Generated_Source\PSoC4/cyfitter_cfg.c **** 
  97:Generated_Source\PSoC4/cyfitter_cfg.c **** 
  98:Generated_Source\PSoC4/cyfitter_cfg.c **** /* Clock startup error codes                                                   */
  99:Generated_Source\PSoC4/cyfitter_cfg.c **** #define CYCLOCKSTART_NO_ERROR    0u
 100:Generated_Source\PSoC4/cyfitter_cfg.c **** #define CYCLOCKSTART_XTAL_ERROR  1u
 101:Generated_Source\PSoC4/cyfitter_cfg.c **** #define CYCLOCKSTART_32KHZ_ERROR 2u
 102:Generated_Source\PSoC4/cyfitter_cfg.c **** #define CYCLOCKSTART_PLL_ERROR   3u
 103:Generated_Source\PSoC4/cyfitter_cfg.c **** #define CYCLOCKSTART_FLL_ERROR   4u
 104:Generated_Source\PSoC4/cyfitter_cfg.c **** #define CYCLOCKSTART_WCO_ERROR   5u
 105:Generated_Source\PSoC4/cyfitter_cfg.c **** 
 106:Generated_Source\PSoC4/cyfitter_cfg.c **** 
 107:Generated_Source\PSoC4/cyfitter_cfg.c **** #ifdef CY_NEED_CYCLOCKSTARTUPERROR
 108:Generated_Source\PSoC4/cyfitter_cfg.c **** /*******************************************************************************
 109:Generated_Source\PSoC4/cyfitter_cfg.c **** * Function Name: CyClockStartupError
 110:Generated_Source\PSoC4/cyfitter_cfg.c **** ********************************************************************************
 111:Generated_Source\PSoC4/cyfitter_cfg.c **** * Summary:
 112:Generated_Source\PSoC4/cyfitter_cfg.c **** *  If an error is encountered during clock configuration (crystal startup error,
 113:Generated_Source\PSoC4/cyfitter_cfg.c **** *  PLL lock error, etc.), the system will end up here.  Unless reimplemented by
 114:Generated_Source\PSoC4/cyfitter_cfg.c **** *  the customer, this function will stop in an infinite loop.
 115:Generated_Source\PSoC4/cyfitter_cfg.c **** *
 116:Generated_Source\PSoC4/cyfitter_cfg.c **** * Parameters:
 117:Generated_Source\PSoC4/cyfitter_cfg.c **** *   void
 118:Generated_Source\PSoC4/cyfitter_cfg.c **** *
 119:Generated_Source\PSoC4/cyfitter_cfg.c **** * Return:
 120:Generated_Source\PSoC4/cyfitter_cfg.c **** *   void
 121:Generated_Source\PSoC4/cyfitter_cfg.c **** *
 122:Generated_Source\PSoC4/cyfitter_cfg.c **** *******************************************************************************/
 123:Generated_Source\PSoC4/cyfitter_cfg.c **** CY_CFG_UNUSED
 124:Generated_Source\PSoC4/cyfitter_cfg.c **** static void CyClockStartupError(uint8 errorCode);
 125:Generated_Source\PSoC4/cyfitter_cfg.c **** CY_CFG_UNUSED
 126:Generated_Source\PSoC4/cyfitter_cfg.c **** static void CyClockStartupError(uint8 errorCode)
 127:Generated_Source\PSoC4/cyfitter_cfg.c **** {
 128:Generated_Source\PSoC4/cyfitter_cfg.c ****     /* To remove the compiler warning if errorCode not used.                */
 129:Generated_Source\PSoC4/cyfitter_cfg.c ****     errorCode = errorCode;
 130:Generated_Source\PSoC4/cyfitter_cfg.c **** 
 131:Generated_Source\PSoC4/cyfitter_cfg.c ****     /* If we have a clock startup error (bad MHz crystal, PLL lock, etc.),  */
 132:Generated_Source\PSoC4/cyfitter_cfg.c ****     /* we will end up here to allow the customer to implement something to  */
 133:Generated_Source\PSoC4/cyfitter_cfg.c ****     /* deal with the clock condition.                                       */
 134:Generated_Source\PSoC4/cyfitter_cfg.c **** 
 135:Generated_Source\PSoC4/cyfitter_cfg.c **** #ifdef CY_CFG_CLOCK_STARTUP_ERROR_CALLBACK
 136:Generated_Source\PSoC4/cyfitter_cfg.c ****     CY_CFG_Clock_Startup_ErrorCallback();
 137:Generated_Source\PSoC4/cyfitter_cfg.c **** #else
 138:Generated_Source\PSoC4/cyfitter_cfg.c ****     /*  If not using CY_CFG_CLOCK_STARTUP_ERROR_CALLBACK, place your clock startup code here. */
 139:Generated_Source\PSoC4/cyfitter_cfg.c ****     /* `#START CyClockStartupError` */
 140:Generated_Source\PSoC4/cyfitter_cfg.c **** 
 141:Generated_Source\PSoC4/cyfitter_cfg.c **** 
 142:Generated_Source\PSoC4/cyfitter_cfg.c **** 
 143:Generated_Source\PSoC4/cyfitter_cfg.c ****     /* `#END` */
 144:Generated_Source\PSoC4/cyfitter_cfg.c **** 
 145:Generated_Source\PSoC4/cyfitter_cfg.c ****     while(1) {}
ARM GAS  C:\Users\MIHAILO\AppData\Local\Temp\ccXoIror.s 			page 4


 146:Generated_Source\PSoC4/cyfitter_cfg.c **** #endif /* CY_CFG_CLOCK_STARTUP_ERROR_CALLBACK */
 147:Generated_Source\PSoC4/cyfitter_cfg.c **** }
 148:Generated_Source\PSoC4/cyfitter_cfg.c **** #endif
 149:Generated_Source\PSoC4/cyfitter_cfg.c **** 
 150:Generated_Source\PSoC4/cyfitter_cfg.c **** #define CY_CFG_BASE_ADDR_COUNT 7u
 151:Generated_Source\PSoC4/cyfitter_cfg.c **** CYPACKED typedef struct
 152:Generated_Source\PSoC4/cyfitter_cfg.c **** {
 153:Generated_Source\PSoC4/cyfitter_cfg.c **** 	uint8 offset;
 154:Generated_Source\PSoC4/cyfitter_cfg.c **** 	uint8 value;
 155:Generated_Source\PSoC4/cyfitter_cfg.c **** } CYPACKED_ATTR cy_cfg_addrvalue_t;
 156:Generated_Source\PSoC4/cyfitter_cfg.c **** 
 157:Generated_Source\PSoC4/cyfitter_cfg.c **** 
 158:Generated_Source\PSoC4/cyfitter_cfg.c **** 
 159:Generated_Source\PSoC4/cyfitter_cfg.c **** /*******************************************************************************
 160:Generated_Source\PSoC4/cyfitter_cfg.c **** * Function Name: cfg_write_bytes32
 161:Generated_Source\PSoC4/cyfitter_cfg.c **** ********************************************************************************
 162:Generated_Source\PSoC4/cyfitter_cfg.c **** * Summary:
 163:Generated_Source\PSoC4/cyfitter_cfg.c **** *  This function is used for setting up the chip configuration areas that
 164:Generated_Source\PSoC4/cyfitter_cfg.c **** *  contain relatively sparse data.
 165:Generated_Source\PSoC4/cyfitter_cfg.c **** *
 166:Generated_Source\PSoC4/cyfitter_cfg.c **** * Parameters:
 167:Generated_Source\PSoC4/cyfitter_cfg.c **** *   void
 168:Generated_Source\PSoC4/cyfitter_cfg.c **** *
 169:Generated_Source\PSoC4/cyfitter_cfg.c **** * Return:
 170:Generated_Source\PSoC4/cyfitter_cfg.c **** *   void
 171:Generated_Source\PSoC4/cyfitter_cfg.c **** *
 172:Generated_Source\PSoC4/cyfitter_cfg.c **** *******************************************************************************/
 173:Generated_Source\PSoC4/cyfitter_cfg.c **** static void cfg_write_bytes32(const uint32 addr_table[], const cy_cfg_addrvalue_t data_table[]);
 174:Generated_Source\PSoC4/cyfitter_cfg.c **** static void cfg_write_bytes32(const uint32 addr_table[], const cy_cfg_addrvalue_t data_table[])
 175:Generated_Source\PSoC4/cyfitter_cfg.c **** {
  27              		.loc 1 175 0
  28              		.cfi_startproc
  29              		@ args = 0, pretend = 0, frame = 0
  30              		@ frame_needed = 0, uses_anonymous_args = 0
  31              	.LVL0:
  32 0000 F0B5     		push	{r4, r5, r6, r7, lr}
  33              		.cfi_def_cfa_offset 20
  34              		.cfi_offset 4, -20
  35              		.cfi_offset 5, -16
  36              		.cfi_offset 6, -12
  37              		.cfi_offset 7, -8
  38              		.cfi_offset 14, -4
  39              	.LVL1:
 176:Generated_Source\PSoC4/cyfitter_cfg.c **** 	/* For 32-bit little-endian architectures */
 177:Generated_Source\PSoC4/cyfitter_cfg.c **** 	uint32 i, j = 0u;
  40              		.loc 1 177 0
  41 0002 0025     		movs	r5, #0
 178:Generated_Source\PSoC4/cyfitter_cfg.c **** 	for (i = 0u; i < CY_CFG_BASE_ADDR_COUNT; i++)
  42              		.loc 1 178 0
  43 0004 0027     		movs	r7, #0
  44 0006 11E0     		b	.L2
  45              	.LVL2:
  46              	.L5:
  47              	.LBB2:
 179:Generated_Source\PSoC4/cyfitter_cfg.c **** 	{
 180:Generated_Source\PSoC4/cyfitter_cfg.c **** 		uint32 baseAddr = addr_table[i];
  48              		.loc 1 180 0
ARM GAS  C:\Users\MIHAILO\AppData\Local\Temp\ccXoIror.s 			page 5


  49 0008 BB00     		lsls	r3, r7, #2
  50 000a C658     		ldr	r6, [r0, r3]
  51              	.LVL3:
 181:Generated_Source\PSoC4/cyfitter_cfg.c **** 		uint8 count = (uint8)baseAddr;
  52              		.loc 1 181 0
  53 000c F3B2     		uxtb	r3, r6
  54              	.LVL4:
 182:Generated_Source\PSoC4/cyfitter_cfg.c **** 		baseAddr &= 0xFFFFFF00u;
  55              		.loc 1 182 0
  56 000e FF22     		movs	r2, #255
  57 0010 9643     		bics	r6, r2
  58              	.LVL5:
 183:Generated_Source\PSoC4/cyfitter_cfg.c **** 		while (count != 0u)
  59              		.loc 1 183 0
  60 0012 08E0     		b	.L3
  61              	.L4:
 184:Generated_Source\PSoC4/cyfitter_cfg.c **** 		{
 185:Generated_Source\PSoC4/cyfitter_cfg.c **** 			CY_SET_REG8((void *)(baseAddr + data_table[j].offset), data_table[j].value);
  62              		.loc 1 185 0
  63 0014 6A00     		lsls	r2, r5, #1
  64 0016 8A18     		adds	r2, r1, r2
  65 0018 1478     		ldrb	r4, [r2]
  66 001a A419     		adds	r4, r4, r6
  67 001c 5278     		ldrb	r2, [r2, #1]
  68 001e 2270     		strb	r2, [r4]
 186:Generated_Source\PSoC4/cyfitter_cfg.c **** 			j++;
  69              		.loc 1 186 0
  70 0020 0135     		adds	r5, r5, #1
  71              	.LVL6:
 187:Generated_Source\PSoC4/cyfitter_cfg.c **** 			count--;
  72              		.loc 1 187 0
  73 0022 013B     		subs	r3, r3, #1
  74              	.LVL7:
  75 0024 DBB2     		uxtb	r3, r3
  76              	.LVL8:
  77              	.L3:
 183:Generated_Source\PSoC4/cyfitter_cfg.c **** 		{
  78              		.loc 1 183 0
  79 0026 002B     		cmp	r3, #0
  80 0028 F4D1     		bne	.L4
  81              	.LBE2:
 178:Generated_Source\PSoC4/cyfitter_cfg.c **** 	{
  82              		.loc 1 178 0 discriminator 2
  83 002a 0137     		adds	r7, r7, #1
  84              	.LVL9:
  85              	.L2:
 178:Generated_Source\PSoC4/cyfitter_cfg.c **** 	{
  86              		.loc 1 178 0 is_stmt 0 discriminator 1
  87 002c 062F     		cmp	r7, #6
  88 002e EBD9     		bls	.L5
 188:Generated_Source\PSoC4/cyfitter_cfg.c **** 		}
 189:Generated_Source\PSoC4/cyfitter_cfg.c **** 	}
 190:Generated_Source\PSoC4/cyfitter_cfg.c **** }
  89              		.loc 1 190 0 is_stmt 1
  90              		@ sp needed
  91              	.LVL10:
  92              	.LVL11:
ARM GAS  C:\Users\MIHAILO\AppData\Local\Temp\ccXoIror.s 			page 6


  93 0030 F0BD     		pop	{r4, r5, r6, r7, pc}
  94              		.cfi_endproc
  95              	.LFE3:
  96              		.size	cfg_write_bytes32, .-cfg_write_bytes32
  97 0032 C046     		.section	.text.CYMEMZERO,"ax",%progbits
  98              		.align	2
  99              		.code	16
 100              		.thumb_func
 101              		.type	CYMEMZERO, %function
 102              	CYMEMZERO:
 103              	.LFB0:
  77:Generated_Source\PSoC4/cyfitter_cfg.c **** 	(void)memset(s, 0, n);
 104              		.loc 1 77 0
 105              		.cfi_startproc
 106              		@ args = 0, pretend = 0, frame = 0
 107              		@ frame_needed = 0, uses_anonymous_args = 0
 108              	.LVL12:
 109 0000 10B5     		push	{r4, lr}
 110              		.cfi_def_cfa_offset 8
 111              		.cfi_offset 4, -8
 112              		.cfi_offset 14, -4
 113 0002 0A00     		movs	r2, r1
  78:Generated_Source\PSoC4/cyfitter_cfg.c **** }
 114              		.loc 1 78 0
 115 0004 0021     		movs	r1, #0
 116              	.LVL13:
 117 0006 FFF7FEFF 		bl	memset
 118              	.LVL14:
  79:Generated_Source\PSoC4/cyfitter_cfg.c **** CY_CFG_UNUSED
 119              		.loc 1 79 0
 120              		@ sp needed
 121 000a 10BD     		pop	{r4, pc}
 122              		.cfi_endproc
 123              	.LFE0:
 124              		.size	CYMEMZERO, .-CYMEMZERO
 125              		.section	.psocinit,"ax",%progbits
 126              		.align	2
 127              		.code	16
 128              		.thumb_func
 129              		.type	ClockSetup, %function
 130              	ClockSetup:
 131              	.LFB4:
 191:Generated_Source\PSoC4/cyfitter_cfg.c **** 
 192:Generated_Source\PSoC4/cyfitter_cfg.c **** 
 193:Generated_Source\PSoC4/cyfitter_cfg.c **** /*******************************************************************************
 194:Generated_Source\PSoC4/cyfitter_cfg.c **** * Function Name: ClockSetup
 195:Generated_Source\PSoC4/cyfitter_cfg.c **** ********************************************************************************
 196:Generated_Source\PSoC4/cyfitter_cfg.c **** *
 197:Generated_Source\PSoC4/cyfitter_cfg.c **** * Summary:
 198:Generated_Source\PSoC4/cyfitter_cfg.c **** *   Performs the initialization of all of the clocks in the device based on the
 199:Generated_Source\PSoC4/cyfitter_cfg.c **** *   settings in the Clock tab of the DWR.  This includes enabling the requested
 200:Generated_Source\PSoC4/cyfitter_cfg.c **** *   clocks and setting the necessary dividers to produce the desired frequency. 
 201:Generated_Source\PSoC4/cyfitter_cfg.c **** *
 202:Generated_Source\PSoC4/cyfitter_cfg.c **** * Parameters:
 203:Generated_Source\PSoC4/cyfitter_cfg.c **** *   void
 204:Generated_Source\PSoC4/cyfitter_cfg.c **** *
 205:Generated_Source\PSoC4/cyfitter_cfg.c **** * Return:
ARM GAS  C:\Users\MIHAILO\AppData\Local\Temp\ccXoIror.s 			page 7


 206:Generated_Source\PSoC4/cyfitter_cfg.c **** *   void
 207:Generated_Source\PSoC4/cyfitter_cfg.c **** *
 208:Generated_Source\PSoC4/cyfitter_cfg.c **** *******************************************************************************/
 209:Generated_Source\PSoC4/cyfitter_cfg.c **** static void ClockSetup(void);
 210:Generated_Source\PSoC4/cyfitter_cfg.c **** CY_CFG_SECTION
 211:Generated_Source\PSoC4/cyfitter_cfg.c **** static void ClockSetup(void)
 212:Generated_Source\PSoC4/cyfitter_cfg.c **** {
 132              		.loc 1 212 0
 133              		.cfi_startproc
 134              		@ args = 0, pretend = 0, frame = 0
 135              		@ frame_needed = 0, uses_anonymous_args = 0
 136 0000 70B5     		push	{r4, r5, r6, lr}
 137              		.cfi_def_cfa_offset 16
 138              		.cfi_offset 4, -16
 139              		.cfi_offset 5, -12
 140              		.cfi_offset 6, -8
 141              		.cfi_offset 14, -4
 213:Generated_Source\PSoC4/cyfitter_cfg.c **** 	/* Enable HALF_EN before trimming for the flash accelerator. */
 214:Generated_Source\PSoC4/cyfitter_cfg.c **** 	CY_SET_REG32((void CYXDATA *)(CYREG_CLK_SELECT), (CY_GET_REG32((void *)CYREG_CLK_SELECT) | 0x00040
 142              		.loc 1 214 0
 143 0002 174C     		ldr	r4, .L8
 144 0004 2368     		ldr	r3, [r4]
 145 0006 8022     		movs	r2, #128
 146 0008 D202     		lsls	r2, r2, #11
 147 000a 1343     		orrs	r3, r2
 148 000c 2360     		str	r3, [r4]
 215:Generated_Source\PSoC4/cyfitter_cfg.c **** 
 216:Generated_Source\PSoC4/cyfitter_cfg.c **** 	/* Setup and trim IMO based on desired frequency. */
 217:Generated_Source\PSoC4/cyfitter_cfg.c **** 	CySysClkWriteImoFreq(24u);
 149              		.loc 1 217 0
 150 000e 1820     		movs	r0, #24
 151 0010 FFF7FEFF 		bl	CySysClkWriteImoFreq
 152              	.LVL15:
 218:Generated_Source\PSoC4/cyfitter_cfg.c **** 
 219:Generated_Source\PSoC4/cyfitter_cfg.c **** 	/* Disable HALF_EN since it is not required at this IMO frequency. */
 220:Generated_Source\PSoC4/cyfitter_cfg.c **** 	CY_SET_REG32((void CYXDATA *)(CYREG_CLK_SELECT), (CY_GET_REG32((void *)CYREG_CLK_SELECT) & 0xFFFBF
 153              		.loc 1 220 0
 154 0014 2268     		ldr	r2, [r4]
 155 0016 134B     		ldr	r3, .L8+4
 156 0018 1340     		ands	r3, r2
 157 001a 2360     		str	r3, [r4]
 221:Generated_Source\PSoC4/cyfitter_cfg.c **** 	/* CYDEV_CLK_ILO_CONFIG Starting address: CYDEV_CLK_ILO_CONFIG */
 222:Generated_Source\PSoC4/cyfitter_cfg.c **** 	CY_SET_REG32((void *)(CYREG_CLK_ILO_CONFIG), 0x80000006u);
 158              		.loc 1 222 0
 159 001c 124A     		ldr	r2, .L8+8
 160 001e 134B     		ldr	r3, .L8+12
 161 0020 1A60     		str	r2, [r3]
 223:Generated_Source\PSoC4/cyfitter_cfg.c **** 
 224:Generated_Source\PSoC4/cyfitter_cfg.c **** 
 225:Generated_Source\PSoC4/cyfitter_cfg.c **** 	/* CYDEV_CLK_SELECT00 Starting address: CYDEV_CLK_SELECT00 */
 226:Generated_Source\PSoC4/cyfitter_cfg.c **** 	CY_SET_REG32((void *)(CYREG_CLK_SELECT07), 0x00000010u);
 162              		.loc 1 226 0
 163 0022 1022     		movs	r2, #16
 164 0024 124B     		ldr	r3, .L8+16
 165 0026 1A60     		str	r2, [r3]
 227:Generated_Source\PSoC4/cyfitter_cfg.c **** 	CY_SET_REG32((void *)(CYREG_CLK_SELECT12), 0x00000030u);
 166              		.loc 1 227 0
ARM GAS  C:\Users\MIHAILO\AppData\Local\Temp\ccXoIror.s 			page 8


 167 0028 2032     		adds	r2, r2, #32
 168 002a 124B     		ldr	r3, .L8+20
 169 002c 1A60     		str	r2, [r3]
 228:Generated_Source\PSoC4/cyfitter_cfg.c **** 
 229:Generated_Source\PSoC4/cyfitter_cfg.c **** 	/* CYDEV_CLK_IMO_CONFIG Starting address: CYDEV_CLK_IMO_CONFIG */
 230:Generated_Source\PSoC4/cyfitter_cfg.c **** 	CY_SET_REG32((void *)(CYREG_CLK_IMO_CONFIG), 0x82000000u);
 170              		.loc 1 230 0
 171 002e 8222     		movs	r2, #130
 172 0030 1206     		lsls	r2, r2, #24
 173 0032 114B     		ldr	r3, .L8+24
 174 0034 1A60     		str	r2, [r3]
 231:Generated_Source\PSoC4/cyfitter_cfg.c **** 
 232:Generated_Source\PSoC4/cyfitter_cfg.c **** 	/* CYDEV_CLK_SELECT Starting address: CYDEV_CLK_SELECT */
 233:Generated_Source\PSoC4/cyfitter_cfg.c **** 	CY_SET_REG32((void *)(CYREG_CLK_SELECT), 0x00000000u);
 175              		.loc 1 233 0
 176 0036 0025     		movs	r5, #0
 177 0038 2560     		str	r5, [r4]
 234:Generated_Source\PSoC4/cyfitter_cfg.c **** 
 235:Generated_Source\PSoC4/cyfitter_cfg.c **** 	/* CYDEV_CLK_DIVIDER_A00 Starting address: CYDEV_CLK_DIVIDER_A00 */
 236:Generated_Source\PSoC4/cyfitter_cfg.c **** 	CY_SET_REG32((void *)(CYREG_CLK_DIVIDER_A00), 0x80000014u);
 178              		.loc 1 236 0
 179 003a 104A     		ldr	r2, .L8+28
 180 003c 104B     		ldr	r3, .L8+32
 181 003e 1A60     		str	r2, [r3]
 237:Generated_Source\PSoC4/cyfitter_cfg.c **** 
 238:Generated_Source\PSoC4/cyfitter_cfg.c **** 	/* CYDEV_CLK_DIVIDER_B00 Starting address: CYDEV_CLK_DIVIDER_B00 */
 239:Generated_Source\PSoC4/cyfitter_cfg.c **** 	CY_SET_REG32((void *)(CYREG_CLK_DIVIDER_B00), 0x8000027Fu);
 182              		.loc 1 239 0
 183 0040 104A     		ldr	r2, .L8+36
 184 0042 114B     		ldr	r3, .L8+40
 185 0044 1A60     		str	r2, [r3]
 240:Generated_Source\PSoC4/cyfitter_cfg.c **** 
 241:Generated_Source\PSoC4/cyfitter_cfg.c **** 	/* CYDEV_CLK_DIVIDER_C00 Starting address: CYDEV_CLK_DIVIDER_C00 */
 242:Generated_Source\PSoC4/cyfitter_cfg.c **** 	CY_SET_REG32((void *)(CYREG_CLK_DIVIDER_C00), 0xC0000270u);
 186              		.loc 1 242 0
 187 0046 114A     		ldr	r2, .L8+44
 188 0048 114B     		ldr	r3, .L8+48
 189 004a 1A60     		str	r2, [r3]
 243:Generated_Source\PSoC4/cyfitter_cfg.c **** 
 244:Generated_Source\PSoC4/cyfitter_cfg.c **** 	(void)CyIntSetVector(9u, &CySysWdtIsr);
 190              		.loc 1 244 0
 191 004c 1149     		ldr	r1, .L8+52
 192 004e 0920     		movs	r0, #9
 193 0050 FFF7FEFF 		bl	CyIntSetVector
 194              	.LVL16:
 245:Generated_Source\PSoC4/cyfitter_cfg.c **** 	CyIntEnable(9u);
 195              		.loc 1 245 0
 196 0054 0920     		movs	r0, #9
 197 0056 FFF7FEFF 		bl	CyIntEnable
 198              	.LVL17:
 246:Generated_Source\PSoC4/cyfitter_cfg.c **** 	CY_SET_REG32((void *)(CYREG_WDT_CONFIG), 0x00000000u);
 199              		.loc 1 246 0
 200 005a 0F4B     		ldr	r3, .L8+56
 201 005c 1D60     		str	r5, [r3]
 247:Generated_Source\PSoC4/cyfitter_cfg.c **** }
 202              		.loc 1 247 0
 203              		@ sp needed
ARM GAS  C:\Users\MIHAILO\AppData\Local\Temp\ccXoIror.s 			page 9


 204 005e 70BD     		pop	{r4, r5, r6, pc}
 205              	.L9:
 206              		.align	2
 207              	.L8:
 208 0060 00010B40 		.word	1074462976
 209 0064 FFFFFBFF 		.word	-262145
 210 0068 06000080 		.word	-2147483642
 211 006c 04010B40 		.word	1074462980
 212 0070 1C020240 		.word	1073873436
 213 0074 30020240 		.word	1073873456
 214 0078 08010B40 		.word	1074462984
 215 007c 14000080 		.word	-2147483628
 216 0080 00000240 		.word	1073872896
 217 0084 7F020080 		.word	-2147483009
 218 0088 40000240 		.word	1073872960
 219 008c 700200C0 		.word	-1073741200
 220 0090 80000240 		.word	1073873024
 221 0094 00000000 		.word	CySysWdtIsr
 222 0098 0C020B40 		.word	1074463244
 223              		.cfi_endproc
 224              	.LFE4:
 225              		.size	ClockSetup, .-ClockSetup
 226              		.section	.text.SetAnalogRoutingPumps,"ax",%progbits
 227              		.align	2
 228              		.global	SetAnalogRoutingPumps
 229              		.code	16
 230              		.thumb_func
 231              		.type	SetAnalogRoutingPumps, %function
 232              	SetAnalogRoutingPumps:
 233              	.LFB6:
 248:Generated_Source\PSoC4/cyfitter_cfg.c **** 
 249:Generated_Source\PSoC4/cyfitter_cfg.c **** 
 250:Generated_Source\PSoC4/cyfitter_cfg.c **** /* Analog API Functions */
 251:Generated_Source\PSoC4/cyfitter_cfg.c **** 
 252:Generated_Source\PSoC4/cyfitter_cfg.c **** 
 253:Generated_Source\PSoC4/cyfitter_cfg.c **** /*******************************************************************************
 254:Generated_Source\PSoC4/cyfitter_cfg.c **** * Function Name: AnalogSetDefault
 255:Generated_Source\PSoC4/cyfitter_cfg.c **** ********************************************************************************
 256:Generated_Source\PSoC4/cyfitter_cfg.c **** *
 257:Generated_Source\PSoC4/cyfitter_cfg.c **** * Summary:
 258:Generated_Source\PSoC4/cyfitter_cfg.c **** *  Sets up the analog portions of the chip to default values based on chip
 259:Generated_Source\PSoC4/cyfitter_cfg.c **** *  configuration options from the project.
 260:Generated_Source\PSoC4/cyfitter_cfg.c **** *
 261:Generated_Source\PSoC4/cyfitter_cfg.c **** * Parameters:
 262:Generated_Source\PSoC4/cyfitter_cfg.c **** *  void
 263:Generated_Source\PSoC4/cyfitter_cfg.c **** *
 264:Generated_Source\PSoC4/cyfitter_cfg.c **** * Return:
 265:Generated_Source\PSoC4/cyfitter_cfg.c **** *  void
 266:Generated_Source\PSoC4/cyfitter_cfg.c **** *
 267:Generated_Source\PSoC4/cyfitter_cfg.c **** *******************************************************************************/
 268:Generated_Source\PSoC4/cyfitter_cfg.c **** static void AnalogSetDefault(void);
 269:Generated_Source\PSoC4/cyfitter_cfg.c **** static void AnalogSetDefault(void)
 270:Generated_Source\PSoC4/cyfitter_cfg.c **** {
 271:Generated_Source\PSoC4/cyfitter_cfg.c **** 	CY_SET_XTND_REG32((void CYFAR *)CYREG_SAR_MUX_SWITCH0, 0x00000001u);
 272:Generated_Source\PSoC4/cyfitter_cfg.c **** 	SetAnalogRoutingPumps(1);
 273:Generated_Source\PSoC4/cyfitter_cfg.c **** }
 274:Generated_Source\PSoC4/cyfitter_cfg.c **** 
ARM GAS  C:\Users\MIHAILO\AppData\Local\Temp\ccXoIror.s 			page 10


 275:Generated_Source\PSoC4/cyfitter_cfg.c **** 
 276:Generated_Source\PSoC4/cyfitter_cfg.c **** /*******************************************************************************
 277:Generated_Source\PSoC4/cyfitter_cfg.c **** * Function Name: SetAnalogRoutingPumps
 278:Generated_Source\PSoC4/cyfitter_cfg.c **** ********************************************************************************
 279:Generated_Source\PSoC4/cyfitter_cfg.c **** *
 280:Generated_Source\PSoC4/cyfitter_cfg.c **** * Summary:
 281:Generated_Source\PSoC4/cyfitter_cfg.c **** * Enables or disables the analog pumps feeding analog routing switches.
 282:Generated_Source\PSoC4/cyfitter_cfg.c **** * Intended to be called at startup, based on the Vdda system configuration;
 283:Generated_Source\PSoC4/cyfitter_cfg.c **** * may be called during operation when the user informs us that the Vdda voltage crossed the pump th
 284:Generated_Source\PSoC4/cyfitter_cfg.c **** *
 285:Generated_Source\PSoC4/cyfitter_cfg.c **** * Parameters:
 286:Generated_Source\PSoC4/cyfitter_cfg.c **** *  enabled - 1 to enable the pumps, 0 to disable the pumps
 287:Generated_Source\PSoC4/cyfitter_cfg.c **** *
 288:Generated_Source\PSoC4/cyfitter_cfg.c **** * Return:
 289:Generated_Source\PSoC4/cyfitter_cfg.c **** *  void
 290:Generated_Source\PSoC4/cyfitter_cfg.c **** *
 291:Generated_Source\PSoC4/cyfitter_cfg.c **** *******************************************************************************/
 292:Generated_Source\PSoC4/cyfitter_cfg.c **** void SetAnalogRoutingPumps(uint8 enabled)
 293:Generated_Source\PSoC4/cyfitter_cfg.c **** {
 234              		.loc 1 293 0
 235              		.cfi_startproc
 236              		@ args = 0, pretend = 0, frame = 0
 237              		@ frame_needed = 0, uses_anonymous_args = 0
 238              		@ link register save eliminated.
 239              	.LVL18:
 294:Generated_Source\PSoC4/cyfitter_cfg.c **** 	uint32 regValue = CY_GET_XTND_REG32((void *)(CYREG_SAR_PUMP_CTRL));
 240              		.loc 1 294 0
 241 0000 064B     		ldr	r3, .L13
 242 0002 1B68     		ldr	r3, [r3]
 243              	.LVL19:
 295:Generated_Source\PSoC4/cyfitter_cfg.c **** 	if (enabled != 0u)
 244              		.loc 1 295 0
 245 0004 0028     		cmp	r0, #0
 246 0006 03D0     		beq	.L11
 296:Generated_Source\PSoC4/cyfitter_cfg.c **** 	{
 297:Generated_Source\PSoC4/cyfitter_cfg.c **** 		regValue |= 0x80000000u;
 247              		.loc 1 297 0
 248 0008 8022     		movs	r2, #128
 249 000a 1206     		lsls	r2, r2, #24
 250 000c 1343     		orrs	r3, r2
 251              	.LVL20:
 252 000e 01E0     		b	.L12
 253              	.L11:
 298:Generated_Source\PSoC4/cyfitter_cfg.c **** 	}
 299:Generated_Source\PSoC4/cyfitter_cfg.c **** 	else
 300:Generated_Source\PSoC4/cyfitter_cfg.c **** 	{
 301:Generated_Source\PSoC4/cyfitter_cfg.c **** 		regValue &= ~0x80000000u;
 254              		.loc 1 301 0
 255 0010 5B00     		lsls	r3, r3, #1
 256              	.LVL21:
 257 0012 5B08     		lsrs	r3, r3, #1
 258              	.LVL22:
 259              	.L12:
 302:Generated_Source\PSoC4/cyfitter_cfg.c **** 	}
 303:Generated_Source\PSoC4/cyfitter_cfg.c **** 	CY_SET_XTND_REG32((void *)(CYREG_SAR_PUMP_CTRL), regValue);
 260              		.loc 1 303 0
 261 0014 014A     		ldr	r2, .L13
ARM GAS  C:\Users\MIHAILO\AppData\Local\Temp\ccXoIror.s 			page 11


 262 0016 1360     		str	r3, [r2]
 304:Generated_Source\PSoC4/cyfitter_cfg.c **** }
 263              		.loc 1 304 0
 264              		@ sp needed
 265 0018 7047     		bx	lr
 266              	.L14:
 267 001a C046     		.align	2
 268              	.L13:
 269 001c 80031A40 		.word	1075446656
 270              		.cfi_endproc
 271              	.LFE6:
 272              		.size	SetAnalogRoutingPumps, .-SetAnalogRoutingPumps
 273              		.section	.text.AnalogSetDefault,"ax",%progbits
 274              		.align	2
 275              		.code	16
 276              		.thumb_func
 277              		.type	AnalogSetDefault, %function
 278              	AnalogSetDefault:
 279              	.LFB5:
 270:Generated_Source\PSoC4/cyfitter_cfg.c **** 	CY_SET_XTND_REG32((void CYFAR *)CYREG_SAR_MUX_SWITCH0, 0x00000001u);
 280              		.loc 1 270 0
 281              		.cfi_startproc
 282              		@ args = 0, pretend = 0, frame = 0
 283              		@ frame_needed = 0, uses_anonymous_args = 0
 284 0000 10B5     		push	{r4, lr}
 285              		.cfi_def_cfa_offset 8
 286              		.cfi_offset 4, -8
 287              		.cfi_offset 14, -4
 271:Generated_Source\PSoC4/cyfitter_cfg.c **** 	SetAnalogRoutingPumps(1);
 288              		.loc 1 271 0
 289 0002 0122     		movs	r2, #1
 290 0004 024B     		ldr	r3, .L16
 291 0006 1A60     		str	r2, [r3]
 272:Generated_Source\PSoC4/cyfitter_cfg.c **** }
 292              		.loc 1 272 0
 293 0008 0120     		movs	r0, #1
 294 000a FFF7FEFF 		bl	SetAnalogRoutingPumps
 295              	.LVL23:
 273:Generated_Source\PSoC4/cyfitter_cfg.c **** 
 296              		.loc 1 273 0
 297              		@ sp needed
 298 000e 10BD     		pop	{r4, pc}
 299              	.L17:
 300              		.align	2
 301              	.L16:
 302 0010 00031A40 		.word	1075446528
 303              		.cfi_endproc
 304              	.LFE5:
 305              		.size	AnalogSetDefault, .-AnalogSetDefault
 306              		.section	.psocinit
 307              		.align	2
 308              		.global	cyfitter_cfg
 309              		.code	16
 310              		.thumb_func
 311              		.type	cyfitter_cfg, %function
 312              	cyfitter_cfg:
 313              	.LFB7:
ARM GAS  C:\Users\MIHAILO\AppData\Local\Temp\ccXoIror.s 			page 12


 305:Generated_Source\PSoC4/cyfitter_cfg.c **** 
 306:Generated_Source\PSoC4/cyfitter_cfg.c **** 
 307:Generated_Source\PSoC4/cyfitter_cfg.c **** 
 308:Generated_Source\PSoC4/cyfitter_cfg.c **** 
 309:Generated_Source\PSoC4/cyfitter_cfg.c **** /*******************************************************************************
 310:Generated_Source\PSoC4/cyfitter_cfg.c **** * Function Name: cyfitter_cfg
 311:Generated_Source\PSoC4/cyfitter_cfg.c **** ********************************************************************************
 312:Generated_Source\PSoC4/cyfitter_cfg.c **** * Summary:
 313:Generated_Source\PSoC4/cyfitter_cfg.c **** *  This function is called by the start-up code for the selected device. It
 314:Generated_Source\PSoC4/cyfitter_cfg.c **** *  performs all of the necessary device configuration based on the design
 315:Generated_Source\PSoC4/cyfitter_cfg.c **** *  settings.  This includes settings from the Design Wide Resources (DWR) such
 316:Generated_Source\PSoC4/cyfitter_cfg.c **** *  as Clocks and Pins as well as any component configuration that is necessary.
 317:Generated_Source\PSoC4/cyfitter_cfg.c **** *
 318:Generated_Source\PSoC4/cyfitter_cfg.c **** * Parameters:
 319:Generated_Source\PSoC4/cyfitter_cfg.c **** *   void
 320:Generated_Source\PSoC4/cyfitter_cfg.c **** *
 321:Generated_Source\PSoC4/cyfitter_cfg.c **** * Return:
 322:Generated_Source\PSoC4/cyfitter_cfg.c **** *   void
 323:Generated_Source\PSoC4/cyfitter_cfg.c **** *
 324:Generated_Source\PSoC4/cyfitter_cfg.c **** *******************************************************************************/
 325:Generated_Source\PSoC4/cyfitter_cfg.c **** CY_CFG_SECTION
 326:Generated_Source\PSoC4/cyfitter_cfg.c **** void cyfitter_cfg(void)
 327:Generated_Source\PSoC4/cyfitter_cfg.c **** {
 314              		.loc 1 327 0
 315              		.cfi_startproc
 316              		@ args = 0, pretend = 0, frame = 0
 317              		@ frame_needed = 0, uses_anonymous_args = 0
 318 009c 10B5     		push	{r4, lr}
 319              		.cfi_def_cfa_offset 8
 320              		.cfi_offset 4, -8
 321              		.cfi_offset 14, -4
 328:Generated_Source\PSoC4/cyfitter_cfg.c **** 	/* Disable interrupts by default. Let user enable if/when they want. */
 329:Generated_Source\PSoC4/cyfitter_cfg.c **** 	CyGlobalIntDisable;
 322              		.loc 1 329 0
 323              		.syntax divided
 324              	@ 329 "Generated_Source\PSoC4\cyfitter_cfg.c" 1
 325 009e 72B6     		CPSID   i
 326              	@ 0 "" 2
 327              	.LVL24:
 328              		.thumb
 329              		.syntax unified
 330              	.LBB3:
 330:Generated_Source\PSoC4/cyfitter_cfg.c **** 
 331:Generated_Source\PSoC4/cyfitter_cfg.c **** 	{
 332:Generated_Source\PSoC4/cyfitter_cfg.c **** 		static const uint32 CYCODE cy_cfg_addr_table[] = {
 333:Generated_Source\PSoC4/cyfitter_cfg.c **** 			0x400F0001u, /* Base address: 0x400F0000 Count: 1 */
 334:Generated_Source\PSoC4/cyfitter_cfg.c **** 			0x400F3022u, /* Base address: 0x400F3000 Count: 34 */
 335:Generated_Source\PSoC4/cyfitter_cfg.c **** 			0x400F3115u, /* Base address: 0x400F3100 Count: 21 */
 336:Generated_Source\PSoC4/cyfitter_cfg.c **** 			0x400F3301u, /* Base address: 0x400F3300 Count: 1 */
 337:Generated_Source\PSoC4/cyfitter_cfg.c **** 			0x400F4002u, /* Base address: 0x400F4000 Count: 2 */
 338:Generated_Source\PSoC4/cyfitter_cfg.c **** 			0x400F4102u, /* Base address: 0x400F4100 Count: 2 */
 339:Generated_Source\PSoC4/cyfitter_cfg.c **** 			0x400F6002u, /* Base address: 0x400F6000 Count: 2 */
 340:Generated_Source\PSoC4/cyfitter_cfg.c **** 		};
 341:Generated_Source\PSoC4/cyfitter_cfg.c **** 
 342:Generated_Source\PSoC4/cyfitter_cfg.c **** 		static const cy_cfg_addrvalue_t CYCODE cy_cfg_data_table[] = {
 343:Generated_Source\PSoC4/cyfitter_cfg.c **** 			{0x80u, 0x0Fu},
 344:Generated_Source\PSoC4/cyfitter_cfg.c **** 			{0x06u, 0x03u},
ARM GAS  C:\Users\MIHAILO\AppData\Local\Temp\ccXoIror.s 			page 13


 345:Generated_Source\PSoC4/cyfitter_cfg.c **** 			{0x08u, 0x01u},
 346:Generated_Source\PSoC4/cyfitter_cfg.c **** 			{0x12u, 0x04u},
 347:Generated_Source\PSoC4/cyfitter_cfg.c **** 			{0x2Eu, 0x05u},
 348:Generated_Source\PSoC4/cyfitter_cfg.c **** 			{0x30u, 0x04u},
 349:Generated_Source\PSoC4/cyfitter_cfg.c **** 			{0x32u, 0x02u},
 350:Generated_Source\PSoC4/cyfitter_cfg.c **** 			{0x34u, 0x01u},
 351:Generated_Source\PSoC4/cyfitter_cfg.c **** 			{0x36u, 0x01u},
 352:Generated_Source\PSoC4/cyfitter_cfg.c **** 			{0x3Eu, 0x51u},
 353:Generated_Source\PSoC4/cyfitter_cfg.c **** 			{0x40u, 0x54u},
 354:Generated_Source\PSoC4/cyfitter_cfg.c **** 			{0x42u, 0x01u},
 355:Generated_Source\PSoC4/cyfitter_cfg.c **** 			{0x45u, 0xECu},
 356:Generated_Source\PSoC4/cyfitter_cfg.c **** 			{0x47u, 0x20u},
 357:Generated_Source\PSoC4/cyfitter_cfg.c **** 			{0x48u, 0x23u},
 358:Generated_Source\PSoC4/cyfitter_cfg.c **** 			{0x49u, 0xFFu},
 359:Generated_Source\PSoC4/cyfitter_cfg.c **** 			{0x4Au, 0xFFu},
 360:Generated_Source\PSoC4/cyfitter_cfg.c **** 			{0x4Bu, 0xFFu},
 361:Generated_Source\PSoC4/cyfitter_cfg.c **** 			{0x4Fu, 0x01u},
 362:Generated_Source\PSoC4/cyfitter_cfg.c **** 			{0x50u, 0x18u},
 363:Generated_Source\PSoC4/cyfitter_cfg.c **** 			{0x52u, 0x80u},
 364:Generated_Source\PSoC4/cyfitter_cfg.c **** 			{0x54u, 0x03u},
 365:Generated_Source\PSoC4/cyfitter_cfg.c **** 			{0x58u, 0x04u},
 366:Generated_Source\PSoC4/cyfitter_cfg.c **** 			{0x5Au, 0x04u},
 367:Generated_Source\PSoC4/cyfitter_cfg.c **** 			{0x5Bu, 0x04u},
 368:Generated_Source\PSoC4/cyfitter_cfg.c **** 			{0x5Fu, 0x01u},
 369:Generated_Source\PSoC4/cyfitter_cfg.c **** 			{0x60u, 0x40u},
 370:Generated_Source\PSoC4/cyfitter_cfg.c **** 			{0x62u, 0x40u},
 371:Generated_Source\PSoC4/cyfitter_cfg.c **** 			{0x64u, 0x40u},
 372:Generated_Source\PSoC4/cyfitter_cfg.c **** 			{0x65u, 0x40u},
 373:Generated_Source\PSoC4/cyfitter_cfg.c **** 			{0x66u, 0x80u},
 374:Generated_Source\PSoC4/cyfitter_cfg.c **** 			{0x68u, 0x80u},
 375:Generated_Source\PSoC4/cyfitter_cfg.c **** 			{0x6Au, 0x80u},
 376:Generated_Source\PSoC4/cyfitter_cfg.c **** 			{0x6Cu, 0x80u},
 377:Generated_Source\PSoC4/cyfitter_cfg.c **** 			{0x6Eu, 0x80u},
 378:Generated_Source\PSoC4/cyfitter_cfg.c **** 			{0x00u, 0x10u},
 379:Generated_Source\PSoC4/cyfitter_cfg.c **** 			{0x01u, 0x08u},
 380:Generated_Source\PSoC4/cyfitter_cfg.c **** 			{0x09u, 0x02u},
 381:Generated_Source\PSoC4/cyfitter_cfg.c **** 			{0x13u, 0x40u},
 382:Generated_Source\PSoC4/cyfitter_cfg.c **** 			{0x18u, 0x11u},
 383:Generated_Source\PSoC4/cyfitter_cfg.c **** 			{0x19u, 0x10u},
 384:Generated_Source\PSoC4/cyfitter_cfg.c **** 			{0x1Au, 0x40u},
 385:Generated_Source\PSoC4/cyfitter_cfg.c **** 			{0x40u, 0x01u},
 386:Generated_Source\PSoC4/cyfitter_cfg.c **** 			{0x41u, 0x02u},
 387:Generated_Source\PSoC4/cyfitter_cfg.c **** 			{0x49u, 0x05u},
 388:Generated_Source\PSoC4/cyfitter_cfg.c **** 			{0x4Bu, 0x40u},
 389:Generated_Source\PSoC4/cyfitter_cfg.c **** 			{0x51u, 0x02u},
 390:Generated_Source\PSoC4/cyfitter_cfg.c **** 			{0x59u, 0x15u},
 391:Generated_Source\PSoC4/cyfitter_cfg.c **** 			{0x5Au, 0x40u},
 392:Generated_Source\PSoC4/cyfitter_cfg.c **** 			{0x73u, 0x40u},
 393:Generated_Source\PSoC4/cyfitter_cfg.c **** 			{0xC0u, 0x06u},
 394:Generated_Source\PSoC4/cyfitter_cfg.c **** 			{0xC2u, 0x08u},
 395:Generated_Source\PSoC4/cyfitter_cfg.c **** 			{0xC4u, 0x01u},
 396:Generated_Source\PSoC4/cyfitter_cfg.c **** 			{0xD0u, 0x09u},
 397:Generated_Source\PSoC4/cyfitter_cfg.c **** 			{0xD2u, 0x08u},
 398:Generated_Source\PSoC4/cyfitter_cfg.c **** 			{0xD6u, 0x0Fu},
 399:Generated_Source\PSoC4/cyfitter_cfg.c **** 			{0xA9u, 0x08u},
 400:Generated_Source\PSoC4/cyfitter_cfg.c **** 			{0x2Fu, 0x20u},
 401:Generated_Source\PSoC4/cyfitter_cfg.c **** 			{0xCAu, 0x80u},
ARM GAS  C:\Users\MIHAILO\AppData\Local\Temp\ccXoIror.s 			page 14


 402:Generated_Source\PSoC4/cyfitter_cfg.c **** 			{0xABu, 0x20u},
 403:Generated_Source\PSoC4/cyfitter_cfg.c **** 			{0xECu, 0x20u},
 404:Generated_Source\PSoC4/cyfitter_cfg.c **** 			{0x01u, 0x01u},
 405:Generated_Source\PSoC4/cyfitter_cfg.c **** 			{0x10u, 0x01u},
 406:Generated_Source\PSoC4/cyfitter_cfg.c **** 		};
 407:Generated_Source\PSoC4/cyfitter_cfg.c **** 
 408:Generated_Source\PSoC4/cyfitter_cfg.c **** 
 409:Generated_Source\PSoC4/cyfitter_cfg.c **** 
 410:Generated_Source\PSoC4/cyfitter_cfg.c **** 		CYPACKED typedef struct {
 411:Generated_Source\PSoC4/cyfitter_cfg.c **** 			void CYFAR *address;
 412:Generated_Source\PSoC4/cyfitter_cfg.c **** 			uint16 size;
 413:Generated_Source\PSoC4/cyfitter_cfg.c **** 		} CYPACKED_ATTR cfg_memset_t;
 414:Generated_Source\PSoC4/cyfitter_cfg.c **** 
 415:Generated_Source\PSoC4/cyfitter_cfg.c **** 		static const cfg_memset_t CYCODE cfg_memset_list[] = {
 416:Generated_Source\PSoC4/cyfitter_cfg.c **** 			/* address, size */
 417:Generated_Source\PSoC4/cyfitter_cfg.c **** 			{(void CYFAR *)(CYDEV_UDB_P0_U0_BASE), 1024u},
 418:Generated_Source\PSoC4/cyfitter_cfg.c **** 			{(void CYFAR *)(CYDEV_UDB_DSI0_BASE), 1024u},
 419:Generated_Source\PSoC4/cyfitter_cfg.c **** 		};
 420:Generated_Source\PSoC4/cyfitter_cfg.c **** 
 421:Generated_Source\PSoC4/cyfitter_cfg.c **** 		uint8 CYDATA i;
 422:Generated_Source\PSoC4/cyfitter_cfg.c **** 
 423:Generated_Source\PSoC4/cyfitter_cfg.c **** 		/* Zero out critical memory blocks before beginning configuration */
 424:Generated_Source\PSoC4/cyfitter_cfg.c **** 		for (i = 0u; i < (sizeof(cfg_memset_list)/sizeof(cfg_memset_list[0])); i++)
 331              		.loc 1 424 0
 332 00a0 0024     		movs	r4, #0
 333 00a2 0FE0     		b	.L19
 334              	.LVL25:
 335              	.L20:
 336              	.LBB4:
 425:Generated_Source\PSoC4/cyfitter_cfg.c **** 		{
 426:Generated_Source\PSoC4/cyfitter_cfg.c **** 			const cfg_memset_t CYCODE * CYDATA ms = &cfg_memset_list[i];
 427:Generated_Source\PSoC4/cyfitter_cfg.c **** 			CYMEMZERO(ms->address, (size_t)(uint32)(ms->size));
 337              		.loc 1 427 0 discriminator 3
 338 00a4 2048     		ldr	r0, .L21
 339 00a6 6200     		lsls	r2, r4, #1
 340 00a8 1319     		adds	r3, r2, r4
 341 00aa 5900     		lsls	r1, r3, #1
 342 00ac 0B00     		movs	r3, r1
 343 00ae 4118     		adds	r1, r0, r1
 344 00b0 8988     		ldrh	r1, [r1, #4]
 345 00b2 1A5A     		ldrh	r2, [r3, r0]
 346 00b4 C318     		adds	r3, r0, r3
 347 00b6 5888     		ldrh	r0, [r3, #2]
 348 00b8 0004     		lsls	r0, r0, #16
 349 00ba 1043     		orrs	r0, r2
 350 00bc FFF7FEFF 		bl	CYMEMZERO
 351              	.LVL26:
 352              	.LBE4:
 424:Generated_Source\PSoC4/cyfitter_cfg.c **** 		{
 353              		.loc 1 424 0 discriminator 3
 354 00c0 0134     		adds	r4, r4, #1
 355              	.LVL27:
 356 00c2 E4B2     		uxtb	r4, r4
 357              	.LVL28:
 358              	.L19:
 424:Generated_Source\PSoC4/cyfitter_cfg.c **** 		{
 359              		.loc 1 424 0 is_stmt 0 discriminator 1
ARM GAS  C:\Users\MIHAILO\AppData\Local\Temp\ccXoIror.s 			page 15


 360 00c4 012C     		cmp	r4, #1
 361 00c6 EDD9     		bls	.L20
 428:Generated_Source\PSoC4/cyfitter_cfg.c **** 		}
 429:Generated_Source\PSoC4/cyfitter_cfg.c **** 
 430:Generated_Source\PSoC4/cyfitter_cfg.c **** 		cfg_write_bytes32(cy_cfg_addr_table, cy_cfg_data_table);
 362              		.loc 1 430 0 is_stmt 1
 363 00c8 1749     		ldr	r1, .L21
 364 00ca 0C31     		adds	r1, r1, #12
 365 00cc 1748     		ldr	r0, .L21+4
 366 00ce 0C30     		adds	r0, r0, #12
 367 00d0 FFF7FEFF 		bl	cfg_write_bytes32
 368              	.LVL29:
 431:Generated_Source\PSoC4/cyfitter_cfg.c **** 
 432:Generated_Source\PSoC4/cyfitter_cfg.c **** 		/* HSIOM Starting address: CYDEV_HSIOM_BASE */
 433:Generated_Source\PSoC4/cyfitter_cfg.c **** 		CY_SET_REG32((void *)(CYREG_HSIOM_PORT_SEL3), 0x0000EE00u);
 369              		.loc 1 433 0
 370 00d4 EE22     		movs	r2, #238
 371 00d6 1202     		lsls	r2, r2, #8
 372 00d8 154B     		ldr	r3, .L21+8
 373 00da 1A60     		str	r2, [r3]
 434:Generated_Source\PSoC4/cyfitter_cfg.c **** 
 435:Generated_Source\PSoC4/cyfitter_cfg.c **** 		/* UDB_PA_2 Starting address: CYDEV_UDB_PA2_BASE */
 436:Generated_Source\PSoC4/cyfitter_cfg.c **** 		CY_SET_REG32((void *)(CYDEV_UDB_PA2_BASE), 0x00990000u);
 374              		.loc 1 436 0
 375 00dc 9923     		movs	r3, #153
 376 00de 1B04     		lsls	r3, r3, #16
 377 00e0 144A     		ldr	r2, .L21+12
 378 00e2 1360     		str	r3, [r2]
 437:Generated_Source\PSoC4/cyfitter_cfg.c **** 
 438:Generated_Source\PSoC4/cyfitter_cfg.c **** 		/* UDB_PA_3 Starting address: CYDEV_UDB_PA3_BASE */
 439:Generated_Source\PSoC4/cyfitter_cfg.c **** 		CY_SET_REG32((void *)(CYDEV_UDB_PA3_BASE), 0x00990000u);
 379              		.loc 1 439 0
 380 00e4 144A     		ldr	r2, .L21+16
 381 00e6 1360     		str	r3, [r2]
 440:Generated_Source\PSoC4/cyfitter_cfg.c **** 
 441:Generated_Source\PSoC4/cyfitter_cfg.c **** 		/* Enable UDB array and digital routing */
 442:Generated_Source\PSoC4/cyfitter_cfg.c **** 		CY_SET_XTND_REG8((void *)CYREG_UDB_UDBIF_WAIT_CFG, (uint8)((CY_GET_XTND_REG8((void *)CYREG_UDB_UD
 382              		.loc 1 442 0
 383 00e8 1449     		ldr	r1, .L21+20
 384 00ea 0B78     		ldrb	r3, [r1]
 385 00ec 3C22     		movs	r2, #60
 386 00ee 9343     		bics	r3, r2
 387 00f0 1422     		movs	r2, #20
 388 00f2 1343     		orrs	r3, r2
 389 00f4 DBB2     		uxtb	r3, r3
 390 00f6 0B70     		strb	r3, [r1]
 443:Generated_Source\PSoC4/cyfitter_cfg.c **** 		CY_SET_XTND_REG8((void *)CYREG_UDB_UDBIF_BANK_CTL, (uint8)(CY_GET_XTND_REG8((void *)CYREG_UDB_UDB
 391              		.loc 1 443 0
 392 00f8 114A     		ldr	r2, .L21+24
 393 00fa 1178     		ldrb	r1, [r2]
 394 00fc 1623     		movs	r3, #22
 395 00fe 0B43     		orrs	r3, r1
 396 0100 DBB2     		uxtb	r3, r3
 397 0102 1370     		strb	r3, [r2]
 398              	.LBE3:
 444:Generated_Source\PSoC4/cyfitter_cfg.c **** 	}
 445:Generated_Source\PSoC4/cyfitter_cfg.c **** 
ARM GAS  C:\Users\MIHAILO\AppData\Local\Temp\ccXoIror.s 			page 16


 446:Generated_Source\PSoC4/cyfitter_cfg.c **** 	/* Perform second pass device configuration. These items must be configured in specific order afte
 447:Generated_Source\PSoC4/cyfitter_cfg.c **** 	/* IOPINS0_2 Starting address: CYDEV_PRT2_BASE */
 448:Generated_Source\PSoC4/cyfitter_cfg.c **** 	CY_SET_REG32((void *)(CYDEV_PRT2_BASE), 0x00000001u);
 399              		.loc 1 448 0
 400 0104 0123     		movs	r3, #1
 401 0106 0F4A     		ldr	r2, .L21+28
 402 0108 1360     		str	r3, [r2]
 449:Generated_Source\PSoC4/cyfitter_cfg.c **** 	CY_SET_REG32((void *)(CYREG_PRT2_PC), 0x00DB6DB0u);
 403              		.loc 1 449 0
 404 010a 0F49     		ldr	r1, .L21+32
 405 010c 0F4A     		ldr	r2, .L21+36
 406 010e 1160     		str	r1, [r2]
 450:Generated_Source\PSoC4/cyfitter_cfg.c **** 	CY_SET_REG32((void *)(CYREG_PRT2_PC2), 0x00000001u);
 407              		.loc 1 450 0
 408 0110 0F4A     		ldr	r2, .L21+40
 409 0112 1360     		str	r3, [r2]
 451:Generated_Source\PSoC4/cyfitter_cfg.c **** 
 452:Generated_Source\PSoC4/cyfitter_cfg.c **** 	/* IOPINS0_3 Starting address: CYDEV_PRT3_BASE */
 453:Generated_Source\PSoC4/cyfitter_cfg.c **** 	CY_SET_REG32((void *)(CYREG_PRT3_PC), 0x00000D80u);
 410              		.loc 1 453 0
 411 0114 D822     		movs	r2, #216
 412 0116 1201     		lsls	r2, r2, #4
 413 0118 0E4B     		ldr	r3, .L21+44
 414 011a 1A60     		str	r2, [r3]
 454:Generated_Source\PSoC4/cyfitter_cfg.c **** 
 455:Generated_Source\PSoC4/cyfitter_cfg.c **** 
 456:Generated_Source\PSoC4/cyfitter_cfg.c **** 	/* Setup clocks based on selections from Clock DWR */
 457:Generated_Source\PSoC4/cyfitter_cfg.c **** 	ClockSetup();
 415              		.loc 1 457 0
 416 011c FFF770FF 		bl	ClockSetup
 417              	.LVL30:
 458:Generated_Source\PSoC4/cyfitter_cfg.c **** 
 459:Generated_Source\PSoC4/cyfitter_cfg.c **** 	/* Perform basic analog initialization to defaults */
 460:Generated_Source\PSoC4/cyfitter_cfg.c **** 	AnalogSetDefault();
 418              		.loc 1 460 0
 419 0120 FFF7FEFF 		bl	AnalogSetDefault
 420              	.LVL31:
 461:Generated_Source\PSoC4/cyfitter_cfg.c **** 
 462:Generated_Source\PSoC4/cyfitter_cfg.c **** }
 421              		.loc 1 462 0
 422              		@ sp needed
 423              	.LVL32:
 424 0124 10BD     		pop	{r4, pc}
 425              	.L22:
 426 0126 C046     		.align	2
 427              	.L21:
 428 0128 00000000 		.word	.LANCHOR0
 429 012c 80000000 		.word	.LANCHOR1
 430 0130 0C000140 		.word	1073807372
 431 0134 20500F40 		.word	1074745376
 432 0138 30500F40 		.word	1074745392
 433 013c 01700F40 		.word	1074753537
 434 0140 00700F40 		.word	1074753536
 435 0144 00020440 		.word	1074004480
 436 0148 B06DDB00 		.word	14380464
 437 014c 08020440 		.word	1074004488
 438 0150 18020440 		.word	1074004504
ARM GAS  C:\Users\MIHAILO\AppData\Local\Temp\ccXoIror.s 			page 17


 439 0154 08030440 		.word	1074004744
 440              		.cfi_endproc
 441              	.LFE7:
 442              		.size	cyfitter_cfg, .-cyfitter_cfg
 443              		.section	.rodata
 444              		.align	2
 445              		.set	.LANCHOR0,. + 0
 446              		.set	.LANCHOR1,. + 128
 447              		.type	cfg_memset_list.4876, %object
 448              		.size	cfg_memset_list.4876, 12
 449              	cfg_memset_list.4876:
 450 0000 00300F40 		.word	1074737152
 451 0004 0004     		.short	1024
 452 0006 00400F40 		.4byte	1074741248
 453 000a 0004     		.short	1024
 454              		.type	cy_cfg_data_table.4871, %object
 455              		.size	cy_cfg_data_table.4871, 126
 456              	cy_cfg_data_table.4871:
 457 000c 80       		.byte	-128
 458 000d 0F       		.byte	15
 459 000e 06       		.byte	6
 460 000f 03       		.byte	3
 461 0010 08       		.byte	8
 462 0011 01       		.byte	1
 463 0012 12       		.byte	18
 464 0013 04       		.byte	4
 465 0014 2E       		.byte	46
 466 0015 05       		.byte	5
 467 0016 30       		.byte	48
 468 0017 04       		.byte	4
 469 0018 32       		.byte	50
 470 0019 02       		.byte	2
 471 001a 34       		.byte	52
 472 001b 01       		.byte	1
 473 001c 36       		.byte	54
 474 001d 01       		.byte	1
 475 001e 3E       		.byte	62
 476 001f 51       		.byte	81
 477 0020 40       		.byte	64
 478 0021 54       		.byte	84
 479 0022 42       		.byte	66
 480 0023 01       		.byte	1
 481 0024 45       		.byte	69
 482 0025 EC       		.byte	-20
 483 0026 47       		.byte	71
 484 0027 20       		.byte	32
 485 0028 48       		.byte	72
 486 0029 23       		.byte	35
 487 002a 49       		.byte	73
 488 002b FF       		.byte	-1
 489 002c 4A       		.byte	74
 490 002d FF       		.byte	-1
 491 002e 4B       		.byte	75
 492 002f FF       		.byte	-1
 493 0030 4F       		.byte	79
 494 0031 01       		.byte	1
 495 0032 50       		.byte	80
ARM GAS  C:\Users\MIHAILO\AppData\Local\Temp\ccXoIror.s 			page 18


 496 0033 18       		.byte	24
 497 0034 52       		.byte	82
 498 0035 80       		.byte	-128
 499 0036 54       		.byte	84
 500 0037 03       		.byte	3
 501 0038 58       		.byte	88
 502 0039 04       		.byte	4
 503 003a 5A       		.byte	90
 504 003b 04       		.byte	4
 505 003c 5B       		.byte	91
 506 003d 04       		.byte	4
 507 003e 5F       		.byte	95
 508 003f 01       		.byte	1
 509 0040 60       		.byte	96
 510 0041 40       		.byte	64
 511 0042 62       		.byte	98
 512 0043 40       		.byte	64
 513 0044 64       		.byte	100
 514 0045 40       		.byte	64
 515 0046 65       		.byte	101
 516 0047 40       		.byte	64
 517 0048 66       		.byte	102
 518 0049 80       		.byte	-128
 519 004a 68       		.byte	104
 520 004b 80       		.byte	-128
 521 004c 6A       		.byte	106
 522 004d 80       		.byte	-128
 523 004e 6C       		.byte	108
 524 004f 80       		.byte	-128
 525 0050 6E       		.byte	110
 526 0051 80       		.byte	-128
 527 0052 00       		.byte	0
 528 0053 10       		.byte	16
 529 0054 01       		.byte	1
 530 0055 08       		.byte	8
 531 0056 09       		.byte	9
 532 0057 02       		.byte	2
 533 0058 13       		.byte	19
 534 0059 40       		.byte	64
 535 005a 18       		.byte	24
 536 005b 11       		.byte	17
 537 005c 19       		.byte	25
 538 005d 10       		.byte	16
 539 005e 1A       		.byte	26
 540 005f 40       		.byte	64
 541 0060 40       		.byte	64
 542 0061 01       		.byte	1
 543 0062 41       		.byte	65
 544 0063 02       		.byte	2
 545 0064 49       		.byte	73
 546 0065 05       		.byte	5
 547 0066 4B       		.byte	75
 548 0067 40       		.byte	64
 549 0068 51       		.byte	81
 550 0069 02       		.byte	2
 551 006a 59       		.byte	89
 552 006b 15       		.byte	21
ARM GAS  C:\Users\MIHAILO\AppData\Local\Temp\ccXoIror.s 			page 19


 553 006c 5A       		.byte	90
 554 006d 40       		.byte	64
 555 006e 73       		.byte	115
 556 006f 40       		.byte	64
 557 0070 C0       		.byte	-64
 558 0071 06       		.byte	6
 559 0072 C2       		.byte	-62
 560 0073 08       		.byte	8
 561 0074 C4       		.byte	-60
 562 0075 01       		.byte	1
 563 0076 D0       		.byte	-48
 564 0077 09       		.byte	9
 565 0078 D2       		.byte	-46
 566 0079 08       		.byte	8
 567 007a D6       		.byte	-42
 568 007b 0F       		.byte	15
 569 007c A9       		.byte	-87
 570 007d 08       		.byte	8
 571 007e 2F       		.byte	47
 572 007f 20       		.byte	32
 573 0080 CA       		.byte	-54
 574 0081 80       		.byte	-128
 575 0082 AB       		.byte	-85
 576 0083 20       		.byte	32
 577 0084 EC       		.byte	-20
 578 0085 20       		.byte	32
 579 0086 01       		.byte	1
 580 0087 01       		.byte	1
 581 0088 10       		.byte	16
 582 0089 01       		.byte	1
 583 008a 0000     		.space	2
 584              		.type	cy_cfg_addr_table.4870, %object
 585              		.size	cy_cfg_addr_table.4870, 28
 586              	cy_cfg_addr_table.4870:
 587 008c 01000F40 		.word	1074724865
 588 0090 22300F40 		.word	1074737186
 589 0094 15310F40 		.word	1074737429
 590 0098 01330F40 		.word	1074737921
 591 009c 02400F40 		.word	1074741250
 592 00a0 02410F40 		.word	1074741506
 593 00a4 02600F40 		.word	1074749442
 594              		.text
 595              	.Letext0:
 596              		.file 2 "c:\\program files (x86)\\cypress\\psoc creator\\4.4\\psoc creator\\import\\gnu\\arm\\5.4.
 597              		.file 3 "Generated_Source\\PSoC4\\cytypes.h"
 598              		.file 4 "Generated_Source\\PSoC4\\CyLib.h"